
b.exe:     file format elf32-i386


Disassembly of section .text:

00001000 <_Entry>:
    1000:	55                   	push   %ebp
    1001:	89 e5                	mov    %esp,%ebp
    1003:	83 ec 18             	sub    $0x18,%esp
    1006:	89 f0                	mov    %esi,%eax
    1008:	8b 50 04             	mov    0x4(%eax),%edx
    100b:	89 54 24 04          	mov    %edx,0x4(%esp)
    100f:	8b 00                	mov    (%eax),%eax
    1011:	89 04 24             	mov    %eax,(%esp)
    1014:	e8 0a 00 00 00       	call   1023 <main>
    1019:	89 04 24             	mov    %eax,(%esp)
    101c:	e8 60 00 00 00       	call   1081 <Exit>
    1021:	c9                   	leave  
    1022:	c3                   	ret    

00001023 <main>:
    1023:	55                   	push   %ebp
    1024:	89 e5                	mov    %esp,%ebp
    1026:	57                   	push   %edi
    1027:	56                   	push   %esi
    1028:	53                   	push   %ebx
    1029:	83 e4 f0             	and    $0xfffffff0,%esp
    102c:	83 ec 10             	sub    $0x10,%esp
    102f:	8b 75 08             	mov    0x8(%ebp),%esi
    1032:	8b 7d 0c             	mov    0xc(%ebp),%edi
    1035:	c7 04 24 98 1f 00 00 	movl   $0x1f98,(%esp)
    103c:	e8 ec 00 00 00       	call   112d <Print_String>
    1041:	85 f6                	test   %esi,%esi
    1043:	7e 23                	jle    1068 <main+0x45>
    1045:	bb 00 00 00 00       	mov    $0x0,%ebx
    104a:	8b 04 9f             	mov    (%edi,%ebx,4),%eax
    104d:	89 44 24 08          	mov    %eax,0x8(%esp)
    1051:	89 5c 24 04          	mov    %ebx,0x4(%esp)
    1055:	c7 04 24 ac 1f 00 00 	movl   $0x1fac,(%esp)
    105c:	e8 06 03 00 00       	call   1367 <Print>
    1061:	83 c3 01             	add    $0x1,%ebx
    1064:	39 f3                	cmp    %esi,%ebx
    1066:	75 e2                	jne    104a <main+0x27>
    1068:	b8 01 00 00 00       	mov    $0x1,%eax
    106d:	8d 65 f4             	lea    -0xc(%ebp),%esp
    1070:	5b                   	pop    %ebx
    1071:	5e                   	pop    %esi
    1072:	5f                   	pop    %edi
    1073:	5d                   	pop    %ebp
    1074:	c3                   	ret    

00001075 <Null>:
    1075:	55                   	push   %ebp
    1076:	89 e5                	mov    %esp,%ebp
    1078:	b8 00 00 00 00       	mov    $0x0,%eax
    107d:	cd 90                	int    $0x90
    107f:	5d                   	pop    %ebp
    1080:	c3                   	ret    

00001081 <Exit>:
    1081:	55                   	push   %ebp
    1082:	89 e5                	mov    %esp,%ebp
    1084:	53                   	push   %ebx
    1085:	b8 01 00 00 00       	mov    $0x1,%eax
    108a:	8b 5d 08             	mov    0x8(%ebp),%ebx
    108d:	cd 90                	int    $0x90
    108f:	5b                   	pop    %ebx
    1090:	5d                   	pop    %ebp
    1091:	c3                   	ret    

00001092 <Spawn_Program>:
    1092:	55                   	push   %ebp
    1093:	89 e5                	mov    %esp,%ebp
    1095:	57                   	push   %edi
    1096:	56                   	push   %esi
    1097:	53                   	push   %ebx
    1098:	83 ec 04             	sub    $0x4,%esp
    109b:	8b 5d 08             	mov    0x8(%ebp),%ebx
    109e:	8b 55 0c             	mov    0xc(%ebp),%edx
    10a1:	be ff ff ff ff       	mov    $0xffffffff,%esi
    10a6:	89 df                	mov    %ebx,%edi
    10a8:	b8 00 00 00 00       	mov    $0x0,%eax
    10ad:	89 f1                	mov    %esi,%ecx
    10af:	f2 ae                	repnz scas %es:(%edi),%al
    10b1:	f7 d1                	not    %ecx
    10b3:	83 e9 01             	sub    $0x1,%ecx
    10b6:	89 4d f0             	mov    %ecx,-0x10(%ebp)
    10b9:	89 d7                	mov    %edx,%edi
    10bb:	89 f1                	mov    %esi,%ecx
    10bd:	f2 ae                	repnz scas %es:(%edi),%al
    10bf:	89 ce                	mov    %ecx,%esi
    10c1:	f7 d6                	not    %esi
    10c3:	83 ee 01             	sub    $0x1,%esi
    10c6:	b8 07 00 00 00       	mov    $0x7,%eax
    10cb:	8b 4d f0             	mov    -0x10(%ebp),%ecx
    10ce:	cd 90                	int    $0x90
    10d0:	83 c4 04             	add    $0x4,%esp
    10d3:	5b                   	pop    %ebx
    10d4:	5e                   	pop    %esi
    10d5:	5f                   	pop    %edi
    10d6:	5d                   	pop    %ebp
    10d7:	c3                   	ret    

000010d8 <Wait>:
    10d8:	55                   	push   %ebp
    10d9:	89 e5                	mov    %esp,%ebp
    10db:	53                   	push   %ebx
    10dc:	b8 08 00 00 00       	mov    $0x8,%eax
    10e1:	8b 5d 08             	mov    0x8(%ebp),%ebx
    10e4:	cd 90                	int    $0x90
    10e6:	5b                   	pop    %ebx
    10e7:	5d                   	pop    %ebp
    10e8:	c3                   	ret    

000010e9 <Get_PID>:
    10e9:	55                   	push   %ebp
    10ea:	89 e5                	mov    %esp,%ebp
    10ec:	b8 09 00 00 00       	mov    $0x9,%eax
    10f1:	cd 90                	int    $0x90
    10f3:	5d                   	pop    %ebp
    10f4:	c3                   	ret    

000010f5 <Spawn_With_Path>:
    10f5:	55                   	push   %ebp
    10f6:	89 e5                	mov    %esp,%ebp
    10f8:	53                   	push   %ebx
    10f9:	83 ec 14             	sub    $0x14,%esp
    10fc:	8b 45 0c             	mov    0xc(%ebp),%eax
    10ff:	89 44 24 04          	mov    %eax,0x4(%esp)
    1103:	8b 45 08             	mov    0x8(%ebp),%eax
    1106:	89 04 24             	mov    %eax,(%esp)
    1109:	e8 84 ff ff ff       	call   1092 <Spawn_Program>
    110e:	89 c3                	mov    %eax,%ebx
    1110:	89 44 24 04          	mov    %eax,0x4(%esp)
    1114:	c7 04 24 ba 1f 00 00 	movl   $0x1fba,(%esp)
    111b:	e8 47 02 00 00       	call   1367 <Print>
    1120:	89 d8                	mov    %ebx,%eax
    1122:	83 c4 14             	add    $0x14,%esp
    1125:	5b                   	pop    %ebx
    1126:	5d                   	pop    %ebp
    1127:	c3                   	ret    

00001128 <Print_Finish>:
    1128:	55                   	push   %ebp
    1129:	89 e5                	mov    %esp,%ebp
    112b:	5d                   	pop    %ebp
    112c:	c3                   	ret    

0000112d <Print_String>:
    112d:	55                   	push   %ebp
    112e:	89 e5                	mov    %esp,%ebp
    1130:	57                   	push   %edi
    1131:	53                   	push   %ebx
    1132:	8b 5d 08             	mov    0x8(%ebp),%ebx
    1135:	89 df                	mov    %ebx,%edi
    1137:	b8 00 00 00 00       	mov    $0x0,%eax
    113c:	b9 ff ff ff ff       	mov    $0xffffffff,%ecx
    1141:	f2 ae                	repnz scas %es:(%edi),%al
    1143:	f7 d1                	not    %ecx
    1145:	83 e9 01             	sub    $0x1,%ecx
    1148:	b8 02 00 00 00       	mov    $0x2,%eax
    114d:	cd 90                	int    $0x90
    114f:	5b                   	pop    %ebx
    1150:	5f                   	pop    %edi
    1151:	5d                   	pop    %ebp
    1152:	c3                   	ret    

00001153 <Get_Key>:
    1153:	55                   	push   %ebp
    1154:	89 e5                	mov    %esp,%ebp
    1156:	b8 03 00 00 00       	mov    $0x3,%eax
    115b:	cd 90                	int    $0x90
    115d:	5d                   	pop    %ebp
    115e:	c3                   	ret    

0000115f <Set_Attr>:
    115f:	55                   	push   %ebp
    1160:	89 e5                	mov    %esp,%ebp
    1162:	53                   	push   %ebx
    1163:	b8 04 00 00 00       	mov    $0x4,%eax
    1168:	8b 5d 08             	mov    0x8(%ebp),%ebx
    116b:	cd 90                	int    $0x90
    116d:	5b                   	pop    %ebx
    116e:	5d                   	pop    %ebp
    116f:	c3                   	ret    

00001170 <Get_Cursor>:
    1170:	55                   	push   %ebp
    1171:	89 e5                	mov    %esp,%ebp
    1173:	53                   	push   %ebx
    1174:	b8 05 00 00 00       	mov    $0x5,%eax
    1179:	8b 4d 0c             	mov    0xc(%ebp),%ecx
    117c:	8b 5d 08             	mov    0x8(%ebp),%ebx
    117f:	cd 90                	int    $0x90
    1181:	5b                   	pop    %ebx
    1182:	5d                   	pop    %ebp
    1183:	c3                   	ret    

00001184 <Put_Cursor>:
    1184:	55                   	push   %ebp
    1185:	89 e5                	mov    %esp,%ebp
    1187:	53                   	push   %ebx
    1188:	83 ec 54             	sub    $0x54,%esp
    118b:	8b 45 0c             	mov    0xc(%ebp),%eax
    118e:	83 c0 01             	add    $0x1,%eax
    1191:	89 44 24 10          	mov    %eax,0x10(%esp)
    1195:	8b 45 08             	mov    0x8(%ebp),%eax
    1198:	83 c0 01             	add    $0x1,%eax
    119b:	89 44 24 0c          	mov    %eax,0xc(%esp)
    119f:	c7 44 24 08 c4 1f 00 	movl   $0x1fc4,0x8(%esp)
    11a6:	00 
    11a7:	c7 44 24 04 28 00 00 	movl   $0x28,0x4(%esp)
    11ae:	00 
    11af:	8d 5d d0             	lea    -0x30(%ebp),%ebx
    11b2:	89 1c 24             	mov    %ebx,(%esp)
    11b5:	e8 81 0d 00 00       	call   1f3b <snprintf>
    11ba:	89 1c 24             	mov    %ebx,(%esp)
    11bd:	e8 6b ff ff ff       	call   112d <Print_String>
    11c2:	b8 00 00 00 00       	mov    $0x0,%eax
    11c7:	83 c4 54             	add    $0x54,%esp
    11ca:	5b                   	pop    %ebx
    11cb:	5d                   	pop    %ebp
    11cc:	c3                   	ret    

000011cd <Put_Char>:
    11cd:	55                   	push   %ebp
    11ce:	89 e5                	mov    %esp,%ebp
    11d0:	83 ec 14             	sub    $0x14,%esp
    11d3:	8b 45 08             	mov    0x8(%ebp),%eax
    11d6:	88 45 fe             	mov    %al,-0x2(%ebp)
    11d9:	c6 45 ff 00          	movb   $0x0,-0x1(%ebp)
    11dd:	8d 45 fe             	lea    -0x2(%ebp),%eax
    11e0:	89 04 24             	mov    %eax,(%esp)
    11e3:	e8 45 ff ff ff       	call   112d <Print_String>
    11e8:	c9                   	leave  
    11e9:	c3                   	ret    

000011ea <Print_Emit>:
    11ea:	55                   	push   %ebp
    11eb:	89 e5                	mov    %esp,%ebp
    11ed:	83 ec 04             	sub    $0x4,%esp
    11f0:	8b 45 0c             	mov    0xc(%ebp),%eax
    11f3:	89 04 24             	mov    %eax,(%esp)
    11f6:	e8 d2 ff ff ff       	call   11cd <Put_Char>
    11fb:	c9                   	leave  
    11fc:	c3                   	ret    

000011fd <Echo>:
    11fd:	55                   	push   %ebp
    11fe:	89 e5                	mov    %esp,%ebp
    1200:	8b 45 08             	mov    0x8(%ebp),%eax
    1203:	a2 48 39 00 00       	mov    %al,0x3948
    1208:	5d                   	pop    %ebp
    1209:	c3                   	ret    

0000120a <Read_Line>:
    120a:	55                   	push   %ebp
    120b:	89 e5                	mov    %esp,%ebp
    120d:	57                   	push   %edi
    120e:	56                   	push   %esi
    120f:	53                   	push   %ebx
    1210:	83 ec 3c             	sub    $0x3c,%esp
    1213:	c7 45 e4 00 00 00 00 	movl   $0x0,-0x1c(%ebp)
    121a:	c7 45 e0 00 00 00 00 	movl   $0x0,-0x20(%ebp)
    1221:	8d 5d e4             	lea    -0x1c(%ebp),%ebx
    1224:	8d 4d e0             	lea    -0x20(%ebp),%ecx
    1227:	b8 05 00 00 00       	mov    $0x5,%eax
    122c:	cd 90                	int    $0x90
    122e:	8b 45 0c             	mov    0xc(%ebp),%eax
    1231:	83 e8 01             	sub    $0x1,%eax
    1234:	89 45 d4             	mov    %eax,-0x2c(%ebp)
    1237:	8b 75 08             	mov    0x8(%ebp),%esi
    123a:	bf 00 00 00 00       	mov    $0x0,%edi
    123f:	b8 03 00 00 00       	mov    $0x3,%eax
    1244:	cd 90                	int    $0x90
    1246:	f6 c4 01             	test   $0x1,%ah
    1249:	75 f4                	jne    123f <Read_Line+0x35>
    124b:	66 85 c0             	test   %ax,%ax
    124e:	78 ef                	js     123f <Read_Line+0x35>
    1250:	0f b6 d8             	movzbl %al,%ebx
    1253:	66 83 fb 0d          	cmp    $0xd,%bx
    1257:	0f 84 a6 00 00 00    	je     1303 <Read_Line+0xf9>
    125d:	66 83 fb 08          	cmp    $0x8,%bx
    1261:	0f 85 a1 00 00 00    	jne    1308 <Read_Line+0xfe>
    1267:	85 ff                	test   %edi,%edi
    1269:	74 d4                	je     123f <Read_Line+0x35>
    126b:	0f b6 46 ff          	movzbl -0x1(%esi),%eax
    126f:	88 45 d3             	mov    %al,-0x2d(%ebp)
    1272:	8b 5d e0             	mov    -0x20(%ebp),%ebx
    1275:	83 ee 01             	sub    $0x1,%esi
    1278:	83 ef 01             	sub    $0x1,%edi
    127b:	80 3d 48 39 00 00 00 	cmpb   $0x0,0x3948
    1282:	74 bb                	je     123f <Read_Line+0x35>
    1284:	85 ff                	test   %edi,%edi
    1286:	74 3b                	je     12c3 <Read_Line+0xb9>
    1288:	b8 00 00 00 00       	mov    $0x0,%eax
    128d:	89 75 cc             	mov    %esi,-0x34(%ebp)
    1290:	8b 55 08             	mov    0x8(%ebp),%edx
    1293:	80 3c 02 09          	cmpb   $0x9,(%edx,%eax,1)
    1297:	75 1d                	jne    12b6 <Read_Line+0xac>
    1299:	89 da                	mov    %ebx,%edx
    129b:	c1 fa 1f             	sar    $0x1f,%edx
    129e:	c1 ea 1d             	shr    $0x1d,%edx
    12a1:	8d 0c 13             	lea    (%ebx,%edx,1),%ecx
    12a4:	83 e1 07             	and    $0x7,%ecx
    12a7:	be 08 00 00 00       	mov    $0x8,%esi
    12ac:	29 d1                	sub    %edx,%ecx
    12ae:	74 02                	je     12b2 <Read_Line+0xa8>
    12b0:	29 ce                	sub    %ecx,%esi
    12b2:	01 f3                	add    %esi,%ebx
    12b4:	eb 03                	jmp    12b9 <Read_Line+0xaf>
    12b6:	83 c3 01             	add    $0x1,%ebx
    12b9:	83 c0 01             	add    $0x1,%eax
    12bc:	39 c7                	cmp    %eax,%edi
    12be:	75 d0                	jne    1290 <Read_Line+0x86>
    12c0:	8b 75 cc             	mov    -0x34(%ebp),%esi
    12c3:	0f b6 45 d3          	movzbl -0x2d(%ebp),%eax
    12c7:	3c 09                	cmp    $0x9,%al
    12c9:	b9 20 00 00 00       	mov    $0x20,%ecx
    12ce:	0f 45 c1             	cmovne %ecx,%eax
    12d1:	88 45 d3             	mov    %al,-0x2d(%ebp)
    12d4:	89 5c 24 04          	mov    %ebx,0x4(%esp)
    12d8:	8b 45 e4             	mov    -0x1c(%ebp),%eax
    12db:	89 04 24             	mov    %eax,(%esp)
    12de:	e8 a1 fe ff ff       	call   1184 <Put_Cursor>
    12e3:	0f be 45 d3          	movsbl -0x2d(%ebp),%eax
    12e7:	89 04 24             	mov    %eax,(%esp)
    12ea:	e8 de fe ff ff       	call   11cd <Put_Char>
    12ef:	89 5c 24 04          	mov    %ebx,0x4(%esp)
    12f3:	8b 45 e4             	mov    -0x1c(%ebp),%eax
    12f6:	89 04 24             	mov    %eax,(%esp)
    12f9:	e8 86 fe ff ff       	call   1184 <Put_Cursor>
    12fe:	e9 3c ff ff ff       	jmp    123f <Read_Line+0x35>
    1303:	bb 0a 00 00 00       	mov    $0xa,%ebx
    1308:	80 3d 48 39 00 00 00 	cmpb   $0x0,0x3948
    130f:	74 0b                	je     131c <Read_Line+0x112>
    1311:	0f b7 c3             	movzwl %bx,%eax
    1314:	89 04 24             	mov    %eax,(%esp)
    1317:	e8 b1 fe ff ff       	call   11cd <Put_Char>
    131c:	3b 7d d4             	cmp    -0x2c(%ebp),%edi
    131f:	73 08                	jae    1329 <Read_Line+0x11f>
    1321:	88 1e                	mov    %bl,(%esi)
    1323:	83 c7 01             	add    $0x1,%edi
    1326:	8d 76 01             	lea    0x1(%esi),%esi
    1329:	66 83 fb 0a          	cmp    $0xa,%bx
    132d:	0f 85 0c ff ff ff    	jne    123f <Read_Line+0x35>
    1333:	c6 06 00             	movb   $0x0,(%esi)
    1336:	83 c4 3c             	add    $0x3c,%esp
    1339:	5b                   	pop    %ebx
    133a:	5e                   	pop    %esi
    133b:	5f                   	pop    %edi
    133c:	5d                   	pop    %ebp
    133d:	c3                   	ret    

0000133e <Get_Error_String>:
    133e:	55                   	push   %ebp
    133f:	89 e5                	mov    %esp,%ebp
    1341:	8b 55 08             	mov    0x8(%ebp),%edx
    1344:	f7 da                	neg    %edx
    1346:	85 d2                	test   %edx,%edx
    1348:	78 16                	js     1360 <Get_Error_String+0x22>
    134a:	b8 cd 1f 00 00       	mov    $0x1fcd,%eax
    134f:	3b 15 dc 1f 00 00    	cmp    0x1fdc,%edx
    1355:	7d 0e                	jge    1365 <Get_Error_String+0x27>
    1357:	8b 04 95 60 39 00 00 	mov    0x3960(,%edx,4),%eax
    135e:	eb 05                	jmp    1365 <Get_Error_String+0x27>
    1360:	b8 cd 1f 00 00       	mov    $0x1fcd,%eax
    1365:	5d                   	pop    %ebp
    1366:	c3                   	ret    

00001367 <Print>:
    1367:	55                   	push   %ebp
    1368:	89 e5                	mov    %esp,%ebp
    136a:	83 ec 18             	sub    $0x18,%esp
    136d:	8d 45 0c             	lea    0xc(%ebp),%eax
    1370:	89 44 24 08          	mov    %eax,0x8(%esp)
    1374:	8b 45 08             	mov    0x8(%ebp),%eax
    1377:	89 44 24 04          	mov    %eax,0x4(%esp)
    137b:	c7 04 24 40 39 00 00 	movl   $0x3940,(%esp)
    1382:	e8 09 00 00 00       	call   1390 <Format_Output>
    1387:	c9                   	leave  
    1388:	c3                   	ret    
    1389:	66 90                	xchg   %ax,%ax
    138b:	66 90                	xchg   %ax,%ax
    138d:	66 90                	xchg   %ax,%ax
    138f:	90                   	nop

00001390 <Format_Output>:
    1390:	55                   	push   %ebp
    1391:	89 e5                	mov    %esp,%ebp
    1393:	57                   	push   %edi
    1394:	56                   	push   %esi
    1395:	53                   	push   %ebx
    1396:	81 ec 8c 00 00 00    	sub    $0x8c,%esp
    139c:	8b 55 0c             	mov    0xc(%ebp),%edx
    139f:	8b 5d 10             	mov    0x10(%ebp),%ebx
    13a2:	be 00 00 00 00       	mov    $0x0,%esi
    13a7:	c7 45 b4 00 00 00 00 	movl   $0x0,-0x4c(%ebp)
    13ae:	c7 45 a4 ff ff ff ff 	movl   $0xffffffff,-0x5c(%ebp)
    13b5:	c7 45 a8 00 00 00 00 	movl   $0x0,-0x58(%ebp)
    13bc:	c7 45 ac 00 00 00 00 	movl   $0x0,-0x54(%ebp)
    13c3:	c7 45 a0 00 00 00 00 	movl   $0x0,-0x60(%ebp)
    13ca:	89 f7                	mov    %esi,%edi
    13cc:	8b 75 08             	mov    0x8(%ebp),%esi
    13cf:	e9 f3 06 00 00       	jmp    1ac7 <Format_Output+0x737>
    13d4:	83 ff 04             	cmp    $0x4,%edi
    13d7:	0f 87 e7 06 00 00    	ja     1ac4 <Format_Output+0x734>
    13dd:	ff 24 bd 68 21 00 00 	jmp    *0x2168(,%edi,4)
    13e4:	3c 25                	cmp    $0x25,%al
    13e6:	0f 84 88 06 00 00    	je     1a74 <Format_Output+0x6e4>
    13ec:	0f be c0             	movsbl %al,%eax
    13ef:	89 44 24 04          	mov    %eax,0x4(%esp)
    13f3:	89 34 24             	mov    %esi,(%esp)
    13f6:	ff 16                	call   *(%esi)
    13f8:	e9 c7 06 00 00       	jmp    1ac4 <Format_Output+0x734>
    13fd:	83 e8 20             	sub    $0x20,%eax
    1400:	3c 10                	cmp    $0x10,%al
    1402:	0f 87 8f 06 00 00    	ja     1a97 <Format_Output+0x707>
    1408:	0f b6 c0             	movzbl %al,%eax
    140b:	ff 24 85 7c 21 00 00 	jmp    *0x217c(,%eax,4)
    1412:	83 4d b4 02          	orl    $0x2,-0x4c(%ebp)
    1416:	e9 a9 06 00 00       	jmp    1ac4 <Format_Output+0x734>
    141b:	83 4d b4 04          	orl    $0x4,-0x4c(%ebp)
    141f:	e9 a0 06 00 00       	jmp    1ac4 <Format_Output+0x734>
    1424:	83 4d b4 08          	orl    $0x8,-0x4c(%ebp)
    1428:	e9 97 06 00 00       	jmp    1ac4 <Format_Output+0x734>
    142d:	83 4d b4 10          	orl    $0x10,-0x4c(%ebp)
    1431:	e9 8e 06 00 00       	jmp    1ac4 <Format_Output+0x734>
    1436:	83 4d b4 20          	orl    $0x20,-0x4c(%ebp)
    143a:	e9 85 06 00 00       	jmp    1ac4 <Format_Output+0x734>
    143f:	83 4d b4 01          	orl    $0x1,-0x4c(%ebp)
    1443:	e9 7c 06 00 00       	jmp    1ac4 <Format_Output+0x734>
    1448:	8d 48 d0             	lea    -0x30(%eax),%ecx
    144b:	80 f9 09             	cmp    $0x9,%cl
    144e:	77 15                	ja     1465 <Format_Output+0xd5>
    1450:	8b 4d a8             	mov    -0x58(%ebp),%ecx
    1453:	8d 14 89             	lea    (%ecx,%ecx,4),%edx
    1456:	0f be c0             	movsbl %al,%eax
    1459:	8d 44 50 d0          	lea    -0x30(%eax,%edx,2),%eax
    145d:	89 45 a8             	mov    %eax,-0x58(%ebp)
    1460:	e9 5f 06 00 00       	jmp    1ac4 <Format_Output+0x734>
    1465:	3c 2a                	cmp    $0x2a,%al
    1467:	75 1e                	jne    1487 <Format_Output+0xf7>
    1469:	8d 43 04             	lea    0x4(%ebx),%eax
    146c:	8b 0b                	mov    (%ebx),%ecx
    146e:	89 4d a8             	mov    %ecx,-0x58(%ebp)
    1471:	89 c3                	mov    %eax,%ebx
    1473:	85 c9                	test   %ecx,%ecx
    1475:	0f 89 49 06 00 00    	jns    1ac4 <Format_Output+0x734>
    147b:	f7 5d a8             	negl   -0x58(%ebp)
    147e:	83 4d b4 02          	orl    $0x2,-0x4c(%ebp)
    1482:	e9 3d 06 00 00       	jmp    1ac4 <Format_Output+0x734>
    1487:	3c 2e                	cmp    $0x2e,%al
    1489:	0f 95 c1             	setne  %cl
    148c:	0f b6 c9             	movzbl %cl,%ecx
    148f:	89 cf                	mov    %ecx,%edi
    1491:	83 c7 03             	add    $0x3,%edi
    1494:	3c 2e                	cmp    $0x2e,%al
    1496:	b9 00 00 00 00       	mov    $0x0,%ecx
    149b:	0f 45 4d a4          	cmovne -0x5c(%ebp),%ecx
    149f:	89 4d a4             	mov    %ecx,-0x5c(%ebp)
    14a2:	0f 44 55 b0          	cmove  -0x50(%ebp),%edx
    14a6:	89 55 b0             	mov    %edx,-0x50(%ebp)
    14a9:	e9 16 06 00 00       	jmp    1ac4 <Format_Output+0x734>
    14ae:	8d 48 d0             	lea    -0x30(%eax),%ecx
    14b1:	80 f9 09             	cmp    $0x9,%cl
    14b4:	77 15                	ja     14cb <Format_Output+0x13b>
    14b6:	8b 4d a4             	mov    -0x5c(%ebp),%ecx
    14b9:	8d 14 89             	lea    (%ecx,%ecx,4),%edx
    14bc:	0f be c0             	movsbl %al,%eax
    14bf:	8d 44 50 d0          	lea    -0x30(%eax,%edx,2),%eax
    14c3:	89 45 a4             	mov    %eax,-0x5c(%ebp)
    14c6:	e9 f9 05 00 00       	jmp    1ac4 <Format_Output+0x734>
    14cb:	3c 2a                	cmp    $0x2a,%al
    14cd:	0f 85 ce 05 00 00    	jne    1aa1 <Format_Output+0x711>
    14d3:	8d 43 04             	lea    0x4(%ebx),%eax
    14d6:	8b 0b                	mov    (%ebx),%ecx
    14d8:	89 4d a4             	mov    %ecx,-0x5c(%ebp)
    14db:	89 c3                	mov    %eax,%ebx
    14dd:	85 c9                	test   %ecx,%ecx
    14df:	0f 89 df 05 00 00    	jns    1ac4 <Format_Output+0x734>
    14e5:	e9 c1 05 00 00       	jmp    1aab <Format_Output+0x71b>
    14ea:	8d 50 b4             	lea    -0x4c(%eax),%edx
    14ed:	80 fa 2e             	cmp    $0x2e,%dl
    14f0:	77 25                	ja     1517 <Format_Output+0x187>
    14f2:	0f b6 d2             	movzbl %dl,%edx
    14f5:	ff 24 95 c0 21 00 00 	jmp    *0x21c0(,%edx,4)
    14fc:	83 6d ac 01          	subl   $0x1,-0x54(%ebp)
    1500:	e9 bf 05 00 00       	jmp    1ac4 <Format_Output+0x734>
    1505:	83 45 ac 01          	addl   $0x1,-0x54(%ebp)
    1509:	e9 b6 05 00 00       	jmp    1ac4 <Format_Output+0x734>
    150e:	83 45 ac 02          	addl   $0x2,-0x54(%ebp)
    1512:	e9 ad 05 00 00       	jmp    1ac4 <Format_Output+0x734>
    1517:	8b 4d ac             	mov    -0x54(%ebp),%ecx
    151a:	85 c9                	test   %ecx,%ecx
    151c:	ba 01 00 00 00       	mov    $0x1,%edx
    1521:	0f 4e d1             	cmovle %ecx,%edx
    1524:	83 fa fe             	cmp    $0xfffffffe,%edx
    1527:	b9 fe ff ff ff       	mov    $0xfffffffe,%ecx
    152c:	0f 4d ca             	cmovge %edx,%ecx
    152f:	89 4d ac             	mov    %ecx,-0x54(%ebp)
    1532:	8d 50 b0             	lea    -0x50(%eax),%edx
    1535:	80 fa 28             	cmp    $0x28,%dl
    1538:	0f 87 23 05 00 00    	ja     1a61 <Format_Output+0x6d1>
    153e:	0f b6 d2             	movzbl %dl,%edx
    1541:	ff 24 95 7c 22 00 00 	jmp    *0x227c(,%edx,4)
    1548:	bf 08 00 00 00       	mov    $0x8,%edi
    154d:	e9 b3 00 00 00       	jmp    1605 <Format_Output+0x275>
    1552:	81 4d b4 80 00 00 00 	orl    $0x80,-0x4c(%ebp)
    1559:	83 4d b4 20          	orl    $0x20,-0x4c(%ebp)
    155d:	8b 03                	mov    (%ebx),%eax
    155f:	89 45 a0             	mov    %eax,-0x60(%ebp)
    1562:	8d 5b 04             	lea    0x4(%ebx),%ebx
    1565:	bf 10 00 00 00       	mov    $0x10,%edi
    156a:	c7 45 a4 08 00 00 00 	movl   $0x8,-0x5c(%ebp)
    1571:	e9 e2 00 00 00       	jmp    1658 <Format_Output+0x2c8>
    1576:	83 4d b4 40          	orl    $0x40,-0x4c(%ebp)
    157a:	8b 45 ac             	mov    -0x54(%ebp),%eax
    157d:	83 f8 ff             	cmp    $0xffffffff,%eax
    1580:	74 38                	je     15ba <Format_Output+0x22a>
    1582:	83 f8 ff             	cmp    $0xffffffff,%eax
    1585:	7f 0e                	jg     1595 <Format_Output+0x205>
    1587:	83 f8 fe             	cmp    $0xfffffffe,%eax
    158a:	74 1b                	je     15a7 <Format_Output+0x217>
    158c:	8d 74 26 00          	lea    0x0(%esi,%eiz,1),%esi
    1590:	e9 be 00 00 00       	jmp    1653 <Format_Output+0x2c3>
    1595:	8b 45 ac             	mov    -0x54(%ebp),%eax
    1598:	85 c0                	test   %eax,%eax
    159a:	74 31                	je     15cd <Format_Output+0x23d>
    159c:	83 f8 01             	cmp    $0x1,%eax
    159f:	90                   	nop
    15a0:	74 3a                	je     15dc <Format_Output+0x24c>
    15a2:	e9 ac 00 00 00       	jmp    1653 <Format_Output+0x2c3>
    15a7:	0f be 03             	movsbl (%ebx),%eax
    15aa:	89 45 a0             	mov    %eax,-0x60(%ebp)
    15ad:	8d 5b 04             	lea    0x4(%ebx),%ebx
    15b0:	bf 0a 00 00 00       	mov    $0xa,%edi
    15b5:	e9 9e 00 00 00       	jmp    1658 <Format_Output+0x2c8>
    15ba:	0f bf 03             	movswl (%ebx),%eax
    15bd:	89 45 a0             	mov    %eax,-0x60(%ebp)
    15c0:	8d 5b 04             	lea    0x4(%ebx),%ebx
    15c3:	bf 0a 00 00 00       	mov    $0xa,%edi
    15c8:	e9 8b 00 00 00       	jmp    1658 <Format_Output+0x2c8>
    15cd:	8b 03                	mov    (%ebx),%eax
    15cf:	89 45 a0             	mov    %eax,-0x60(%ebp)
    15d2:	8d 5b 04             	lea    0x4(%ebx),%ebx
    15d5:	bf 0a 00 00 00       	mov    $0xa,%edi
    15da:	eb 7c                	jmp    1658 <Format_Output+0x2c8>
    15dc:	8b 03                	mov    (%ebx),%eax
    15de:	89 45 a0             	mov    %eax,-0x60(%ebp)
    15e1:	8d 5b 04             	lea    0x4(%ebx),%ebx
    15e4:	bf 0a 00 00 00       	mov    $0xa,%edi
    15e9:	eb 6d                	jmp    1658 <Format_Output+0x2c8>
    15eb:	bf 0a 00 00 00       	mov    $0xa,%edi
    15f0:	eb 13                	jmp    1605 <Format_Output+0x275>
    15f2:	81 4d b4 80 00 00 00 	orl    $0x80,-0x4c(%ebp)
    15f9:	bf 10 00 00 00       	mov    $0x10,%edi
    15fe:	eb 05                	jmp    1605 <Format_Output+0x275>
    1600:	bf 10 00 00 00       	mov    $0x10,%edi
    1605:	8b 45 ac             	mov    -0x54(%ebp),%eax
    1608:	83 f8 ff             	cmp    $0xffffffff,%eax
    160b:	74 27                	je     1634 <Format_Output+0x2a4>
    160d:	83 f8 ff             	cmp    $0xffffffff,%eax
    1610:	7f 07                	jg     1619 <Format_Output+0x289>
    1612:	83 f8 fe             	cmp    $0xfffffffe,%eax
    1615:	74 12                	je     1629 <Format_Output+0x299>
    1617:	eb 3f                	jmp    1658 <Format_Output+0x2c8>
    1619:	8b 45 ac             	mov    -0x54(%ebp),%eax
    161c:	85 c0                	test   %eax,%eax
    161e:	66 90                	xchg   %ax,%ax
    1620:	74 1d                	je     163f <Format_Output+0x2af>
    1622:	83 f8 01             	cmp    $0x1,%eax
    1625:	74 22                	je     1649 <Format_Output+0x2b9>
    1627:	eb 2f                	jmp    1658 <Format_Output+0x2c8>
    1629:	0f b6 03             	movzbl (%ebx),%eax
    162c:	89 45 a0             	mov    %eax,-0x60(%ebp)
    162f:	8d 5b 04             	lea    0x4(%ebx),%ebx
    1632:	eb 24                	jmp    1658 <Format_Output+0x2c8>
    1634:	0f b7 03             	movzwl (%ebx),%eax
    1637:	89 45 a0             	mov    %eax,-0x60(%ebp)
    163a:	8d 5b 04             	lea    0x4(%ebx),%ebx
    163d:	eb 19                	jmp    1658 <Format_Output+0x2c8>
    163f:	8b 03                	mov    (%ebx),%eax
    1641:	89 45 a0             	mov    %eax,-0x60(%ebp)
    1644:	8d 5b 04             	lea    0x4(%ebx),%ebx
    1647:	eb 0f                	jmp    1658 <Format_Output+0x2c8>
    1649:	8b 03                	mov    (%ebx),%eax
    164b:	89 45 a0             	mov    %eax,-0x60(%ebp)
    164e:	8d 5b 04             	lea    0x4(%ebx),%ebx
    1651:	eb 05                	jmp    1658 <Format_Output+0x2c8>
    1653:	bf 0a 00 00 00       	mov    $0xa,%edi
    1658:	8b 4d b4             	mov    -0x4c(%ebp),%ecx
    165b:	89 c8                	mov    %ecx,%eax
    165d:	25 80 00 00 00       	and    $0x80,%eax
    1662:	89 45 80             	mov    %eax,-0x80(%ebp)
    1665:	b8 31 23 00 00       	mov    $0x2331,%eax
    166a:	ba 20 23 00 00       	mov    $0x2320,%edx
    166f:	0f 44 c2             	cmove  %edx,%eax
    1672:	89 85 78 ff ff ff    	mov    %eax,-0x88(%ebp)
    1678:	f6 c1 40             	test   $0x40,%cl
    167b:	74 1f                	je     169c <Format_Output+0x30c>
    167d:	8b 45 a0             	mov    -0x60(%ebp),%eax
    1680:	89 45 8c             	mov    %eax,-0x74(%ebp)
    1683:	c7 45 88 00 00 00 00 	movl   $0x0,-0x78(%ebp)
    168a:	85 c0                	test   %eax,%eax
    168c:	79 1b                	jns    16a9 <Format_Output+0x319>
    168e:	f7 d8                	neg    %eax
    1690:	89 45 8c             	mov    %eax,-0x74(%ebp)
    1693:	c7 45 88 01 00 00 00 	movl   $0x1,-0x78(%ebp)
    169a:	eb 0d                	jmp    16a9 <Format_Output+0x319>
    169c:	8b 45 a0             	mov    -0x60(%ebp),%eax
    169f:	89 45 8c             	mov    %eax,-0x74(%ebp)
    16a2:	c7 45 88 00 00 00 00 	movl   $0x0,-0x78(%ebp)
    16a9:	8b 55 8c             	mov    -0x74(%ebp),%edx
    16ac:	85 d2                	test   %edx,%edx
    16ae:	74 19                	je     16c9 <Format_Output+0x339>
    16b0:	b9 00 00 00 00       	mov    $0x0,%ecx
    16b5:	89 d0                	mov    %edx,%eax
    16b7:	ba 00 00 00 00       	mov    $0x0,%edx
    16bc:	f7 f7                	div    %edi
    16be:	89 c2                	mov    %eax,%edx
    16c0:	83 c1 01             	add    $0x1,%ecx
    16c3:	85 c0                	test   %eax,%eax
    16c5:	75 ee                	jne    16b5 <Format_Output+0x325>
    16c7:	eb 05                	jmp    16ce <Format_Output+0x33e>
    16c9:	b9 00 00 00 00       	mov    $0x0,%ecx
    16ce:	8b 45 a4             	mov    -0x5c(%ebp),%eax
    16d1:	89 c2                	mov    %eax,%edx
    16d3:	8b 45 b4             	mov    -0x4c(%ebp),%eax
    16d6:	83 e0 20             	and    $0x20,%eax
    16d9:	89 45 84             	mov    %eax,-0x7c(%ebp)
    16dc:	74 0f                	je     16ed <Format_Output+0x35d>
    16de:	83 ff 08             	cmp    $0x8,%edi
    16e1:	75 0a                	jne    16ed <Format_Output+0x35d>
    16e3:	8d 41 01             	lea    0x1(%ecx),%eax
    16e6:	39 d0                	cmp    %edx,%eax
    16e8:	0f 4c c2             	cmovl  %edx,%eax
    16eb:	89 c2                	mov    %eax,%edx
    16ed:	39 ca                	cmp    %ecx,%edx
    16ef:	7f 0e                	jg     16ff <Format_Output+0x36f>
    16f1:	83 7d 8c 00          	cmpl   $0x0,-0x74(%ebp)
    16f5:	b8 01 00 00 00       	mov    $0x1,%eax
    16fa:	0f 44 c8             	cmove  %eax,%ecx
    16fd:	89 ca                	mov    %ecx,%edx
    16ff:	89 55 90             	mov    %edx,-0x70(%ebp)
    1702:	f6 45 b4 08          	testb  $0x8,-0x4c(%ebp)
    1706:	74 10                	je     1718 <Format_Output+0x388>
    1708:	83 ff 10             	cmp    $0x10,%edi
    170b:	0f 94 c0             	sete   %al
    170e:	0f b6 c0             	movzbl %al,%eax
    1711:	89 45 90             	mov    %eax,-0x70(%ebp)
    1714:	83 45 90 03          	addl   $0x3,-0x70(%ebp)
    1718:	89 d1                	mov    %edx,%ecx
    171a:	89 d0                	mov    %edx,%eax
    171c:	83 e8 01             	sub    $0x1,%eax
    171f:	99                   	cltd   
    1720:	f7 7d 90             	idivl  -0x70(%ebp)
    1723:	01 c8                	add    %ecx,%eax
    1725:	89 45 98             	mov    %eax,-0x68(%ebp)
    1728:	83 7d 88 00          	cmpl   $0x0,-0x78(%ebp)
    172c:	75 09                	jne    1737 <Format_Output+0x3a7>
    172e:	89 45 9c             	mov    %eax,-0x64(%ebp)
    1731:	f6 45 b4 14          	testb  $0x14,-0x4c(%ebp)
    1735:	74 09                	je     1740 <Format_Output+0x3b0>
    1737:	8b 45 98             	mov    -0x68(%ebp),%eax
    173a:	83 c0 01             	add    $0x1,%eax
    173d:	89 45 9c             	mov    %eax,-0x64(%ebp)
    1740:	83 7d 84 00          	cmpl   $0x0,-0x7c(%ebp)
    1744:	74 11                	je     1757 <Format_Output+0x3c7>
    1746:	8b 4d 9c             	mov    -0x64(%ebp),%ecx
    1749:	89 c8                	mov    %ecx,%eax
    174b:	83 c0 02             	add    $0x2,%eax
    174e:	83 ff 10             	cmp    $0x10,%edi
    1751:	0f 45 c1             	cmovne %ecx,%eax
    1754:	89 45 9c             	mov    %eax,-0x64(%ebp)
    1757:	8b 45 a8             	mov    -0x58(%ebp),%eax
    175a:	89 45 94             	mov    %eax,-0x6c(%ebp)
    175d:	8b 45 b4             	mov    -0x4c(%ebp),%eax
    1760:	83 e0 03             	and    $0x3,%eax
    1763:	89 85 7c ff ff ff    	mov    %eax,-0x84(%ebp)
    1769:	75 27                	jne    1792 <Format_Output+0x402>
    176b:	8b 45 a8             	mov    -0x58(%ebp),%eax
    176e:	3b 45 9c             	cmp    -0x64(%ebp),%eax
    1771:	7e 1f                	jle    1792 <Format_Output+0x402>
    1773:	c7 44 24 04 20 00 00 	movl   $0x20,0x4(%esp)
    177a:	00 
    177b:	89 34 24             	mov    %esi,(%esp)
    177e:	ff 16                	call   *(%esi)
    1780:	83 6d 94 01          	subl   $0x1,-0x6c(%ebp)
    1784:	8b 45 94             	mov    -0x6c(%ebp),%eax
    1787:	39 45 9c             	cmp    %eax,-0x64(%ebp)
    178a:	7c e7                	jl     1773 <Format_Output+0x3e3>
    178c:	8b 45 9c             	mov    -0x64(%ebp),%eax
    178f:	89 45 94             	mov    %eax,-0x6c(%ebp)
    1792:	83 7d 88 00          	cmpl   $0x0,-0x78(%ebp)
    1796:	74 0f                	je     17a7 <Format_Output+0x417>
    1798:	c7 44 24 04 2d 00 00 	movl   $0x2d,0x4(%esp)
    179f:	00 
    17a0:	89 34 24             	mov    %esi,(%esp)
    17a3:	ff 16                	call   *(%esi)
    17a5:	eb 28                	jmp    17cf <Format_Output+0x43f>
    17a7:	f6 45 b4 04          	testb  $0x4,-0x4c(%ebp)
    17ab:	74 0f                	je     17bc <Format_Output+0x42c>
    17ad:	c7 44 24 04 2b 00 00 	movl   $0x2b,0x4(%esp)
    17b4:	00 
    17b5:	89 34 24             	mov    %esi,(%esp)
    17b8:	ff 16                	call   *(%esi)
    17ba:	eb 13                	jmp    17cf <Format_Output+0x43f>
    17bc:	f6 45 b4 10          	testb  $0x10,-0x4c(%ebp)
    17c0:	74 0d                	je     17cf <Format_Output+0x43f>
    17c2:	c7 44 24 04 20 00 00 	movl   $0x20,0x4(%esp)
    17c9:	00 
    17ca:	89 34 24             	mov    %esi,(%esp)
    17cd:	ff 16                	call   *(%esi)
    17cf:	83 7d 84 00          	cmpl   $0x0,-0x7c(%ebp)
    17d3:	74 29                	je     17fe <Format_Output+0x46e>
    17d5:	83 ff 10             	cmp    $0x10,%edi
    17d8:	75 24                	jne    17fe <Format_Output+0x46e>
    17da:	c7 44 24 04 30 00 00 	movl   $0x30,0x4(%esp)
    17e1:	00 
    17e2:	89 34 24             	mov    %esi,(%esp)
    17e5:	ff 16                	call   *(%esi)
    17e7:	8b 16                	mov    (%esi),%edx
    17e9:	83 7d 80 01          	cmpl   $0x1,-0x80(%ebp)
    17ed:	19 c0                	sbb    %eax,%eax
    17ef:	83 e0 20             	and    $0x20,%eax
    17f2:	83 c0 58             	add    $0x58,%eax
    17f5:	89 44 24 04          	mov    %eax,0x4(%esp)
    17f9:	89 34 24             	mov    %esi,(%esp)
    17fc:	ff d2                	call   *%edx
    17fe:	83 bd 7c ff ff ff 01 	cmpl   $0x1,-0x84(%ebp)
    1805:	75 2c                	jne    1833 <Format_Output+0x4a3>
    1807:	8b 45 94             	mov    -0x6c(%ebp),%eax
    180a:	39 45 98             	cmp    %eax,-0x68(%ebp)
    180d:	7d 24                	jge    1833 <Format_Output+0x4a3>
    180f:	39 45 9c             	cmp    %eax,-0x64(%ebp)
    1812:	7d 1f                	jge    1833 <Format_Output+0x4a3>
    1814:	c7 44 24 04 30 00 00 	movl   $0x30,0x4(%esp)
    181b:	00 
    181c:	89 34 24             	mov    %esi,(%esp)
    181f:	ff 16                	call   *(%esi)
    1821:	83 6d 94 01          	subl   $0x1,-0x6c(%ebp)
    1825:	8b 45 94             	mov    -0x6c(%ebp),%eax
    1828:	39 45 9c             	cmp    %eax,-0x64(%ebp)
    182b:	7c e7                	jl     1814 <Format_Output+0x484>
    182d:	8b 45 9c             	mov    -0x64(%ebp),%eax
    1830:	89 45 94             	mov    %eax,-0x6c(%ebp)
    1833:	83 7d 98 2b          	cmpl   $0x2b,-0x68(%ebp)
    1837:	7e 02                	jle    183b <Format_Output+0x4ab>
    1839:	eb fe                	jmp    1839 <Format_Output+0x4a9>
    183b:	8b 45 98             	mov    -0x68(%ebp),%eax
    183e:	89 45 84             	mov    %eax,-0x7c(%ebp)
    1841:	8d 4d bc             	lea    -0x44(%ebp),%ecx
    1844:	01 c1                	add    %eax,%ecx
    1846:	85 c0                	test   %eax,%eax
    1848:	7e 58                	jle    18a2 <Format_Output+0x512>
    184a:	8b 45 90             	mov    -0x70(%ebp),%eax
    184d:	89 45 88             	mov    %eax,-0x78(%ebp)
    1850:	8b 45 8c             	mov    -0x74(%ebp),%eax
    1853:	89 75 08             	mov    %esi,0x8(%ebp)
    1856:	83 7d 88 00          	cmpl   $0x0,-0x78(%ebp)
    185a:	74 08                	je     1864 <Format_Output+0x4d4>
    185c:	83 6d 88 01          	subl   $0x1,-0x78(%ebp)
    1860:	89 ce                	mov    %ecx,%esi
    1862:	eb 14                	jmp    1878 <Format_Output+0x4e8>
    1864:	8d 71 ff             	lea    -0x1(%ecx),%esi
    1867:	83 6d 98 01          	subl   $0x1,-0x68(%ebp)
    186b:	c6 41 ff 5f          	movb   $0x5f,-0x1(%ecx)
    186f:	8b 55 90             	mov    -0x70(%ebp),%edx
    1872:	8d 4a ff             	lea    -0x1(%edx),%ecx
    1875:	89 4d 88             	mov    %ecx,-0x78(%ebp)
    1878:	8d 4e ff             	lea    -0x1(%esi),%ecx
    187b:	83 6d 98 01          	subl   $0x1,-0x68(%ebp)
    187f:	ba 00 00 00 00       	mov    $0x0,%edx
    1884:	f7 f7                	div    %edi
    1886:	89 45 8c             	mov    %eax,-0x74(%ebp)
    1889:	8b 85 78 ff ff ff    	mov    -0x88(%ebp),%eax
    188f:	0f b6 14 10          	movzbl (%eax,%edx,1),%edx
    1893:	88 56 ff             	mov    %dl,-0x1(%esi)
    1896:	8b 45 8c             	mov    -0x74(%ebp),%eax
    1899:	83 7d 98 00          	cmpl   $0x0,-0x68(%ebp)
    189d:	7f b7                	jg     1856 <Format_Output+0x4c6>
    189f:	8b 75 08             	mov    0x8(%ebp),%esi
    18a2:	8b 4d 84             	mov    -0x7c(%ebp),%ecx
    18a5:	85 c9                	test   %ecx,%ecx
    18a7:	74 1e                	je     18c7 <Format_Output+0x537>
    18a9:	8d 7d bc             	lea    -0x44(%ebp),%edi
    18ac:	89 f8                	mov    %edi,%eax
    18ae:	01 c8                	add    %ecx,%eax
    18b0:	89 45 98             	mov    %eax,-0x68(%ebp)
    18b3:	0f be 07             	movsbl (%edi),%eax
    18b6:	89 44 24 04          	mov    %eax,0x4(%esp)
    18ba:	89 34 24             	mov    %esi,(%esp)
    18bd:	ff 16                	call   *(%esi)
    18bf:	83 c7 01             	add    $0x1,%edi
    18c2:	3b 7d 98             	cmp    -0x68(%ebp),%edi
    18c5:	75 ec                	jne    18b3 <Format_Output+0x523>
    18c7:	f6 45 b4 02          	testb  $0x2,-0x4c(%ebp)
    18cb:	74 19                	je     18e6 <Format_Output+0x556>
    18cd:	8b 45 94             	mov    -0x6c(%ebp),%eax
    18d0:	39 45 9c             	cmp    %eax,-0x64(%ebp)
    18d3:	0f 8c 16 02 00 00    	jl     1aef <Format_Output+0x75f>
    18d9:	eb 0b                	jmp    18e6 <Format_Output+0x556>
    18db:	3b 7d 9c             	cmp    -0x64(%ebp),%edi
    18de:	66 90                	xchg   %ax,%ax
    18e0:	0f 85 f4 01 00 00    	jne    1ada <Format_Output+0x74a>
    18e6:	bf 00 00 00 00       	mov    $0x0,%edi
    18eb:	e9 d4 01 00 00       	jmp    1ac4 <Format_Output+0x734>
    18f0:	8b 03                	mov    (%ebx),%eax
    18f2:	88 45 e7             	mov    %al,-0x19(%ebp)
    18f5:	8d 5b 04             	lea    0x4(%ebx),%ebx
    18f8:	c7 45 9c 01 00 00 00 	movl   $0x1,-0x64(%ebp)
    18ff:	8d 45 e7             	lea    -0x19(%ebp),%eax
    1902:	89 45 98             	mov    %eax,-0x68(%ebp)
    1905:	eb 2a                	jmp    1931 <Format_Output+0x5a1>
    1907:	8b 03                	mov    (%ebx),%eax
    1909:	89 c1                	mov    %eax,%ecx
    190b:	85 c0                	test   %eax,%eax
    190d:	b8 61 21 00 00       	mov    $0x2161,%eax
    1912:	0f 45 c1             	cmovne %ecx,%eax
    1915:	89 45 98             	mov    %eax,-0x68(%ebp)
    1918:	89 c7                	mov    %eax,%edi
    191a:	b8 00 00 00 00       	mov    $0x0,%eax
    191f:	b9 ff ff ff ff       	mov    $0xffffffff,%ecx
    1924:	f2 ae                	repnz scas %es:(%edi),%al
    1926:	f7 d1                	not    %ecx
    1928:	8d 41 ff             	lea    -0x1(%ecx),%eax
    192b:	89 45 9c             	mov    %eax,-0x64(%ebp)
    192e:	8d 5b 04             	lea    0x4(%ebx),%ebx
    1931:	8b 45 a4             	mov    -0x5c(%ebp),%eax
    1934:	39 45 9c             	cmp    %eax,-0x64(%ebp)
    1937:	7e 13                	jle    194c <Format_Output+0x5bc>
    1939:	89 c1                	mov    %eax,%ecx
    193b:	83 f8 ff             	cmp    $0xffffffff,%eax
    193e:	0f 95 c0             	setne  %al
    1941:	84 c0                	test   %al,%al
    1943:	8b 45 9c             	mov    -0x64(%ebp),%eax
    1946:	0f 45 c1             	cmovne %ecx,%eax
    1949:	89 45 9c             	mov    %eax,-0x64(%ebp)
    194c:	8b 45 9c             	mov    -0x64(%ebp),%eax
    194f:	39 45 a8             	cmp    %eax,-0x58(%ebp)
    1952:	7e 35                	jle    1989 <Format_Output+0x5f9>
    1954:	f6 45 b4 02          	testb  $0x2,-0x4c(%ebp)
    1958:	75 2f                	jne    1989 <Format_Output+0x5f9>
    195a:	8b 45 b4             	mov    -0x4c(%ebp),%eax
    195d:	83 e0 01             	and    $0x1,%eax
    1960:	83 f8 01             	cmp    $0x1,%eax
    1963:	19 c0                	sbb    %eax,%eax
    1965:	83 e0 f0             	and    $0xfffffff0,%eax
    1968:	83 c0 30             	add    $0x30,%eax
    196b:	0f be f8             	movsbl %al,%edi
    196e:	89 7c 24 04          	mov    %edi,0x4(%esp)
    1972:	89 34 24             	mov    %esi,(%esp)
    1975:	ff 16                	call   *(%esi)
    1977:	83 6d a8 01          	subl   $0x1,-0x58(%ebp)
    197b:	8b 45 a8             	mov    -0x58(%ebp),%eax
    197e:	39 45 9c             	cmp    %eax,-0x64(%ebp)
    1981:	7c eb                	jl     196e <Format_Output+0x5de>
    1983:	8b 45 9c             	mov    -0x64(%ebp),%eax
    1986:	89 45 a8             	mov    %eax,-0x58(%ebp)
    1989:	8b 7d 9c             	mov    -0x64(%ebp),%edi
    198c:	85 ff                	test   %edi,%edi
    198e:	74 19                	je     19a9 <Format_Output+0x619>
    1990:	83 45 98 01          	addl   $0x1,-0x68(%ebp)
    1994:	8b 45 98             	mov    -0x68(%ebp),%eax
    1997:	0f be 40 ff          	movsbl -0x1(%eax),%eax
    199b:	89 44 24 04          	mov    %eax,0x4(%esp)
    199f:	89 34 24             	mov    %esi,(%esp)
    19a2:	ff 16                	call   *(%esi)
    19a4:	83 ef 01             	sub    $0x1,%edi
    19a7:	75 e7                	jne    1990 <Format_Output+0x600>
    19a9:	bf 00 00 00 00       	mov    $0x0,%edi
    19ae:	8b 45 9c             	mov    -0x64(%ebp),%eax
    19b1:	39 45 a8             	cmp    %eax,-0x58(%ebp)
    19b4:	0f 8e 0a 01 00 00    	jle    1ac4 <Format_Output+0x734>
    19ba:	f6 45 b4 02          	testb  $0x2,-0x4c(%ebp)
    19be:	0f 84 00 01 00 00    	je     1ac4 <Format_Output+0x734>
    19c4:	8b 7d a8             	mov    -0x58(%ebp),%edi
    19c7:	c7 44 24 04 20 00 00 	movl   $0x20,0x4(%esp)
    19ce:	00 
    19cf:	89 34 24             	mov    %esi,(%esp)
    19d2:	ff 16                	call   *(%esi)
    19d4:	83 ef 01             	sub    $0x1,%edi
    19d7:	39 7d 9c             	cmp    %edi,-0x64(%ebp)
    19da:	7c eb                	jl     19c7 <Format_Output+0x637>
    19dc:	8b 45 9c             	mov    -0x64(%ebp),%eax
    19df:	89 45 a8             	mov    %eax,-0x58(%ebp)
    19e2:	bf 00 00 00 00       	mov    $0x0,%edi
    19e7:	e9 d8 00 00 00       	jmp    1ac4 <Format_Output+0x734>
    19ec:	8b 45 ac             	mov    -0x54(%ebp),%eax
    19ef:	83 f8 ff             	cmp    $0xffffffff,%eax
    19f2:	74 35                	je     1a29 <Format_Output+0x699>
    19f4:	83 f8 ff             	cmp    $0xffffffff,%eax
    19f7:	7f 0c                	jg     1a05 <Format_Output+0x675>
    19f9:	83 f8 fe             	cmp    $0xfffffffe,%eax
    19fc:	74 19                	je     1a17 <Format_Output+0x687>
    19fe:	66 90                	xchg   %ax,%ax
    1a00:	e9 ba 00 00 00       	jmp    1abf <Format_Output+0x72f>
    1a05:	8b 45 ac             	mov    -0x54(%ebp),%eax
    1a08:	85 c0                	test   %eax,%eax
    1a0a:	74 31                	je     1a3d <Format_Output+0x6ad>
    1a0c:	83 f8 01             	cmp    $0x1,%eax
    1a0f:	90                   	nop
    1a10:	74 3d                	je     1a4f <Format_Output+0x6bf>
    1a12:	e9 a8 00 00 00       	jmp    1abf <Format_Output+0x72f>
    1a17:	8b 03                	mov    (%ebx),%eax
    1a19:	c6 00 00             	movb   $0x0,(%eax)
    1a1c:	8d 5b 04             	lea    0x4(%ebx),%ebx
    1a1f:	bf 00 00 00 00       	mov    $0x0,%edi
    1a24:	e9 9b 00 00 00       	jmp    1ac4 <Format_Output+0x734>
    1a29:	8b 03                	mov    (%ebx),%eax
    1a2b:	66 c7 00 00 00       	movw   $0x0,(%eax)
    1a30:	8d 5b 04             	lea    0x4(%ebx),%ebx
    1a33:	bf 00 00 00 00       	mov    $0x0,%edi
    1a38:	e9 87 00 00 00       	jmp    1ac4 <Format_Output+0x734>
    1a3d:	8b 03                	mov    (%ebx),%eax
    1a3f:	c7 00 00 00 00 00    	movl   $0x0,(%eax)
    1a45:	8d 5b 04             	lea    0x4(%ebx),%ebx
    1a48:	bf 00 00 00 00       	mov    $0x0,%edi
    1a4d:	eb 75                	jmp    1ac4 <Format_Output+0x734>
    1a4f:	8b 03                	mov    (%ebx),%eax
    1a51:	c7 00 00 00 00 00    	movl   $0x0,(%eax)
    1a57:	8d 5b 04             	lea    0x4(%ebx),%ebx
    1a5a:	bf 00 00 00 00       	mov    $0x0,%edi
    1a5f:	eb 63                	jmp    1ac4 <Format_Output+0x734>
    1a61:	0f be c0             	movsbl %al,%eax
    1a64:	89 44 24 04          	mov    %eax,0x4(%esp)
    1a68:	89 34 24             	mov    %esi,(%esp)
    1a6b:	ff 16                	call   *(%esi)
    1a6d:	bf 00 00 00 00       	mov    $0x0,%edi
    1a72:	eb 50                	jmp    1ac4 <Format_Output+0x734>
    1a74:	bf 01 00 00 00       	mov    $0x1,%edi
    1a79:	c7 45 b4 00 00 00 00 	movl   $0x0,-0x4c(%ebp)
    1a80:	c7 45 a4 ff ff ff ff 	movl   $0xffffffff,-0x5c(%ebp)
    1a87:	c7 45 a8 00 00 00 00 	movl   $0x0,-0x58(%ebp)
    1a8e:	c7 45 ac 00 00 00 00 	movl   $0x0,-0x54(%ebp)
    1a95:	eb 2d                	jmp    1ac4 <Format_Output+0x734>
    1a97:	89 55 b0             	mov    %edx,-0x50(%ebp)
    1a9a:	bf 02 00 00 00       	mov    $0x2,%edi
    1a9f:	eb 23                	jmp    1ac4 <Format_Output+0x734>
    1aa1:	89 55 b0             	mov    %edx,-0x50(%ebp)
    1aa4:	bf 04 00 00 00       	mov    $0x4,%edi
    1aa9:	eb 19                	jmp    1ac4 <Format_Output+0x734>
    1aab:	89 c3                	mov    %eax,%ebx
    1aad:	c7 45 a4 ff ff ff ff 	movl   $0xffffffff,-0x5c(%ebp)
    1ab4:	eb 0e                	jmp    1ac4 <Format_Output+0x734>
    1ab6:	c7 45 ac 01 00 00 00 	movl   $0x1,-0x54(%ebp)
    1abd:	eb 05                	jmp    1ac4 <Format_Output+0x734>
    1abf:	bf 00 00 00 00       	mov    $0x0,%edi
    1ac4:	8b 55 b0             	mov    -0x50(%ebp),%edx
    1ac7:	8d 42 01             	lea    0x1(%edx),%eax
    1aca:	89 45 b0             	mov    %eax,-0x50(%ebp)
    1acd:	0f b6 02             	movzbl (%edx),%eax
    1ad0:	84 c0                	test   %al,%al
    1ad2:	0f 85 fc f8 ff ff    	jne    13d4 <Format_Output+0x44>
    1ad8:	eb 2d                	jmp    1b07 <Format_Output+0x777>
    1ada:	c7 44 24 04 20 00 00 	movl   $0x20,0x4(%esp)
    1ae1:	00 
    1ae2:	89 34 24             	mov    %esi,(%esp)
    1ae5:	ff 16                	call   *(%esi)
    1ae7:	83 ef 01             	sub    $0x1,%edi
    1aea:	e9 ec fd ff ff       	jmp    18db <Format_Output+0x54b>
    1aef:	c7 44 24 04 20 00 00 	movl   $0x20,0x4(%esp)
    1af6:	00 
    1af7:	89 34 24             	mov    %esi,(%esp)
    1afa:	ff 16                	call   *(%esi)
    1afc:	8b 7d 94             	mov    -0x6c(%ebp),%edi
    1aff:	83 ef 01             	sub    $0x1,%edi
    1b02:	e9 d4 fd ff ff       	jmp    18db <Format_Output+0x54b>
    1b07:	8b 45 08             	mov    0x8(%ebp),%eax
    1b0a:	89 04 24             	mov    %eax,(%esp)
    1b0d:	ff 50 04             	call   *0x4(%eax)
    1b10:	b8 00 00 00 00       	mov    $0x0,%eax
    1b15:	81 c4 8c 00 00 00    	add    $0x8c,%esp
    1b1b:	5b                   	pop    %ebx
    1b1c:	5e                   	pop    %esi
    1b1d:	5f                   	pop    %edi
    1b1e:	5d                   	pop    %ebp
    1b1f:	c3                   	ret    

00001b20 <String_Emit>:
    1b20:	55                   	push   %ebp
    1b21:	89 e5                	mov    %esp,%ebp
    1b23:	8b 45 08             	mov    0x8(%ebp),%eax
    1b26:	8b 50 10             	mov    0x10(%eax),%edx
    1b29:	39 50 0c             	cmp    %edx,0xc(%eax)
    1b2c:	73 0e                	jae    1b3c <String_Emit+0x1c>
    1b2e:	8b 50 08             	mov    0x8(%eax),%edx
    1b31:	8d 4a 01             	lea    0x1(%edx),%ecx
    1b34:	89 48 08             	mov    %ecx,0x8(%eax)
    1b37:	8b 4d 0c             	mov    0xc(%ebp),%ecx
    1b3a:	88 0a                	mov    %cl,(%edx)
    1b3c:	83 40 0c 01          	addl   $0x1,0xc(%eax)
    1b40:	5d                   	pop    %ebp
    1b41:	c3                   	ret    

00001b42 <String_Finish>:
    1b42:	55                   	push   %ebp
    1b43:	89 e5                	mov    %esp,%ebp
    1b45:	8b 45 08             	mov    0x8(%ebp),%eax
    1b48:	8b 50 10             	mov    0x10(%eax),%edx
    1b4b:	39 50 0c             	cmp    %edx,0xc(%eax)
    1b4e:	73 08                	jae    1b58 <String_Finish+0x16>
    1b50:	8b 40 08             	mov    0x8(%eax),%eax
    1b53:	c6 00 00             	movb   $0x0,(%eax)
    1b56:	eb 07                	jmp    1b5f <String_Finish+0x1d>
    1b58:	8b 40 08             	mov    0x8(%eax),%eax
    1b5b:	c6 40 ff 00          	movb   $0x0,-0x1(%eax)
    1b5f:	5d                   	pop    %ebp
    1b60:	c3                   	ret    

00001b61 <memset>:
    1b61:	55                   	push   %ebp
    1b62:	89 e5                	mov    %esp,%ebp
    1b64:	53                   	push   %ebx
    1b65:	8b 45 08             	mov    0x8(%ebp),%eax
    1b68:	8b 4d 0c             	mov    0xc(%ebp),%ecx
    1b6b:	8b 5d 10             	mov    0x10(%ebp),%ebx
    1b6e:	85 db                	test   %ebx,%ebx
    1b70:	74 0e                	je     1b80 <memset+0x1f>
    1b72:	01 c3                	add    %eax,%ebx
    1b74:	89 c2                	mov    %eax,%edx
    1b76:	83 c2 01             	add    $0x1,%edx
    1b79:	88 4a ff             	mov    %cl,-0x1(%edx)
    1b7c:	39 da                	cmp    %ebx,%edx
    1b7e:	75 f6                	jne    1b76 <memset+0x15>
    1b80:	5b                   	pop    %ebx
    1b81:	5d                   	pop    %ebp
    1b82:	c3                   	ret    

00001b83 <memcpy>:
    1b83:	55                   	push   %ebp
    1b84:	89 e5                	mov    %esp,%ebp
    1b86:	56                   	push   %esi
    1b87:	53                   	push   %ebx
    1b88:	8b 75 08             	mov    0x8(%ebp),%esi
    1b8b:	8b 4d 0c             	mov    0xc(%ebp),%ecx
    1b8e:	8b 5d 10             	mov    0x10(%ebp),%ebx
    1b91:	85 db                	test   %ebx,%ebx
    1b93:	74 15                	je     1baa <memcpy+0x27>
    1b95:	01 f3                	add    %esi,%ebx
    1b97:	89 f2                	mov    %esi,%edx
    1b99:	83 c2 01             	add    $0x1,%edx
    1b9c:	83 c1 01             	add    $0x1,%ecx
    1b9f:	0f b6 41 ff          	movzbl -0x1(%ecx),%eax
    1ba3:	88 42 ff             	mov    %al,-0x1(%edx)
    1ba6:	39 da                	cmp    %ebx,%edx
    1ba8:	75 ef                	jne    1b99 <memcpy+0x16>
    1baa:	89 f0                	mov    %esi,%eax
    1bac:	5b                   	pop    %ebx
    1bad:	5e                   	pop    %esi
    1bae:	5d                   	pop    %ebp
    1baf:	c3                   	ret    

00001bb0 <memcmp>:
    1bb0:	55                   	push   %ebp
    1bb1:	89 e5                	mov    %esp,%ebp
    1bb3:	56                   	push   %esi
    1bb4:	53                   	push   %ebx
    1bb5:	8b 5d 08             	mov    0x8(%ebp),%ebx
    1bb8:	8b 75 0c             	mov    0xc(%ebp),%esi
    1bbb:	83 7d 10 00          	cmpl   $0x0,0x10(%ebp)
    1bbf:	74 1f                	je     1be0 <memcmp+0x30>
    1bc1:	0f be 03             	movsbl (%ebx),%eax
    1bc4:	0f be 16             	movsbl (%esi),%edx
    1bc7:	29 d0                	sub    %edx,%eax
    1bc9:	74 1c                	je     1be7 <memcmp+0x37>
    1bcb:	eb 21                	jmp    1bee <memcmp+0x3e>
    1bcd:	0f be 44 13 01       	movsbl 0x1(%ebx,%edx,1),%eax
    1bd2:	0f be 4c 16 01       	movsbl 0x1(%esi,%edx,1),%ecx
    1bd7:	83 c2 01             	add    $0x1,%edx
    1bda:	29 c8                	sub    %ecx,%eax
    1bdc:	74 ef                	je     1bcd <memcmp+0x1d>
    1bde:	eb 0e                	jmp    1bee <memcmp+0x3e>
    1be0:	b8 00 00 00 00       	mov    $0x0,%eax
    1be5:	eb 07                	jmp    1bee <memcmp+0x3e>
    1be7:	ba 00 00 00 00       	mov    $0x0,%edx
    1bec:	eb df                	jmp    1bcd <memcmp+0x1d>
    1bee:	5b                   	pop    %ebx
    1bef:	5e                   	pop    %esi
    1bf0:	5d                   	pop    %ebp
    1bf1:	c3                   	ret    

00001bf2 <strlen>:
    1bf2:	55                   	push   %ebp
    1bf3:	89 e5                	mov    %esp,%ebp
    1bf5:	8b 55 08             	mov    0x8(%ebp),%edx
    1bf8:	80 3a 00             	cmpb   $0x0,(%edx)
    1bfb:	74 10                	je     1c0d <strlen+0x1b>
    1bfd:	b8 00 00 00 00       	mov    $0x0,%eax
    1c02:	83 c0 01             	add    $0x1,%eax
    1c05:	80 3c 02 00          	cmpb   $0x0,(%edx,%eax,1)
    1c09:	75 f7                	jne    1c02 <strlen+0x10>
    1c0b:	eb 05                	jmp    1c12 <strlen+0x20>
    1c0d:	b8 00 00 00 00       	mov    $0x0,%eax
    1c12:	5d                   	pop    %ebp
    1c13:	c3                   	ret    

00001c14 <strnlen>:
    1c14:	55                   	push   %ebp
    1c15:	89 e5                	mov    %esp,%ebp
    1c17:	8b 4d 08             	mov    0x8(%ebp),%ecx
    1c1a:	8b 55 0c             	mov    0xc(%ebp),%edx
    1c1d:	85 d2                	test   %edx,%edx
    1c1f:	74 19                	je     1c3a <strnlen+0x26>
    1c21:	80 39 00             	cmpb   $0x0,(%ecx)
    1c24:	74 1c                	je     1c42 <strnlen+0x2e>
    1c26:	b8 00 00 00 00       	mov    $0x0,%eax
    1c2b:	83 c0 01             	add    $0x1,%eax
    1c2e:	39 d0                	cmp    %edx,%eax
    1c30:	74 15                	je     1c47 <strnlen+0x33>
    1c32:	80 3c 01 00          	cmpb   $0x0,(%ecx,%eax,1)
    1c36:	75 f3                	jne    1c2b <strnlen+0x17>
    1c38:	eb 0d                	jmp    1c47 <strnlen+0x33>
    1c3a:	b8 00 00 00 00       	mov    $0x0,%eax
    1c3f:	90                   	nop
    1c40:	eb 05                	jmp    1c47 <strnlen+0x33>
    1c42:	b8 00 00 00 00       	mov    $0x0,%eax
    1c47:	5d                   	pop    %ebp
    1c48:	c3                   	ret    

00001c49 <strcmp>:
    1c49:	55                   	push   %ebp
    1c4a:	89 e5                	mov    %esp,%ebp
    1c4c:	57                   	push   %edi
    1c4d:	56                   	push   %esi
    1c4e:	53                   	push   %ebx
    1c4f:	8b 55 08             	mov    0x8(%ebp),%edx
    1c52:	8b 4d 0c             	mov    0xc(%ebp),%ecx
    1c55:	0f b6 32             	movzbl (%edx),%esi
    1c58:	0f b6 39             	movzbl (%ecx),%edi
    1c5b:	89 f0                	mov    %esi,%eax
    1c5d:	0f be c0             	movsbl %al,%eax
    1c60:	89 fb                	mov    %edi,%ebx
    1c62:	0f be db             	movsbl %bl,%ebx
    1c65:	29 d8                	sub    %ebx,%eax
    1c67:	75 34                	jne    1c9d <strcmp+0x54>
    1c69:	89 f3                	mov    %esi,%ebx
    1c6b:	84 db                	test   %bl,%bl
    1c6d:	74 2e                	je     1c9d <strcmp+0x54>
    1c6f:	89 fb                	mov    %edi,%ebx
    1c71:	84 db                	test   %bl,%bl
    1c73:	75 0e                	jne    1c83 <strcmp+0x3a>
    1c75:	eb 26                	jmp    1c9d <strcmp+0x54>
    1c77:	89 f3                	mov    %esi,%ebx
    1c79:	84 db                	test   %bl,%bl
    1c7b:	74 20                	je     1c9d <strcmp+0x54>
    1c7d:	89 fb                	mov    %edi,%ebx
    1c7f:	84 db                	test   %bl,%bl
    1c81:	74 1a                	je     1c9d <strcmp+0x54>
    1c83:	83 c2 01             	add    $0x1,%edx
    1c86:	83 c1 01             	add    $0x1,%ecx
    1c89:	0f b6 32             	movzbl (%edx),%esi
    1c8c:	0f b6 39             	movzbl (%ecx),%edi
    1c8f:	89 f0                	mov    %esi,%eax
    1c91:	0f be c0             	movsbl %al,%eax
    1c94:	89 fb                	mov    %edi,%ebx
    1c96:	0f be db             	movsbl %bl,%ebx
    1c99:	29 d8                	sub    %ebx,%eax
    1c9b:	74 da                	je     1c77 <strcmp+0x2e>
    1c9d:	5b                   	pop    %ebx
    1c9e:	5e                   	pop    %esi
    1c9f:	5f                   	pop    %edi
    1ca0:	5d                   	pop    %ebp
    1ca1:	c3                   	ret    

00001ca2 <strncmp>:
    1ca2:	55                   	push   %ebp
    1ca3:	89 e5                	mov    %esp,%ebp
    1ca5:	57                   	push   %edi
    1ca6:	56                   	push   %esi
    1ca7:	53                   	push   %ebx
    1ca8:	8b 7d 0c             	mov    0xc(%ebp),%edi
    1cab:	83 7d 10 00          	cmpl   $0x0,0x10(%ebp)
    1caf:	74 52                	je     1d03 <strncmp+0x61>
    1cb1:	8b 45 08             	mov    0x8(%ebp),%eax
    1cb4:	0f b6 08             	movzbl (%eax),%ecx
    1cb7:	0f b6 1f             	movzbl (%edi),%ebx
    1cba:	0f be d1             	movsbl %cl,%edx
    1cbd:	0f be c3             	movsbl %bl,%eax
    1cc0:	29 c2                	sub    %eax,%edx
    1cc2:	75 46                	jne    1d0a <strncmp+0x68>
    1cc4:	84 c9                	test   %cl,%cl
    1cc6:	74 46                	je     1d0e <strncmp+0x6c>
    1cc8:	84 db                	test   %bl,%bl
    1cca:	74 49                	je     1d15 <strncmp+0x73>
    1ccc:	ba 00 00 00 00       	mov    $0x0,%edx
    1cd1:	eb 21                	jmp    1cf4 <strncmp+0x52>
    1cd3:	8b 45 08             	mov    0x8(%ebp),%eax
    1cd6:	0f b6 1c 10          	movzbl (%eax,%edx,1),%ebx
    1cda:	0f b6 34 17          	movzbl (%edi,%edx,1),%esi
    1cde:	0f be c3             	movsbl %bl,%eax
    1ce1:	89 f1                	mov    %esi,%ecx
    1ce3:	0f be c9             	movsbl %cl,%ecx
    1ce6:	29 c8                	sub    %ecx,%eax
    1ce8:	75 3e                	jne    1d28 <strncmp+0x86>
    1cea:	84 db                	test   %bl,%bl
    1cec:	74 2e                	je     1d1c <strncmp+0x7a>
    1cee:	89 f0                	mov    %esi,%eax
    1cf0:	84 c0                	test   %al,%al
    1cf2:	74 2f                	je     1d23 <strncmp+0x81>
    1cf4:	83 c2 01             	add    $0x1,%edx
    1cf7:	3b 55 10             	cmp    0x10(%ebp),%edx
    1cfa:	75 d7                	jne    1cd3 <strncmp+0x31>
    1cfc:	b8 00 00 00 00       	mov    $0x0,%eax
    1d01:	eb 25                	jmp    1d28 <strncmp+0x86>
    1d03:	b8 00 00 00 00       	mov    $0x0,%eax
    1d08:	eb 1e                	jmp    1d28 <strncmp+0x86>
    1d0a:	89 d0                	mov    %edx,%eax
    1d0c:	eb 1a                	jmp    1d28 <strncmp+0x86>
    1d0e:	b8 00 00 00 00       	mov    $0x0,%eax
    1d13:	eb 13                	jmp    1d28 <strncmp+0x86>
    1d15:	b8 00 00 00 00       	mov    $0x0,%eax
    1d1a:	eb 0c                	jmp    1d28 <strncmp+0x86>
    1d1c:	b8 00 00 00 00       	mov    $0x0,%eax
    1d21:	eb 05                	jmp    1d28 <strncmp+0x86>
    1d23:	b8 00 00 00 00       	mov    $0x0,%eax
    1d28:	5b                   	pop    %ebx
    1d29:	5e                   	pop    %esi
    1d2a:	5f                   	pop    %edi
    1d2b:	5d                   	pop    %ebp
    1d2c:	c3                   	ret    

00001d2d <strcat>:
    1d2d:	55                   	push   %ebp
    1d2e:	89 e5                	mov    %esp,%ebp
    1d30:	53                   	push   %ebx
    1d31:	8b 45 08             	mov    0x8(%ebp),%eax
    1d34:	8b 5d 0c             	mov    0xc(%ebp),%ebx
    1d37:	80 38 00             	cmpb   $0x0,(%eax)
    1d3a:	74 0c                	je     1d48 <strcat+0x1b>
    1d3c:	89 c2                	mov    %eax,%edx
    1d3e:	83 c2 01             	add    $0x1,%edx
    1d41:	80 3a 00             	cmpb   $0x0,(%edx)
    1d44:	75 f8                	jne    1d3e <strcat+0x11>
    1d46:	eb 02                	jmp    1d4a <strcat+0x1d>
    1d48:	89 c2                	mov    %eax,%edx
    1d4a:	0f b6 0b             	movzbl (%ebx),%ecx
    1d4d:	84 c9                	test   %cl,%cl
    1d4f:	74 10                	je     1d61 <strcat+0x34>
    1d51:	83 c2 01             	add    $0x1,%edx
    1d54:	83 c3 01             	add    $0x1,%ebx
    1d57:	88 4a ff             	mov    %cl,-0x1(%edx)
    1d5a:	0f b6 0b             	movzbl (%ebx),%ecx
    1d5d:	84 c9                	test   %cl,%cl
    1d5f:	75 f0                	jne    1d51 <strcat+0x24>
    1d61:	c6 02 00             	movb   $0x0,(%edx)
    1d64:	5b                   	pop    %ebx
    1d65:	5d                   	pop    %ebp
    1d66:	c3                   	ret    

00001d67 <strcpy>:
    1d67:	55                   	push   %ebp
    1d68:	89 e5                	mov    %esp,%ebp
    1d6a:	53                   	push   %ebx
    1d6b:	8b 45 08             	mov    0x8(%ebp),%eax
    1d6e:	8b 4d 0c             	mov    0xc(%ebp),%ecx
    1d71:	0f b6 11             	movzbl (%ecx),%edx
    1d74:	84 d2                	test   %dl,%dl
    1d76:	74 14                	je     1d8c <strcpy+0x25>
    1d78:	89 c3                	mov    %eax,%ebx
    1d7a:	83 c3 01             	add    $0x1,%ebx
    1d7d:	83 c1 01             	add    $0x1,%ecx
    1d80:	88 53 ff             	mov    %dl,-0x1(%ebx)
    1d83:	0f b6 11             	movzbl (%ecx),%edx
    1d86:	84 d2                	test   %dl,%dl
    1d88:	75 f0                	jne    1d7a <strcpy+0x13>
    1d8a:	eb 02                	jmp    1d8e <strcpy+0x27>
    1d8c:	89 c3                	mov    %eax,%ebx
    1d8e:	c6 03 00             	movb   $0x0,(%ebx)
    1d91:	5b                   	pop    %ebx
    1d92:	5d                   	pop    %ebp
    1d93:	c3                   	ret    

00001d94 <strncpy>:
    1d94:	55                   	push   %ebp
    1d95:	89 e5                	mov    %esp,%ebp
    1d97:	56                   	push   %esi
    1d98:	53                   	push   %ebx
    1d99:	8b 45 08             	mov    0x8(%ebp),%eax
    1d9c:	8b 5d 0c             	mov    0xc(%ebp),%ebx
    1d9f:	8b 55 10             	mov    0x10(%ebp),%edx
    1da2:	0f b6 0b             	movzbl (%ebx),%ecx
    1da5:	84 c9                	test   %cl,%cl
    1da7:	74 1f                	je     1dc8 <strncpy+0x34>
    1da9:	85 d2                	test   %edx,%edx
    1dab:	74 28                	je     1dd5 <strncpy+0x41>
    1dad:	89 c6                	mov    %eax,%esi
    1daf:	83 c6 01             	add    $0x1,%esi
    1db2:	83 c3 01             	add    $0x1,%ebx
    1db5:	88 4e ff             	mov    %cl,-0x1(%esi)
    1db8:	83 ea 01             	sub    $0x1,%edx
    1dbb:	0f b6 0b             	movzbl (%ebx),%ecx
    1dbe:	84 c9                	test   %cl,%cl
    1dc0:	74 08                	je     1dca <strncpy+0x36>
    1dc2:	85 d2                	test   %edx,%edx
    1dc4:	75 e9                	jne    1daf <strncpy+0x1b>
    1dc6:	eb 0d                	jmp    1dd5 <strncpy+0x41>
    1dc8:	89 c6                	mov    %eax,%esi
    1dca:	85 d2                	test   %edx,%edx
    1dcc:	8d 74 26 00          	lea    0x0(%esi,%eiz,1),%esi
    1dd0:	74 03                	je     1dd5 <strncpy+0x41>
    1dd2:	c6 06 00             	movb   $0x0,(%esi)
    1dd5:	5b                   	pop    %ebx
    1dd6:	5e                   	pop    %esi
    1dd7:	5d                   	pop    %ebp
    1dd8:	c3                   	ret    

00001dd9 <strdup>:
    1dd9:	55                   	push   %ebp
    1dda:	89 e5                	mov    %esp,%ebp
    1ddc:	57                   	push   %edi
    1ddd:	56                   	push   %esi
    1dde:	53                   	push   %ebx
    1ddf:	83 ec 1c             	sub    $0x1c,%esp
    1de2:	8b 5d 08             	mov    0x8(%ebp),%ebx
    1de5:	89 df                	mov    %ebx,%edi
    1de7:	b8 00 00 00 00       	mov    $0x0,%eax
    1dec:	b9 ff ff ff ff       	mov    $0xffffffff,%ecx
    1df1:	f2 ae                	repnz scas %es:(%edi),%al
    1df3:	f7 d1                	not    %ecx
    1df5:	89 0c 24             	mov    %ecx,(%esp)
    1df8:	e8 80 01 00 00       	call   1f7d <Malloc>
    1dfd:	89 c6                	mov    %eax,%esi
    1dff:	89 5c 24 04          	mov    %ebx,0x4(%esp)
    1e03:	89 04 24             	mov    %eax,(%esp)
    1e06:	e8 5c ff ff ff       	call   1d67 <strcpy>
    1e0b:	89 f0                	mov    %esi,%eax
    1e0d:	83 c4 1c             	add    $0x1c,%esp
    1e10:	5b                   	pop    %ebx
    1e11:	5e                   	pop    %esi
    1e12:	5f                   	pop    %edi
    1e13:	5d                   	pop    %ebp
    1e14:	c3                   	ret    

00001e15 <atoi>:
    1e15:	55                   	push   %ebp
    1e16:	89 e5                	mov    %esp,%ebp
    1e18:	53                   	push   %ebx
    1e19:	8b 4d 08             	mov    0x8(%ebp),%ecx
    1e1c:	0f b6 11             	movzbl (%ecx),%edx
    1e1f:	8d 42 d0             	lea    -0x30(%edx),%eax
    1e22:	3c 09                	cmp    $0x9,%al
    1e24:	77 1f                	ja     1e45 <atoi+0x30>
    1e26:	b8 00 00 00 00       	mov    $0x0,%eax
    1e2b:	8d 04 80             	lea    (%eax,%eax,4),%eax
    1e2e:	0f be d2             	movsbl %dl,%edx
    1e31:	8d 44 42 d0          	lea    -0x30(%edx,%eax,2),%eax
    1e35:	83 c1 01             	add    $0x1,%ecx
    1e38:	0f b6 11             	movzbl (%ecx),%edx
    1e3b:	8d 5a d0             	lea    -0x30(%edx),%ebx
    1e3e:	80 fb 09             	cmp    $0x9,%bl
    1e41:	76 e8                	jbe    1e2b <atoi+0x16>
    1e43:	eb 05                	jmp    1e4a <atoi+0x35>
    1e45:	b8 00 00 00 00       	mov    $0x0,%eax
    1e4a:	5b                   	pop    %ebx
    1e4b:	5d                   	pop    %ebp
    1e4c:	c3                   	ret    

00001e4d <strchr>:
    1e4d:	55                   	push   %ebp
    1e4e:	89 e5                	mov    %esp,%ebp
    1e50:	8b 45 08             	mov    0x8(%ebp),%eax
    1e53:	8b 4d 0c             	mov    0xc(%ebp),%ecx
    1e56:	0f b6 10             	movzbl (%eax),%edx
    1e59:	84 d2                	test   %dl,%dl
    1e5b:	74 21                	je     1e7e <strchr+0x31>
    1e5d:	0f be d2             	movsbl %dl,%edx
    1e60:	39 ca                	cmp    %ecx,%edx
    1e62:	75 09                	jne    1e6d <strchr+0x20>
    1e64:	eb 1d                	jmp    1e83 <strchr+0x36>
    1e66:	0f be d2             	movsbl %dl,%edx
    1e69:	39 ca                	cmp    %ecx,%edx
    1e6b:	74 16                	je     1e83 <strchr+0x36>
    1e6d:	83 c0 01             	add    $0x1,%eax
    1e70:	0f b6 10             	movzbl (%eax),%edx
    1e73:	84 d2                	test   %dl,%dl
    1e75:	75 ef                	jne    1e66 <strchr+0x19>
    1e77:	b8 00 00 00 00       	mov    $0x0,%eax
    1e7c:	eb 05                	jmp    1e83 <strchr+0x36>
    1e7e:	b8 00 00 00 00       	mov    $0x0,%eax
    1e83:	5d                   	pop    %ebp
    1e84:	c3                   	ret    

00001e85 <strrchr>:
    1e85:	55                   	push   %ebp
    1e86:	89 e5                	mov    %esp,%ebp
    1e88:	57                   	push   %edi
    1e89:	53                   	push   %ebx
    1e8a:	8b 55 08             	mov    0x8(%ebp),%edx
    1e8d:	8b 5d 0c             	mov    0xc(%ebp),%ebx
    1e90:	89 d7                	mov    %edx,%edi
    1e92:	b8 00 00 00 00       	mov    $0x0,%eax
    1e97:	b9 ff ff ff ff       	mov    $0xffffffff,%ecx
    1e9c:	f2 ae                	repnz scas %es:(%edi),%al
    1e9e:	f7 d1                	not    %ecx
    1ea0:	8d 4c 0a ff          	lea    -0x1(%edx,%ecx,1),%ecx
    1ea4:	39 ca                	cmp    %ecx,%edx
    1ea6:	73 22                	jae    1eca <strrchr+0x45>
    1ea8:	8d 41 ff             	lea    -0x1(%ecx),%eax
    1eab:	0f be 49 ff          	movsbl -0x1(%ecx),%ecx
    1eaf:	39 d9                	cmp    %ebx,%ecx
    1eb1:	75 0c                	jne    1ebf <strrchr+0x3a>
    1eb3:	eb 1a                	jmp    1ecf <strrchr+0x4a>
    1eb5:	83 e8 01             	sub    $0x1,%eax
    1eb8:	0f be 08             	movsbl (%eax),%ecx
    1ebb:	39 d9                	cmp    %ebx,%ecx
    1ebd:	74 10                	je     1ecf <strrchr+0x4a>
    1ebf:	39 d0                	cmp    %edx,%eax
    1ec1:	75 f2                	jne    1eb5 <strrchr+0x30>
    1ec3:	b8 00 00 00 00       	mov    $0x0,%eax
    1ec8:	eb 05                	jmp    1ecf <strrchr+0x4a>
    1eca:	b8 00 00 00 00       	mov    $0x0,%eax
    1ecf:	5b                   	pop    %ebx
    1ed0:	5f                   	pop    %edi
    1ed1:	5d                   	pop    %ebp
    1ed2:	c3                   	ret    

00001ed3 <strpbrk>:
    1ed3:	55                   	push   %ebp
    1ed4:	89 e5                	mov    %esp,%ebp
    1ed6:	57                   	push   %edi
    1ed7:	56                   	push   %esi
    1ed8:	53                   	push   %ebx
    1ed9:	8b 5d 08             	mov    0x8(%ebp),%ebx
    1edc:	8b 55 0c             	mov    0xc(%ebp),%edx
    1edf:	89 d7                	mov    %edx,%edi
    1ee1:	b8 00 00 00 00       	mov    $0x0,%eax
    1ee6:	b9 ff ff ff ff       	mov    $0xffffffff,%ecx
    1eeb:	f2 ae                	repnz scas %es:(%edi),%al
    1eed:	f7 d1                	not    %ecx
    1eef:	8d 71 ff             	lea    -0x1(%ecx),%esi
    1ef2:	0f b6 0b             	movzbl (%ebx),%ecx
    1ef5:	84 c9                	test   %cl,%cl
    1ef7:	74 29                	je     1f22 <strpbrk+0x4f>
    1ef9:	8d 3c 32             	lea    (%edx,%esi,1),%edi
    1efc:	eb 16                	jmp    1f14 <strpbrk+0x41>
    1efe:	83 c0 01             	add    $0x1,%eax
    1f01:	3a 48 ff             	cmp    -0x1(%eax),%cl
    1f04:	74 23                	je     1f29 <strpbrk+0x56>
    1f06:	39 f8                	cmp    %edi,%eax
    1f08:	75 f4                	jne    1efe <strpbrk+0x2b>
    1f0a:	83 c3 01             	add    $0x1,%ebx
    1f0d:	0f b6 0b             	movzbl (%ebx),%ecx
    1f10:	84 c9                	test   %cl,%cl
    1f12:	74 19                	je     1f2d <strpbrk+0x5a>
    1f14:	85 f6                	test   %esi,%esi
    1f16:	74 f2                	je     1f0a <strpbrk+0x37>
    1f18:	3a 0a                	cmp    (%edx),%cl
    1f1a:	74 18                	je     1f34 <strpbrk+0x61>
    1f1c:	8d 42 01             	lea    0x1(%edx),%eax
    1f1f:	90                   	nop
    1f20:	eb e4                	jmp    1f06 <strpbrk+0x33>
    1f22:	b8 00 00 00 00       	mov    $0x0,%eax
    1f27:	eb 0d                	jmp    1f36 <strpbrk+0x63>
    1f29:	89 d8                	mov    %ebx,%eax
    1f2b:	eb 09                	jmp    1f36 <strpbrk+0x63>
    1f2d:	b8 00 00 00 00       	mov    $0x0,%eax
    1f32:	eb 02                	jmp    1f36 <strpbrk+0x63>
    1f34:	89 d8                	mov    %ebx,%eax
    1f36:	5b                   	pop    %ebx
    1f37:	5e                   	pop    %esi
    1f38:	5f                   	pop    %edi
    1f39:	5d                   	pop    %ebp
    1f3a:	c3                   	ret    

00001f3b <snprintf>:
    1f3b:	55                   	push   %ebp
    1f3c:	89 e5                	mov    %esp,%ebp
    1f3e:	83 ec 38             	sub    $0x38,%esp
    1f41:	c7 45 e4 20 1b 00 00 	movl   $0x1b20,-0x1c(%ebp)
    1f48:	c7 45 e8 42 1b 00 00 	movl   $0x1b42,-0x18(%ebp)
    1f4f:	8b 45 08             	mov    0x8(%ebp),%eax
    1f52:	89 45 ec             	mov    %eax,-0x14(%ebp)
    1f55:	c7 45 f0 00 00 00 00 	movl   $0x0,-0x10(%ebp)
    1f5c:	8b 45 0c             	mov    0xc(%ebp),%eax
    1f5f:	89 45 f4             	mov    %eax,-0xc(%ebp)
    1f62:	8d 45 14             	lea    0x14(%ebp),%eax
    1f65:	89 44 24 08          	mov    %eax,0x8(%esp)
    1f69:	8b 45 10             	mov    0x10(%ebp),%eax
    1f6c:	89 44 24 04          	mov    %eax,0x4(%esp)
    1f70:	8d 45 e4             	lea    -0x1c(%ebp),%eax
    1f73:	89 04 24             	mov    %eax,(%esp)
    1f76:	e8 15 f4 ff ff       	call   1390 <Format_Output>
    1f7b:	c9                   	leave  
    1f7c:	c3                   	ret    

00001f7d <Malloc>:
    1f7d:	55                   	push   %ebp
    1f7e:	89 e5                	mov    %esp,%ebp
    1f80:	83 ec 18             	sub    $0x18,%esp
    1f83:	c7 04 24 44 23 00 00 	movl   $0x2344,(%esp)
    1f8a:	e8 d8 f3 ff ff       	call   1367 <Print>
    1f8f:	b8 00 00 00 00       	mov    $0x0,%eax
    1f94:	c9                   	leave  
    1f95:	c3                   	ret    
