
kernel.exe:     file format elf32-i386


Disassembly of section .text:

00010000 <Init_Interrupt_Gate>:
   10000:	55                   	push   %ebp
   10001:	89 e5                	mov    %esp,%ebp
   10003:	53                   	push   %ebx
   10004:	8b 45 08             	mov    0x8(%ebp),%eax
   10007:	8b 55 0c             	mov    0xc(%ebp),%edx
   1000a:	66 89 10             	mov    %dx,(%eax)
   1000d:	66 c7 40 02 08 00    	movw   $0x8,0x2(%eax)
   10013:	80 60 04 e0          	andb   $0xe0,0x4(%eax)
   10017:	0f b7 48 04          	movzwl 0x4(%eax),%ecx
   1001b:	66 81 e1 1f e0       	and    $0xe01f,%cx
   10020:	80 cd 0e             	or     $0xe,%ch
   10023:	66 89 48 04          	mov    %cx,0x4(%eax)
   10027:	0f b6 5d 10          	movzbl 0x10(%ebp),%ebx
   1002b:	83 e3 03             	and    $0x3,%ebx
   1002e:	c1 e3 05             	shl    $0x5,%ebx
   10031:	66 c1 e9 08          	shr    $0x8,%cx
   10035:	83 e1 9f             	and    $0xffffff9f,%ecx
   10038:	09 d9                	or     %ebx,%ecx
   1003a:	83 c9 80             	or     $0xffffff80,%ecx
   1003d:	88 48 05             	mov    %cl,0x5(%eax)
   10040:	c1 ea 10             	shr    $0x10,%edx
   10043:	66 89 50 06          	mov    %dx,0x6(%eax)
   10047:	5b                   	pop    %ebx
   10048:	5d                   	pop    %ebp
   10049:	c3                   	ret    

0001004a <Init_IDT>:
   1004a:	55                   	push   %ebp
   1004b:	89 e5                	mov    %esp,%ebp
   1004d:	57                   	push   %edi
   1004e:	56                   	push   %esi
   1004f:	53                   	push   %ebx
   10050:	83 ec 3c             	sub    $0x3c,%esp
   10053:	c7 04 24 e0 ed 01 00 	movl   $0x1ede0,(%esp)
   1005a:	e8 07 10 00 00       	call   11066 <Print>
   1005f:	a1 34 41 02 00       	mov    0x24134,%eax
   10064:	3b 05 38 41 02 00    	cmp    0x24138,%eax
   1006a:	74 4a                	je     100b6 <Init_IDT+0x6c>
   1006c:	c7 04 24 4f 00 00 00 	movl   $0x4f,(%esp)
   10073:	e8 43 11 00 00       	call   111bb <Set_Current_Attr>
   10078:	a1 6c 5e 02 00       	mov    0x25e6c,%eax
   1007d:	89 44 24 18          	mov    %eax,0x18(%esp)
   10081:	8b 45 04             	mov    0x4(%ebp),%eax
   10084:	89 44 24 14          	mov    %eax,0x14(%esp)
   10088:	c7 44 24 10 3d 00 00 	movl   $0x3d,0x10(%esp)
   1008f:	00 
   10090:	c7 44 24 0c f5 ed 01 	movl   $0x1edf5,0xc(%esp)
   10097:	00 
   10098:	c7 44 24 08 0c ee 01 	movl   $0x1ee0c,0x8(%esp)
   1009f:	00 
   100a0:	c7 44 24 04 18 ef 01 	movl   $0x1ef18,0x4(%esp)
   100a7:	00 
   100a8:	c7 04 24 34 ee 01 00 	movl   $0x1ee34,(%esp)
   100af:	e8 b2 0f 00 00       	call   11066 <Print>
   100b4:	eb fe                	jmp    100b4 <Init_IDT+0x6a>
   100b6:	c1 e0 08             	shl    $0x8,%eax
   100b9:	ba 78 e1 01 00       	mov    $0x1e178,%edx
   100be:	81 ea 78 d1 01 00    	sub    $0x1d178,%edx
   100c4:	39 d0                	cmp    %edx,%eax
   100c6:	74 4a                	je     10112 <Init_IDT+0xc8>
   100c8:	c7 04 24 4f 00 00 00 	movl   $0x4f,(%esp)
   100cf:	e8 e7 10 00 00       	call   111bb <Set_Current_Attr>
   100d4:	a1 6c 5e 02 00       	mov    0x25e6c,%eax
   100d9:	89 44 24 18          	mov    %eax,0x18(%esp)
   100dd:	8b 45 04             	mov    0x4(%ebp),%eax
   100e0:	89 44 24 14          	mov    %eax,0x14(%esp)
   100e4:	c7 44 24 10 3f 00 00 	movl   $0x3f,0x10(%esp)
   100eb:	00 
   100ec:	c7 44 24 0c f5 ed 01 	movl   $0x1edf5,0xc(%esp)
   100f3:	00 
   100f4:	c7 44 24 08 74 ee 01 	movl   $0x1ee74,0x8(%esp)
   100fb:	00 
   100fc:	c7 44 24 04 18 ef 01 	movl   $0x1ef18,0x4(%esp)
   10103:	00 
   10104:	c7 04 24 34 ee 01 00 	movl   $0x1ee34,(%esp)
   1010b:	e8 56 0f 00 00       	call   11066 <Print>
   10110:	eb fe                	jmp    10110 <Init_IDT+0xc6>
   10112:	be 78 d1 01 00       	mov    $0x1d178,%esi
   10117:	bf 40 41 02 00       	mov    $0x24140,%edi
   1011c:	bb 01 00 00 00       	mov    $0x1,%ebx
   10121:	eb 06                	jmp    10129 <Init_IDT+0xdf>
   10123:	83 c3 01             	add    $0x1,%ebx
   10126:	83 c7 08             	add    $0x8,%edi
   10129:	81 fb 91 00 00 00    	cmp    $0x91,%ebx
   1012f:	74 50                	je     10181 <Init_IDT+0x137>
   10131:	c7 44 24 08 00 00 00 	movl   $0x0,0x8(%esp)
   10138:	00 
   10139:	89 74 24 04          	mov    %esi,0x4(%esp)
   1013d:	89 3c 24             	mov    %edi,(%esp)
   10140:	e8 bb fe ff ff       	call   10000 <Init_Interrupt_Gate>
   10145:	03 35 34 41 02 00    	add    0x24134,%esi
   1014b:	81 fb ff 00 00 00    	cmp    $0xff,%ebx
   10151:	7e d0                	jle    10123 <Init_IDT+0xd9>
   10153:	66 c7 45 e2 00 08    	movw   $0x800,-0x1e(%ebp)
   10159:	c7 45 d4 40 41 02 00 	movl   $0x24140,-0x2c(%ebp)
   10160:	0f b7 45 d4          	movzwl -0x2c(%ebp),%eax
   10164:	66 89 45 e4          	mov    %ax,-0x1c(%ebp)
   10168:	b8 40 41 02 00       	mov    $0x24140,%eax
   1016d:	c1 e8 10             	shr    $0x10,%eax
   10170:	66 89 45 e6          	mov    %ax,-0x1a(%ebp)
   10174:	8d 45 e2             	lea    -0x1e(%ebp),%eax
   10177:	89 04 24             	mov    %eax,(%esp)
   1017a:	e8 61 ce 00 00       	call   1cfe0 <Load_IDTR>
   1017f:	eb 1c                	jmp    1019d <Init_IDT+0x153>
   10181:	c7 44 24 08 03 00 00 	movl   $0x3,0x8(%esp)
   10188:	00 
   10189:	89 74 24 04          	mov    %esi,0x4(%esp)
   1018d:	89 3c 24             	mov    %edi,(%esp)
   10190:	e8 6b fe ff ff       	call   10000 <Init_Interrupt_Gate>
   10195:	03 35 34 41 02 00    	add    0x24134,%esi
   1019b:	eb 86                	jmp    10123 <Init_IDT+0xd9>
   1019d:	83 c4 3c             	add    $0x3c,%esp
   101a0:	5b                   	pop    %ebx
   101a1:	5e                   	pop    %esi
   101a2:	5f                   	pop    %edi
   101a3:	5d                   	pop    %ebp
   101a4:	c3                   	ret    

000101a5 <Install_Interrupt_Handler>:
   101a5:	55                   	push   %ebp
   101a6:	89 e5                	mov    %esp,%ebp
   101a8:	83 ec 28             	sub    $0x28,%esp
   101ab:	8b 45 08             	mov    0x8(%ebp),%eax
   101ae:	3d ff 00 00 00       	cmp    $0xff,%eax
   101b3:	76 4a                	jbe    101ff <Install_Interrupt_Handler+0x5a>
   101b5:	c7 04 24 4f 00 00 00 	movl   $0x4f,(%esp)
   101bc:	e8 fa 0f 00 00       	call   111bb <Set_Current_Attr>
   101c1:	a1 6c 5e 02 00       	mov    0x25e6c,%eax
   101c6:	89 44 24 18          	mov    %eax,0x18(%esp)
   101ca:	8b 45 04             	mov    0x4(%ebp),%eax
   101cd:	89 44 24 14          	mov    %eax,0x14(%esp)
   101d1:	c7 44 24 10 75 00 00 	movl   $0x75,0x10(%esp)
   101d8:	00 
   101d9:	c7 44 24 0c f5 ed 01 	movl   $0x1edf5,0xc(%esp)
   101e0:	00 
   101e1:	c7 44 24 08 d0 ee 01 	movl   $0x1eed0,0x8(%esp)
   101e8:	00 
   101e9:	c7 44 24 04 fe ee 01 	movl   $0x1eefe,0x4(%esp)
   101f0:	00 
   101f1:	c7 04 24 34 ee 01 00 	movl   $0x1ee34,(%esp)
   101f8:	e8 69 0e 00 00       	call   11066 <Print>
   101fd:	eb fe                	jmp    101fd <Install_Interrupt_Handler+0x58>
   101ff:	8b 55 0c             	mov    0xc(%ebp),%edx
   10202:	89 14 85 00 54 02 00 	mov    %edx,0x25400(,%eax,4)
   10209:	c9                   	leave  
   1020a:	c3                   	ret    

0001020b <Print_Selector>:
   1020b:	55                   	push   %ebp
   1020c:	89 e5                	mov    %esp,%ebp
   1020e:	83 ec 28             	sub    $0x28,%esp
   10211:	89 d1                	mov    %edx,%ecx
   10213:	83 e1 03             	and    $0x3,%ecx
   10216:	89 4c 24 10          	mov    %ecx,0x10(%esp)
   1021a:	89 d1                	mov    %edx,%ecx
   1021c:	c1 e9 02             	shr    $0x2,%ecx
   1021f:	83 e1 01             	and    $0x1,%ecx
   10222:	89 4c 24 0c          	mov    %ecx,0xc(%esp)
   10226:	c1 ea 03             	shr    $0x3,%edx
   10229:	89 54 24 08          	mov    %edx,0x8(%esp)
   1022d:	89 44 24 04          	mov    %eax,0x4(%esp)
   10231:	c7 04 24 21 ef 01 00 	movl   $0x1ef21,(%esp)
   10238:	e8 29 0e 00 00       	call   11066 <Print>
   1023d:	c9                   	leave  
   1023e:	c3                   	ret    

0001023f <Interrupts_Enabled>:
   1023f:	55                   	push   %ebp
   10240:	89 e5                	mov    %esp,%ebp
   10242:	83 ec 08             	sub    $0x8,%esp
   10245:	e8 26 cf 00 00       	call   1d170 <Get_Current_EFLAGS>
   1024a:	c1 e8 09             	shr    $0x9,%eax
   1024d:	83 e0 01             	and    $0x1,%eax
   10250:	c9                   	leave  
   10251:	c3                   	ret    

00010252 <Init_Interrupts>:
   10252:	55                   	push   %ebp
   10253:	89 e5                	mov    %esp,%ebp
   10255:	53                   	push   %ebx
   10256:	83 ec 24             	sub    $0x24,%esp
   10259:	e8 ec fd ff ff       	call   1004a <Init_IDT>
   1025e:	bb 00 00 00 00       	mov    $0x0,%ebx
   10263:	c7 44 24 04 47 04 01 	movl   $0x10447,0x4(%esp)
   1026a:	00 
   1026b:	89 1c 24             	mov    %ebx,(%esp)
   1026e:	e8 32 ff ff ff       	call   101a5 <Install_Interrupt_Handler>
   10273:	83 c3 01             	add    $0x1,%ebx
   10276:	81 fb 00 01 00 00    	cmp    $0x100,%ebx
   1027c:	75 e5                	jne    10263 <Init_Interrupts+0x11>
   1027e:	e8 bc ff ff ff       	call   1023f <Interrupts_Enabled>
   10283:	84 c0                	test   %al,%al
   10285:	74 4a                	je     102d1 <Init_Interrupts+0x7f>
   10287:	c7 04 24 4f 00 00 00 	movl   $0x4f,(%esp)
   1028e:	e8 28 0f 00 00       	call   111bb <Set_Current_Attr>
   10293:	a1 6c 5e 02 00       	mov    0x25e6c,%eax
   10298:	89 44 24 18          	mov    %eax,0x18(%esp)
   1029c:	8b 45 04             	mov    0x4(%ebp),%eax
   1029f:	89 44 24 14          	mov    %eax,0x14(%esp)
   102a3:	c7 44 24 10 42 00 00 	movl   $0x42,0x10(%esp)
   102aa:	00 
   102ab:	c7 44 24 0c 3e ef 01 	movl   $0x1ef3e,0xc(%esp)
   102b2:	00 
   102b3:	c7 44 24 08 52 ef 01 	movl   $0x1ef52,0x8(%esp)
   102ba:	00 
   102bb:	c7 44 24 04 9b f0 01 	movl   $0x1f09b,0x4(%esp)
   102c2:	00 
   102c3:	c7 04 24 34 ee 01 00 	movl   $0x1ee34,(%esp)
   102ca:	e8 97 0d 00 00       	call   11066 <Print>
   102cf:	eb fe                	jmp    102cf <Init_Interrupts+0x7d>
   102d1:	fb                   	sti    
   102d2:	83 c4 24             	add    $0x24,%esp
   102d5:	5b                   	pop    %ebx
   102d6:	5d                   	pop    %ebp
   102d7:	c3                   	ret    

000102d8 <Dump_Interrupt_State>:
   102d8:	55                   	push   %ebp
   102d9:	89 e5                	mov    %esp,%ebp
   102db:	56                   	push   %esi
   102dc:	53                   	push   %ebx
   102dd:	83 ec 50             	sub    $0x50,%esp
   102e0:	8b 5d 08             	mov    0x8(%ebp),%ebx
   102e3:	8b 73 30             	mov    0x30(%ebx),%esi
   102e6:	89 f0                	mov    %esi,%eax
   102e8:	83 e0 01             	and    $0x1,%eax
   102eb:	89 44 24 40          	mov    %eax,0x40(%esp)
   102ef:	89 f0                	mov    %esi,%eax
   102f1:	d1 e8                	shr    %eax
   102f3:	83 e0 01             	and    $0x1,%eax
   102f6:	89 44 24 3c          	mov    %eax,0x3c(%esp)
   102fa:	89 f0                	mov    %esi,%eax
   102fc:	c1 e8 02             	shr    $0x2,%eax
   102ff:	83 e0 01             	and    $0x1,%eax
   10302:	89 44 24 38          	mov    %eax,0x38(%esp)
   10306:	89 f0                	mov    %esi,%eax
   10308:	c1 e8 03             	shr    $0x3,%eax
   1030b:	89 44 24 34          	mov    %eax,0x34(%esp)
   1030f:	89 74 24 30          	mov    %esi,0x30(%esp)
   10313:	8b 43 2c             	mov    0x2c(%ebx),%eax
   10316:	89 44 24 2c          	mov    %eax,0x2c(%esp)
   1031a:	8b 43 3c             	mov    0x3c(%ebx),%eax
   1031d:	89 44 24 28          	mov    %eax,0x28(%esp)
   10321:	8b 43 38             	mov    0x38(%ebx),%eax
   10324:	89 44 24 24          	mov    %eax,0x24(%esp)
   10328:	8b 43 34             	mov    0x34(%ebx),%eax
   1032b:	89 44 24 20          	mov    %eax,0x20(%esp)
   1032f:	8b 43 10             	mov    0x10(%ebx),%eax
   10332:	89 44 24 1c          	mov    %eax,0x1c(%esp)
   10336:	8b 43 14             	mov    0x14(%ebx),%eax
   10339:	89 44 24 18          	mov    %eax,0x18(%esp)
   1033d:	8b 43 18             	mov    0x18(%ebx),%eax
   10340:	89 44 24 14          	mov    %eax,0x14(%esp)
   10344:	8b 43 1c             	mov    0x1c(%ebx),%eax
   10347:	89 44 24 10          	mov    %eax,0x10(%esp)
   1034b:	8b 43 20             	mov    0x20(%ebx),%eax
   1034e:	89 44 24 0c          	mov    %eax,0xc(%esp)
   10352:	8b 43 24             	mov    0x24(%ebx),%eax
   10355:	89 44 24 08          	mov    %eax,0x8(%esp)
   10359:	8b 43 28             	mov    0x28(%ebx),%eax
   1035c:	89 44 24 04          	mov    %eax,0x4(%esp)
   10360:	c7 04 24 dc ef 01 00 	movl   $0x1efdc,(%esp)
   10367:	e8 fa 0c 00 00       	call   11066 <Print>
   1036c:	8b 43 38             	mov    0x38(%ebx),%eax
   1036f:	83 e0 03             	and    $0x3,%eax
   10372:	83 f8 03             	cmp    $0x3,%eax
   10375:	75 1a                	jne    10391 <Dump_Interrupt_State+0xb9>
   10377:	8b 43 44             	mov    0x44(%ebx),%eax
   1037a:	89 44 24 08          	mov    %eax,0x8(%esp)
   1037e:	8b 43 40             	mov    0x40(%ebx),%eax
   10381:	89 44 24 04          	mov    %eax,0x4(%esp)
   10385:	c7 04 24 73 ef 01 00 	movl   $0x1ef73,(%esp)
   1038c:	e8 d5 0c 00 00       	call   11066 <Print>
   10391:	83 7b 2c 0e          	cmpl   $0xe,0x2c(%ebx)
   10395:	75 69                	jne    10400 <Dump_Interrupt_State+0x128>
   10397:	c7 04 24 90 ef 01 00 	movl   $0x1ef90,(%esp)
   1039e:	e8 c3 0c 00 00       	call   11066 <Print>
   103a3:	f7 c6 01 00 00 00    	test   $0x1,%esi
   103a9:	74 0c                	je     103b7 <Dump_Interrupt_State+0xdf>
   103ab:	c7 04 24 9d ef 01 00 	movl   $0x1ef9d,(%esp)
   103b2:	e8 af 0c 00 00       	call   11066 <Print>
   103b7:	89 f0                	mov    %esi,%eax
   103b9:	83 e0 02             	and    $0x2,%eax
   103bc:	b8 68 ef 01 00       	mov    $0x1ef68,%eax
   103c1:	ba 6e ef 01 00       	mov    $0x1ef6e,%edx
   103c6:	0f 44 c2             	cmove  %edx,%eax
   103c9:	89 44 24 04          	mov    %eax,0x4(%esp)
   103cd:	c7 04 24 aa ef 01 00 	movl   $0x1efaa,(%esp)
   103d4:	e8 8d 0c 00 00       	call   11066 <Print>
   103d9:	f7 c6 04 00 00 00    	test   $0x4,%esi
   103df:	74 0c                	je     103ed <Dump_Interrupt_State+0x115>
   103e1:	c7 04 24 af ef 01 00 	movl   $0x1efaf,(%esp)
   103e8:	e8 79 0c 00 00       	call   11066 <Print>
   103ed:	0f 20 d0             	mov    %cr2,%eax
   103f0:	89 44 24 04          	mov    %eax,0x4(%esp)
   103f4:	c7 04 24 bb ef 01 00 	movl   $0x1efbb,(%esp)
   103fb:	e8 66 0c 00 00       	call   11066 <Print>
   10400:	8b 53 38             	mov    0x38(%ebx),%edx
   10403:	b8 ca ef 01 00       	mov    $0x1efca,%eax
   10408:	e8 fe fd ff ff       	call   1020b <Print_Selector>
   1040d:	8b 53 0c             	mov    0xc(%ebx),%edx
   10410:	b8 cd ef 01 00       	mov    $0x1efcd,%eax
   10415:	e8 f1 fd ff ff       	call   1020b <Print_Selector>
   1041a:	8b 53 08             	mov    0x8(%ebx),%edx
   1041d:	b8 d0 ef 01 00       	mov    $0x1efd0,%eax
   10422:	e8 e4 fd ff ff       	call   1020b <Print_Selector>
   10427:	8b 53 04             	mov    0x4(%ebx),%edx
   1042a:	b8 d3 ef 01 00       	mov    $0x1efd3,%eax
   1042f:	e8 d7 fd ff ff       	call   1020b <Print_Selector>
   10434:	8b 13                	mov    (%ebx),%edx
   10436:	b8 d6 ef 01 00       	mov    $0x1efd6,%eax
   1043b:	e8 cb fd ff ff       	call   1020b <Print_Selector>
   10440:	83 c4 50             	add    $0x50,%esp
   10443:	5b                   	pop    %ebx
   10444:	5e                   	pop    %esi
   10445:	5d                   	pop    %ebp
   10446:	c3                   	ret    

00010447 <Dummy_Interrupt_Handler>:
   10447:	55                   	push   %ebp
   10448:	89 e5                	mov    %esp,%ebp
   1044a:	83 ec 18             	sub    $0x18,%esp
   1044d:	c7 04 24 7c f0 01 00 	movl   $0x1f07c,(%esp)
   10454:	e8 0d 0c 00 00       	call   11066 <Print>
   10459:	8b 45 08             	mov    0x8(%ebp),%eax
   1045c:	89 04 24             	mov    %eax,(%esp)
   1045f:	e8 74 fe ff ff       	call   102d8 <Dump_Interrupt_State>
   10464:	eb fe                	jmp    10464 <Dummy_Interrupt_Handler+0x1d>

00010466 <Syscall_Handler>:
   10466:	55                   	push   %ebp
   10467:	89 e5                	mov    %esp,%ebp
   10469:	53                   	push   %ebx
   1046a:	83 ec 14             	sub    $0x14,%esp
   1046d:	8b 5d 08             	mov    0x8(%ebp),%ebx
   10470:	8b 43 28             	mov    0x28(%ebx),%eax
   10473:	3b 05 14 05 02 00    	cmp    0x20514,%eax
   10479:	72 29                	jb     104a4 <Syscall_Handler+0x3e>
   1047b:	8b 15 6c 5e 02 00    	mov    0x25e6c,%edx
   10481:	8b 52 34             	mov    0x34(%edx),%edx
   10484:	89 54 24 08          	mov    %edx,0x8(%esp)
   10488:	89 44 24 04          	mov    %eax,0x4(%esp)
   1048c:	c7 04 24 ac f0 01 00 	movl   $0x1f0ac,(%esp)
   10493:	e8 ce 0b 00 00       	call   11066 <Print>
   10498:	c7 04 24 ff ff ff ff 	movl   $0xffffffff,(%esp)
   1049f:	e8 5a 62 00 00       	call   166fe <Exit>
   104a4:	89 1c 24             	mov    %ebx,(%esp)
   104a7:	ff 14 85 20 05 02 00 	call   *0x20520(,%eax,4)
   104ae:	89 43 28             	mov    %eax,0x28(%ebx)
   104b1:	83 c4 14             	add    $0x14,%esp
   104b4:	5b                   	pop    %ebx
   104b5:	5d                   	pop    %ebp
   104b6:	c3                   	ret    

000104b7 <GPF_Handler>:
   104b7:	55                   	push   %ebp
   104b8:	89 e5                	mov    %esp,%ebp
   104ba:	53                   	push   %ebx
   104bb:	83 ec 14             	sub    $0x14,%esp
   104be:	8b 5d 08             	mov    0x8(%ebp),%ebx
   104c1:	a1 6c 5e 02 00       	mov    0x25e6c,%eax
   104c6:	89 44 24 08          	mov    %eax,0x8(%esp)
   104ca:	8b 43 2c             	mov    0x2c(%ebx),%eax
   104cd:	89 44 24 04          	mov    %eax,0x4(%esp)
   104d1:	c7 04 24 d4 f0 01 00 	movl   $0x1f0d4,(%esp)
   104d8:	e8 89 0b 00 00       	call   11066 <Print>
   104dd:	89 1c 24             	mov    %ebx,(%esp)
   104e0:	e8 f3 fd ff ff       	call   102d8 <Dump_Interrupt_State>
   104e5:	c7 04 24 ff ff ff ff 	movl   $0xffffffff,(%esp)
   104ec:	e8 0d 62 00 00       	call   166fe <Exit>

000104f1 <Init_Traps>:
   104f1:	55                   	push   %ebp
   104f2:	89 e5                	mov    %esp,%ebp
   104f4:	83 ec 18             	sub    $0x18,%esp
   104f7:	c7 44 24 04 b7 04 01 	movl   $0x104b7,0x4(%esp)
   104fe:	00 
   104ff:	c7 04 24 0c 00 00 00 	movl   $0xc,(%esp)
   10506:	e8 9a fc ff ff       	call   101a5 <Install_Interrupt_Handler>
   1050b:	c7 44 24 04 b7 04 01 	movl   $0x104b7,0x4(%esp)
   10512:	00 
   10513:	c7 04 24 0d 00 00 00 	movl   $0xd,(%esp)
   1051a:	e8 86 fc ff ff       	call   101a5 <Install_Interrupt_Handler>
   1051f:	c7 44 24 04 66 04 01 	movl   $0x10466,0x4(%esp)
   10526:	00 
   10527:	c7 04 24 90 00 00 00 	movl   $0x90,(%esp)
   1052e:	e8 72 fc ff ff       	call   101a5 <Install_Interrupt_Handler>
   10533:	c9                   	leave  
   10534:	c3                   	ret    
   10535:	66 90                	xchg   %ax,%ax
   10537:	66 90                	xchg   %ax,%ax
   10539:	66 90                	xchg   %ax,%ax
   1053b:	66 90                	xchg   %ax,%ax
   1053d:	66 90                	xchg   %ax,%ax
   1053f:	90                   	nop

00010540 <Install_IRQ>:
   10540:	55                   	push   %ebp
   10541:	89 e5                	mov    %esp,%ebp
   10543:	83 ec 18             	sub    $0x18,%esp
   10546:	8b 45 0c             	mov    0xc(%ebp),%eax
   10549:	89 44 24 04          	mov    %eax,0x4(%esp)
   1054d:	8b 45 08             	mov    0x8(%ebp),%eax
   10550:	83 c0 20             	add    $0x20,%eax
   10553:	89 04 24             	mov    %eax,(%esp)
   10556:	e8 4a fc ff ff       	call   101a5 <Install_Interrupt_Handler>
   1055b:	c9                   	leave  
   1055c:	c3                   	ret    

0001055d <Get_IRQ_Mask>:
   1055d:	55                   	push   %ebp
   1055e:	89 e5                	mov    %esp,%ebp
   10560:	0f b7 05 00 40 02 00 	movzwl 0x24000,%eax
   10567:	5d                   	pop    %ebp
   10568:	c3                   	ret    

00010569 <Set_IRQ_Mask>:
   10569:	55                   	push   %ebp
   1056a:	89 e5                	mov    %esp,%ebp
   1056c:	53                   	push   %ebx
   1056d:	83 ec 14             	sub    $0x14,%esp
   10570:	8b 5d 08             	mov    0x8(%ebp),%ebx
   10573:	38 1d 00 40 02 00    	cmp    %bl,0x24000
   10579:	74 13                	je     1058e <Set_IRQ_Mask+0x25>
   1057b:	0f b6 c3             	movzbl %bl,%eax
   1057e:	89 44 24 04          	mov    %eax,0x4(%esp)
   10582:	c7 04 24 21 00 00 00 	movl   $0x21,(%esp)
   10589:	e8 a5 03 00 00       	call   10933 <Out_Byte>
   1058e:	89 d8                	mov    %ebx,%eax
   10590:	66 c1 e8 08          	shr    $0x8,%ax
   10594:	3a 05 01 40 02 00    	cmp    0x24001,%al
   1059a:	74 13                	je     105af <Set_IRQ_Mask+0x46>
   1059c:	0f b6 c0             	movzbl %al,%eax
   1059f:	89 44 24 04          	mov    %eax,0x4(%esp)
   105a3:	c7 04 24 a1 00 00 00 	movl   $0xa1,(%esp)
   105aa:	e8 84 03 00 00       	call   10933 <Out_Byte>
   105af:	66 89 1d 00 40 02 00 	mov    %bx,0x24000
   105b6:	83 c4 14             	add    $0x14,%esp
   105b9:	5b                   	pop    %ebx
   105ba:	5d                   	pop    %ebp
   105bb:	c3                   	ret    

000105bc <Enable_IRQ>:
   105bc:	55                   	push   %ebp
   105bd:	89 e5                	mov    %esp,%ebp
   105bf:	56                   	push   %esi
   105c0:	53                   	push   %ebx
   105c1:	83 ec 20             	sub    $0x20,%esp
   105c4:	8b 75 08             	mov    0x8(%ebp),%esi
   105c7:	e8 73 fc ff ff       	call   1023f <Interrupts_Enabled>
   105cc:	89 c3                	mov    %eax,%ebx
   105ce:	84 c0                	test   %al,%al
   105d0:	74 54                	je     10626 <Enable_IRQ+0x6a>
   105d2:	e8 68 fc ff ff       	call   1023f <Interrupts_Enabled>
   105d7:	84 c0                	test   %al,%al
   105d9:	75 4a                	jne    10625 <Enable_IRQ+0x69>
   105db:	c7 04 24 4f 00 00 00 	movl   $0x4f,(%esp)
   105e2:	e8 d4 0b 00 00       	call   111bb <Set_Current_Attr>
   105e7:	a1 6c 5e 02 00       	mov    0x25e6c,%eax
   105ec:	89 44 24 18          	mov    %eax,0x18(%esp)
   105f0:	8b 45 04             	mov    0x4(%ebp),%eax
   105f3:	89 44 24 14          	mov    %eax,0x14(%esp)
   105f7:	c7 44 24 10 8f 00 00 	movl   $0x8f,0x10(%esp)
   105fe:	00 
   105ff:	c7 44 24 0c fe f0 01 	movl   $0x1f0fe,0xc(%esp)
   10606:	00 
   10607:	c7 44 24 08 53 ef 01 	movl   $0x1ef53,0x8(%esp)
   1060e:	00 
   1060f:	c7 44 24 04 5a f1 01 	movl   $0x1f15a,0x4(%esp)
   10616:	00 
   10617:	c7 04 24 34 ee 01 00 	movl   $0x1ee34,(%esp)
   1061e:	e8 43 0a 00 00       	call   11066 <Print>
   10623:	eb fe                	jmp    10623 <Enable_IRQ+0x67>
   10625:	fa                   	cli    
   10626:	83 fe 0f             	cmp    $0xf,%esi
   10629:	76 4a                	jbe    10675 <Enable_IRQ+0xb9>
   1062b:	c7 04 24 4f 00 00 00 	movl   $0x4f,(%esp)
   10632:	e8 84 0b 00 00       	call   111bb <Set_Current_Attr>
   10637:	a1 6c 5e 02 00       	mov    0x25e6c,%eax
   1063c:	89 44 24 18          	mov    %eax,0x18(%esp)
   10640:	8b 45 04             	mov    0x4(%ebp),%eax
   10643:	89 44 24 14          	mov    %eax,0x14(%esp)
   10647:	c7 44 24 10 54 00 00 	movl   $0x54,0x10(%esp)
   1064e:	00 
   1064f:	c7 44 24 0c 16 f1 01 	movl   $0x1f116,0xc(%esp)
   10656:	00 
   10657:	c7 44 24 08 2a f1 01 	movl   $0x1f12a,0x8(%esp)
   1065e:	00 
   1065f:	c7 44 24 04 6b f1 01 	movl   $0x1f16b,0x4(%esp)
   10666:	00 
   10667:	c7 04 24 34 ee 01 00 	movl   $0x1ee34,(%esp)
   1066e:	e8 f3 09 00 00       	call   11066 <Print>
   10673:	eb fe                	jmp    10673 <Enable_IRQ+0xb7>
   10675:	b8 fe ff ff ff       	mov    $0xfffffffe,%eax
   1067a:	89 f1                	mov    %esi,%ecx
   1067c:	d3 c0                	rol    %cl,%eax
   1067e:	66 23 05 00 40 02 00 	and    0x24000,%ax
   10685:	0f b7 c0             	movzwl %ax,%eax
   10688:	89 04 24             	mov    %eax,(%esp)
   1068b:	e8 d9 fe ff ff       	call   10569 <Set_IRQ_Mask>
   10690:	e8 aa fb ff ff       	call   1023f <Interrupts_Enabled>
   10695:	84 c0                	test   %al,%al
   10697:	74 4a                	je     106e3 <Enable_IRQ+0x127>
   10699:	c7 04 24 4f 00 00 00 	movl   $0x4f,(%esp)
   106a0:	e8 16 0b 00 00       	call   111bb <Set_Current_Attr>
   106a5:	a1 6c 5e 02 00       	mov    0x25e6c,%eax
   106aa:	89 44 24 18          	mov    %eax,0x18(%esp)
   106ae:	8b 45 04             	mov    0x4(%ebp),%eax
   106b1:	89 44 24 14          	mov    %eax,0x14(%esp)
   106b5:	c7 44 24 10 99 00 00 	movl   $0x99,0x10(%esp)
   106bc:	00 
   106bd:	c7 44 24 0c fe f0 01 	movl   $0x1f0fe,0xc(%esp)
   106c4:	00 
   106c5:	c7 44 24 08 52 ef 01 	movl   $0x1ef52,0x8(%esp)
   106cc:	00 
   106cd:	c7 44 24 04 4b f1 01 	movl   $0x1f14b,0x4(%esp)
   106d4:	00 
   106d5:	c7 04 24 34 ee 01 00 	movl   $0x1ee34,(%esp)
   106dc:	e8 85 09 00 00       	call   11066 <Print>
   106e1:	eb fe                	jmp    106e1 <Enable_IRQ+0x125>
   106e3:	84 db                	test   %bl,%bl
   106e5:	74 5d                	je     10744 <Enable_IRQ+0x188>
   106e7:	89 f6                	mov    %esi,%esi
   106e9:	8d bc 27 00 00 00 00 	lea    0x0(%edi,%eiz,1),%edi
   106f0:	e8 4a fb ff ff       	call   1023f <Interrupts_Enabled>
   106f5:	84 c0                	test   %al,%al
   106f7:	74 4a                	je     10743 <Enable_IRQ+0x187>
   106f9:	c7 04 24 4f 00 00 00 	movl   $0x4f,(%esp)
   10700:	e8 b6 0a 00 00       	call   111bb <Set_Current_Attr>
   10705:	a1 6c 5e 02 00       	mov    0x25e6c,%eax
   1070a:	89 44 24 18          	mov    %eax,0x18(%esp)
   1070e:	8b 45 04             	mov    0x4(%ebp),%eax
   10711:	89 44 24 14          	mov    %eax,0x14(%esp)
   10715:	c7 44 24 10 9c 00 00 	movl   $0x9c,0x10(%esp)
   1071c:	00 
   1071d:	c7 44 24 0c fe f0 01 	movl   $0x1f0fe,0xc(%esp)
   10724:	00 
   10725:	c7 44 24 08 52 ef 01 	movl   $0x1ef52,0x8(%esp)
   1072c:	00 
   1072d:	c7 44 24 04 4b f1 01 	movl   $0x1f14b,0x4(%esp)
   10734:	00 
   10735:	c7 04 24 34 ee 01 00 	movl   $0x1ee34,(%esp)
   1073c:	e8 25 09 00 00       	call   11066 <Print>
   10741:	eb fe                	jmp    10741 <Enable_IRQ+0x185>
   10743:	fb                   	sti    
   10744:	83 c4 20             	add    $0x20,%esp
   10747:	5b                   	pop    %ebx
   10748:	5e                   	pop    %esi
   10749:	5d                   	pop    %ebp
   1074a:	c3                   	ret    

0001074b <Disable_IRQ>:
   1074b:	55                   	push   %ebp
   1074c:	89 e5                	mov    %esp,%ebp
   1074e:	56                   	push   %esi
   1074f:	53                   	push   %ebx
   10750:	83 ec 20             	sub    $0x20,%esp
   10753:	8b 75 08             	mov    0x8(%ebp),%esi
   10756:	e8 e4 fa ff ff       	call   1023f <Interrupts_Enabled>
   1075b:	89 c3                	mov    %eax,%ebx
   1075d:	84 c0                	test   %al,%al
   1075f:	74 54                	je     107b5 <Disable_IRQ+0x6a>
   10761:	e8 d9 fa ff ff       	call   1023f <Interrupts_Enabled>
   10766:	84 c0                	test   %al,%al
   10768:	75 4a                	jne    107b4 <Disable_IRQ+0x69>
   1076a:	c7 04 24 4f 00 00 00 	movl   $0x4f,(%esp)
   10771:	e8 45 0a 00 00       	call   111bb <Set_Current_Attr>
   10776:	a1 6c 5e 02 00       	mov    0x25e6c,%eax
   1077b:	89 44 24 18          	mov    %eax,0x18(%esp)
   1077f:	8b 45 04             	mov    0x4(%ebp),%eax
   10782:	89 44 24 14          	mov    %eax,0x14(%esp)
   10786:	c7 44 24 10 8f 00 00 	movl   $0x8f,0x10(%esp)
   1078d:	00 
   1078e:	c7 44 24 0c fe f0 01 	movl   $0x1f0fe,0xc(%esp)
   10795:	00 
   10796:	c7 44 24 08 53 ef 01 	movl   $0x1ef53,0x8(%esp)
   1079d:	00 
   1079e:	c7 44 24 04 5a f1 01 	movl   $0x1f15a,0x4(%esp)
   107a5:	00 
   107a6:	c7 04 24 34 ee 01 00 	movl   $0x1ee34,(%esp)
   107ad:	e8 b4 08 00 00       	call   11066 <Print>
   107b2:	eb fe                	jmp    107b2 <Disable_IRQ+0x67>
   107b4:	fa                   	cli    
   107b5:	83 fe 0f             	cmp    $0xf,%esi
   107b8:	76 4a                	jbe    10804 <Disable_IRQ+0xb9>
   107ba:	c7 04 24 4f 00 00 00 	movl   $0x4f,(%esp)
   107c1:	e8 f5 09 00 00       	call   111bb <Set_Current_Attr>
   107c6:	a1 6c 5e 02 00       	mov    0x25e6c,%eax
   107cb:	89 44 24 18          	mov    %eax,0x18(%esp)
   107cf:	8b 45 04             	mov    0x4(%ebp),%eax
   107d2:	89 44 24 14          	mov    %eax,0x14(%esp)
   107d6:	c7 44 24 10 63 00 00 	movl   $0x63,0x10(%esp)
   107dd:	00 
   107de:	c7 44 24 0c 16 f1 01 	movl   $0x1f116,0xc(%esp)
   107e5:	00 
   107e6:	c7 44 24 08 2a f1 01 	movl   $0x1f12a,0x8(%esp)
   107ed:	00 
   107ee:	c7 44 24 04 3f f1 01 	movl   $0x1f13f,0x4(%esp)
   107f5:	00 
   107f6:	c7 04 24 34 ee 01 00 	movl   $0x1ee34,(%esp)
   107fd:	e8 64 08 00 00       	call   11066 <Print>
   10802:	eb fe                	jmp    10802 <Disable_IRQ+0xb7>
   10804:	b8 01 00 00 00       	mov    $0x1,%eax
   10809:	89 f1                	mov    %esi,%ecx
   1080b:	d3 e0                	shl    %cl,%eax
   1080d:	66 0b 05 00 40 02 00 	or     0x24000,%ax
   10814:	0f b7 c0             	movzwl %ax,%eax
   10817:	89 04 24             	mov    %eax,(%esp)
   1081a:	e8 4a fd ff ff       	call   10569 <Set_IRQ_Mask>
   1081f:	e8 1b fa ff ff       	call   1023f <Interrupts_Enabled>
   10824:	84 c0                	test   %al,%al
   10826:	74 4a                	je     10872 <Disable_IRQ+0x127>
   10828:	c7 04 24 4f 00 00 00 	movl   $0x4f,(%esp)
   1082f:	e8 87 09 00 00       	call   111bb <Set_Current_Attr>
   10834:	a1 6c 5e 02 00       	mov    0x25e6c,%eax
   10839:	89 44 24 18          	mov    %eax,0x18(%esp)
   1083d:	8b 45 04             	mov    0x4(%ebp),%eax
   10840:	89 44 24 14          	mov    %eax,0x14(%esp)
   10844:	c7 44 24 10 99 00 00 	movl   $0x99,0x10(%esp)
   1084b:	00 
   1084c:	c7 44 24 0c fe f0 01 	movl   $0x1f0fe,0xc(%esp)
   10853:	00 
   10854:	c7 44 24 08 52 ef 01 	movl   $0x1ef52,0x8(%esp)
   1085b:	00 
   1085c:	c7 44 24 04 4b f1 01 	movl   $0x1f14b,0x4(%esp)
   10863:	00 
   10864:	c7 04 24 34 ee 01 00 	movl   $0x1ee34,(%esp)
   1086b:	e8 f6 07 00 00       	call   11066 <Print>
   10870:	eb fe                	jmp    10870 <Disable_IRQ+0x125>
   10872:	84 db                	test   %bl,%bl
   10874:	74 57                	je     108cd <Disable_IRQ+0x182>
   10876:	e8 c4 f9 ff ff       	call   1023f <Interrupts_Enabled>
   1087b:	84 c0                	test   %al,%al
   1087d:	8d 76 00             	lea    0x0(%esi),%esi
   10880:	74 4a                	je     108cc <Disable_IRQ+0x181>
   10882:	c7 04 24 4f 00 00 00 	movl   $0x4f,(%esp)
   10889:	e8 2d 09 00 00       	call   111bb <Set_Current_Attr>
   1088e:	a1 6c 5e 02 00       	mov    0x25e6c,%eax
   10893:	89 44 24 18          	mov    %eax,0x18(%esp)
   10897:	8b 45 04             	mov    0x4(%ebp),%eax
   1089a:	89 44 24 14          	mov    %eax,0x14(%esp)
   1089e:	c7 44 24 10 9c 00 00 	movl   $0x9c,0x10(%esp)
   108a5:	00 
   108a6:	c7 44 24 0c fe f0 01 	movl   $0x1f0fe,0xc(%esp)
   108ad:	00 
   108ae:	c7 44 24 08 52 ef 01 	movl   $0x1ef52,0x8(%esp)
   108b5:	00 
   108b6:	c7 44 24 04 4b f1 01 	movl   $0x1f14b,0x4(%esp)
   108bd:	00 
   108be:	c7 04 24 34 ee 01 00 	movl   $0x1ee34,(%esp)
   108c5:	e8 9c 07 00 00       	call   11066 <Print>
   108ca:	eb fe                	jmp    108ca <Disable_IRQ+0x17f>
   108cc:	fb                   	sti    
   108cd:	83 c4 20             	add    $0x20,%esp
   108d0:	5b                   	pop    %ebx
   108d1:	5e                   	pop    %esi
   108d2:	5d                   	pop    %ebp
   108d3:	c3                   	ret    

000108d4 <Begin_IRQ>:
   108d4:	55                   	push   %ebp
   108d5:	89 e5                	mov    %esp,%ebp
   108d7:	5d                   	pop    %ebp
   108d8:	c3                   	ret    

000108d9 <End_IRQ>:
   108d9:	55                   	push   %ebp
   108da:	89 e5                	mov    %esp,%ebp
   108dc:	83 ec 18             	sub    $0x18,%esp
   108df:	8b 45 08             	mov    0x8(%ebp),%eax
   108e2:	8b 40 2c             	mov    0x2c(%eax),%eax
   108e5:	83 e8 20             	sub    $0x20,%eax
   108e8:	89 c2                	mov    %eax,%edx
   108ea:	83 e2 07             	and    $0x7,%edx
   108ed:	83 ca 60             	or     $0x60,%edx
   108f0:	83 f8 07             	cmp    $0x7,%eax
   108f3:	7f 15                	jg     1090a <End_IRQ+0x31>
   108f5:	0f b6 d2             	movzbl %dl,%edx
   108f8:	89 54 24 04          	mov    %edx,0x4(%esp)
   108fc:	c7 04 24 20 00 00 00 	movl   $0x20,(%esp)
   10903:	e8 2b 00 00 00       	call   10933 <Out_Byte>
   10908:	eb 27                	jmp    10931 <End_IRQ+0x58>
   1090a:	0f b6 d2             	movzbl %dl,%edx
   1090d:	89 54 24 04          	mov    %edx,0x4(%esp)
   10911:	c7 04 24 a0 00 00 00 	movl   $0xa0,(%esp)
   10918:	e8 16 00 00 00       	call   10933 <Out_Byte>
   1091d:	c7 44 24 04 62 00 00 	movl   $0x62,0x4(%esp)
   10924:	00 
   10925:	c7 04 24 20 00 00 00 	movl   $0x20,(%esp)
   1092c:	e8 02 00 00 00       	call   10933 <Out_Byte>
   10931:	c9                   	leave  
   10932:	c3                   	ret    

00010933 <Out_Byte>:
   10933:	55                   	push   %ebp
   10934:	89 e5                	mov    %esp,%ebp
   10936:	8b 45 0c             	mov    0xc(%ebp),%eax
   10939:	8b 55 08             	mov    0x8(%ebp),%edx
   1093c:	ee                   	out    %al,(%dx)
   1093d:	5d                   	pop    %ebp
   1093e:	c3                   	ret    

0001093f <In_Byte>:
   1093f:	55                   	push   %ebp
   10940:	89 e5                	mov    %esp,%ebp
   10942:	8b 55 08             	mov    0x8(%ebp),%edx
   10945:	ec                   	in     (%dx),%al
   10946:	5d                   	pop    %ebp
   10947:	c3                   	ret    

00010948 <Out_Word>:
   10948:	55                   	push   %ebp
   10949:	89 e5                	mov    %esp,%ebp
   1094b:	8b 45 0c             	mov    0xc(%ebp),%eax
   1094e:	8b 55 08             	mov    0x8(%ebp),%edx
   10951:	66 ef                	out    %ax,(%dx)
   10953:	5d                   	pop    %ebp
   10954:	c3                   	ret    

00010955 <In_Word>:
   10955:	55                   	push   %ebp
   10956:	89 e5                	mov    %esp,%ebp
   10958:	8b 55 08             	mov    0x8(%ebp),%edx
   1095b:	66 ed                	in     (%dx),%ax
   1095d:	5d                   	pop    %ebp
   1095e:	c3                   	ret    

0001095f <IO_Delay>:
   1095f:	55                   	push   %ebp
   10960:	89 e5                	mov    %esp,%ebp
   10962:	b8 00 00 00 00       	mov    $0x0,%eax
   10967:	e6 80                	out    %al,$0x80
   10969:	5d                   	pop    %ebp
   1096a:	c3                   	ret    
   1096b:	66 90                	xchg   %ax,%ax
   1096d:	66 90                	xchg   %ax,%ax
   1096f:	90                   	nop

00010970 <Keyboard_Interrupt_Handler>:
   10970:	55                   	push   %ebp
   10971:	89 e5                	mov    %esp,%ebp
   10973:	57                   	push   %edi
   10974:	56                   	push   %esi
   10975:	53                   	push   %ebx
   10976:	83 ec 1c             	sub    $0x1c,%esp
   10979:	8b 5d 08             	mov    0x8(%ebp),%ebx
   1097c:	89 1c 24             	mov    %ebx,(%esp)
   1097f:	e8 50 ff ff ff       	call   108d4 <Begin_IRQ>
   10984:	c7 04 24 64 00 00 00 	movl   $0x64,(%esp)
   1098b:	e8 af ff ff ff       	call   1093f <In_Byte>
   10990:	89 c6                	mov    %eax,%esi
   10992:	e8 c8 ff ff ff       	call   1095f <IO_Delay>
   10997:	f7 c6 01 00 00 00    	test   $0x1,%esi
   1099d:	0f 84 3c 01 00 00    	je     10adf <Keyboard_Interrupt_Handler+0x16f>
   109a3:	c7 04 24 60 00 00 00 	movl   $0x60,(%esp)
   109aa:	e8 90 ff ff ff       	call   1093f <In_Byte>
   109af:	89 c6                	mov    %eax,%esi
   109b1:	e8 a9 ff ff ff       	call   1095f <IO_Delay>
   109b6:	c6 45 e7 00          	movb   $0x0,-0x19(%ebp)
   109ba:	89 f0                	mov    %esi,%eax
   109bc:	84 c0                	test   %al,%al
   109be:	79 07                	jns    109c7 <Keyboard_Interrupt_Handler+0x57>
   109c0:	83 e6 7f             	and    $0x7f,%esi
   109c3:	c6 45 e7 01          	movb   $0x1,-0x19(%ebp)
   109c7:	89 f0                	mov    %esi,%eax
   109c9:	3c 57                	cmp    $0x57,%al
   109cb:	76 18                	jbe    109e5 <Keyboard_Interrupt_Handler+0x75>
   109cd:	0f b6 f0             	movzbl %al,%esi
   109d0:	89 74 24 04          	mov    %esi,0x4(%esp)
   109d4:	c7 04 24 76 f1 01 00 	movl   $0x1f176,(%esp)
   109db:	e8 86 06 00 00       	call   11066 <Print>
   109e0:	e9 fa 00 00 00       	jmp    10adf <Keyboard_Interrupt_Handler+0x16f>
   109e5:	8b 15 60 4b 02 00    	mov    0x24b60,%edx
   109eb:	f6 c2 03             	test   $0x3,%dl
   109ee:	0f 95 c0             	setne  %al
   109f1:	89 c7                	mov    %eax,%edi
   109f3:	74 0f                	je     10a04 <Keyboard_Interrupt_Handler+0x94>
   109f5:	89 f0                	mov    %esi,%eax
   109f7:	0f b6 f0             	movzbl %al,%esi
   109fa:	0f b7 84 36 40 f2 01 	movzwl 0x1f240(%esi,%esi,1),%eax
   10a01:	00 
   10a02:	eb 0d                	jmp    10a11 <Keyboard_Interrupt_Handler+0xa1>
   10a04:	89 f0                	mov    %esi,%eax
   10a06:	0f b6 f0             	movzbl %al,%esi
   10a09:	0f b7 84 36 00 f3 01 	movzwl 0x1f300(%esi,%esi,1),%eax
   10a10:	00 
   10a11:	8d b0 f3 fe ff ff    	lea    -0x10d(%eax),%esi
   10a17:	66 83 fe 05          	cmp    $0x5,%si
   10a1b:	77 4e                	ja     10a6b <Keyboard_Interrupt_Handler+0xfb>
   10a1d:	0f b7 f6             	movzwl %si,%esi
   10a20:	ff 24 b5 e0 f1 01 00 	jmp    *0x1f1e0(,%esi,4)
   10a27:	b8 01 00 00 00       	mov    $0x1,%eax
   10a2c:	eb 21                	jmp    10a4f <Keyboard_Interrupt_Handler+0xdf>
   10a2e:	b8 04 00 00 00       	mov    $0x4,%eax
   10a33:	eb 1a                	jmp    10a4f <Keyboard_Interrupt_Handler+0xdf>
   10a35:	b8 08 00 00 00       	mov    $0x8,%eax
   10a3a:	eb 13                	jmp    10a4f <Keyboard_Interrupt_Handler+0xdf>
   10a3c:	b8 10 00 00 00       	mov    $0x10,%eax
   10a41:	eb 0c                	jmp    10a4f <Keyboard_Interrupt_Handler+0xdf>
   10a43:	b8 20 00 00 00       	mov    $0x20,%eax
   10a48:	eb 05                	jmp    10a4f <Keyboard_Interrupt_Handler+0xdf>
   10a4a:	b8 02 00 00 00       	mov    $0x2,%eax
   10a4f:	80 7d e7 00          	cmpb   $0x0,-0x19(%ebp)
   10a53:	74 0c                	je     10a61 <Keyboard_Interrupt_Handler+0xf1>
   10a55:	f7 d0                	not    %eax
   10a57:	21 c2                	and    %eax,%edx
   10a59:	89 15 60 4b 02 00    	mov    %edx,0x24b60
   10a5f:	eb 7e                	jmp    10adf <Keyboard_Interrupt_Handler+0x16f>
   10a61:	09 c2                	or     %eax,%edx
   10a63:	89 15 60 4b 02 00    	mov    %edx,0x24b60
   10a69:	eb 74                	jmp    10adf <Keyboard_Interrupt_Handler+0x16f>
   10a6b:	89 c6                	mov    %eax,%esi
   10a6d:	66 81 ce 00 10       	or     $0x1000,%si
   10a72:	89 f9                	mov    %edi,%ecx
   10a74:	84 c9                	test   %cl,%cl
   10a76:	0f 45 c6             	cmovne %esi,%eax
   10a79:	89 d7                	mov    %edx,%edi
   10a7b:	83 e7 0c             	and    $0xc,%edi
   10a7e:	89 c6                	mov    %eax,%esi
   10a80:	66 81 ce 00 40       	or     $0x4000,%si
   10a85:	85 ff                	test   %edi,%edi
   10a87:	0f 45 c6             	cmovne %esi,%eax
   10a8a:	83 e2 30             	and    $0x30,%edx
   10a8d:	89 c6                	mov    %eax,%esi
   10a8f:	66 81 ce 00 20       	or     $0x2000,%si
   10a94:	85 d2                	test   %edx,%edx
   10a96:	0f 45 c6             	cmovne %esi,%eax
   10a99:	89 c2                	mov    %eax,%edx
   10a9b:	66 81 ca 00 80       	or     $0x8000,%dx
   10aa0:	80 7d e7 00          	cmpb   $0x0,-0x19(%ebp)
   10aa4:	0f 45 c2             	cmovne %edx,%eax
   10aa7:	8b 0d 48 49 02 00    	mov    0x24948,%ecx
   10aad:	8d 51 01             	lea    0x1(%ecx),%edx
   10ab0:	0f b6 d2             	movzbl %dl,%edx
   10ab3:	3b 15 4c 49 02 00    	cmp    0x2494c,%edx
   10ab9:	74 0e                	je     10ac9 <Keyboard_Interrupt_Handler+0x159>
   10abb:	66 89 84 09 60 49 02 	mov    %ax,0x24960(%ecx,%ecx,1)
   10ac2:	00 
   10ac3:	89 15 48 49 02 00    	mov    %edx,0x24948
   10ac9:	c7 04 24 40 49 02 00 	movl   $0x24940,(%esp)
   10ad0:	e8 50 58 00 00       	call   16325 <Wake_Up>
   10ad5:	c7 05 70 5e 02 00 01 	movl   $0x1,0x25e70
   10adc:	00 00 00 
   10adf:	89 1c 24             	mov    %ebx,(%esp)
   10ae2:	e8 f2 fd ff ff       	call   108d9 <End_IRQ>
   10ae7:	83 c4 1c             	add    $0x1c,%esp
   10aea:	5b                   	pop    %ebx
   10aeb:	5e                   	pop    %esi
   10aec:	5f                   	pop    %edi
   10aed:	5d                   	pop    %ebp
   10aee:	c3                   	ret    

00010aef <Init_Keyboard>:
   10aef:	55                   	push   %ebp
   10af0:	89 e5                	mov    %esp,%ebp
   10af2:	83 ec 18             	sub    $0x18,%esp
   10af5:	c7 04 24 8d f1 01 00 	movl   $0x1f18d,(%esp)
   10afc:	e8 65 05 00 00       	call   11066 <Print>
   10b01:	c7 05 60 4b 02 00 00 	movl   $0x0,0x24b60
   10b08:	00 00 00 
   10b0b:	c7 05 48 49 02 00 00 	movl   $0x0,0x24948
   10b12:	00 00 00 
   10b15:	c7 05 4c 49 02 00 00 	movl   $0x0,0x2494c
   10b1c:	00 00 00 
   10b1f:	c7 44 24 04 70 09 01 	movl   $0x10970,0x4(%esp)
   10b26:	00 
   10b27:	c7 04 24 01 00 00 00 	movl   $0x1,(%esp)
   10b2e:	e8 0d fa ff ff       	call   10540 <Install_IRQ>
   10b33:	e8 25 fa ff ff       	call   1055d <Get_IRQ_Mask>
   10b38:	25 fd ff 00 00       	and    $0xfffd,%eax
   10b3d:	89 04 24             	mov    %eax,(%esp)
   10b40:	e8 24 fa ff ff       	call   10569 <Set_IRQ_Mask>
   10b45:	c9                   	leave  
   10b46:	c3                   	ret    

00010b47 <Read_Key>:
   10b47:	55                   	push   %ebp
   10b48:	89 e5                	mov    %esp,%ebp
   10b4a:	56                   	push   %esi
   10b4b:	53                   	push   %ebx
   10b4c:	83 ec 20             	sub    $0x20,%esp
   10b4f:	e8 eb f6 ff ff       	call   1023f <Interrupts_Enabled>
   10b54:	89 c3                	mov    %eax,%ebx
   10b56:	84 c0                	test   %al,%al
   10b58:	74 54                	je     10bae <Read_Key+0x67>
   10b5a:	e8 e0 f6 ff ff       	call   1023f <Interrupts_Enabled>
   10b5f:	84 c0                	test   %al,%al
   10b61:	75 4a                	jne    10bad <Read_Key+0x66>
   10b63:	c7 04 24 4f 00 00 00 	movl   $0x4f,(%esp)
   10b6a:	e8 4c 06 00 00       	call   111bb <Set_Current_Attr>
   10b6f:	a1 6c 5e 02 00       	mov    0x25e6c,%eax
   10b74:	89 44 24 18          	mov    %eax,0x18(%esp)
   10b78:	8b 45 04             	mov    0x4(%ebp),%eax
   10b7b:	89 44 24 14          	mov    %eax,0x14(%esp)
   10b7f:	c7 44 24 10 8f 00 00 	movl   $0x8f,0x10(%esp)
   10b86:	00 
   10b87:	c7 44 24 0c fe f0 01 	movl   $0x1f0fe,0xc(%esp)
   10b8e:	00 
   10b8f:	c7 44 24 08 53 ef 01 	movl   $0x1ef53,0x8(%esp)
   10b96:	00 
   10b97:	c7 44 24 04 17 f2 01 	movl   $0x1f217,0x4(%esp)
   10b9e:	00 
   10b9f:	c7 04 24 34 ee 01 00 	movl   $0x1ee34,(%esp)
   10ba6:	e8 bb 04 00 00       	call   11066 <Print>
   10bab:	eb fe                	jmp    10bab <Read_Key+0x64>
   10bad:	fa                   	cli    
   10bae:	8b 15 4c 49 02 00    	mov    0x2494c,%edx
   10bb4:	a1 48 49 02 00       	mov    0x24948,%eax
   10bb9:	39 c2                	cmp    %eax,%edx
   10bbb:	0f 95 c1             	setne  %cl
   10bbe:	89 ce                	mov    %ecx,%esi
   10bc0:	74 67                	je     10c29 <Read_Key+0xe2>
   10bc2:	75 4a                	jne    10c0e <Read_Key+0xc7>
   10bc4:	c7 04 24 4f 00 00 00 	movl   $0x4f,(%esp)
   10bcb:	e8 eb 05 00 00       	call   111bb <Set_Current_Attr>
   10bd0:	a1 6c 5e 02 00       	mov    0x25e6c,%eax
   10bd5:	89 44 24 18          	mov    %eax,0x18(%esp)
   10bd9:	8b 45 04             	mov    0x4(%ebp),%eax
   10bdc:	89 44 24 14          	mov    %eax,0x14(%esp)
   10be0:	c7 44 24 10 97 00 00 	movl   $0x97,0x10(%esp)
   10be7:	00 
   10be8:	c7 44 24 0c a7 f1 01 	movl   $0x1f1a7,0xc(%esp)
   10bef:	00 
   10bf0:	c7 44 24 08 c0 f1 01 	movl   $0x1f1c0,0x8(%esp)
   10bf7:	00 
   10bf8:	c7 44 24 04 07 f2 01 	movl   $0x1f207,0x4(%esp)
   10bff:	00 
   10c00:	c7 04 24 34 ee 01 00 	movl   $0x1ee34,(%esp)
   10c07:	e8 5a 04 00 00       	call   11066 <Print>
   10c0c:	eb fe                	jmp    10c0c <Read_Key+0xc5>
   10c0e:	0f b7 8c 12 60 49 02 	movzwl 0x24960(%edx,%edx,1),%ecx
   10c15:	00 
   10c16:	8d 42 01             	lea    0x1(%edx),%eax
   10c19:	25 ff 00 00 00       	and    $0xff,%eax
   10c1e:	a3 4c 49 02 00       	mov    %eax,0x2494c
   10c23:	8b 45 08             	mov    0x8(%ebp),%eax
   10c26:	66 89 08             	mov    %cx,(%eax)
   10c29:	e8 11 f6 ff ff       	call   1023f <Interrupts_Enabled>
   10c2e:	84 c0                	test   %al,%al
   10c30:	74 4a                	je     10c7c <Read_Key+0x135>
   10c32:	c7 04 24 4f 00 00 00 	movl   $0x4f,(%esp)
   10c39:	e8 7d 05 00 00       	call   111bb <Set_Current_Attr>
   10c3e:	a1 6c 5e 02 00       	mov    0x25e6c,%eax
   10c43:	89 44 24 18          	mov    %eax,0x18(%esp)
   10c47:	8b 45 04             	mov    0x4(%ebp),%eax
   10c4a:	89 44 24 14          	mov    %eax,0x14(%esp)
   10c4e:	c7 44 24 10 99 00 00 	movl   $0x99,0x10(%esp)
   10c55:	00 
   10c56:	c7 44 24 0c fe f0 01 	movl   $0x1f0fe,0xc(%esp)
   10c5d:	00 
   10c5e:	c7 44 24 08 52 ef 01 	movl   $0x1ef52,0x8(%esp)
   10c65:	00 
   10c66:	c7 44 24 04 f8 f1 01 	movl   $0x1f1f8,0x4(%esp)
   10c6d:	00 
   10c6e:	c7 04 24 34 ee 01 00 	movl   $0x1ee34,(%esp)
   10c75:	e8 ec 03 00 00       	call   11066 <Print>
   10c7a:	eb fe                	jmp    10c7a <Read_Key+0x133>
   10c7c:	84 db                	test   %bl,%bl
   10c7e:	74 54                	je     10cd4 <Read_Key+0x18d>
   10c80:	e8 ba f5 ff ff       	call   1023f <Interrupts_Enabled>
   10c85:	84 c0                	test   %al,%al
   10c87:	74 4a                	je     10cd3 <Read_Key+0x18c>
   10c89:	c7 04 24 4f 00 00 00 	movl   $0x4f,(%esp)
   10c90:	e8 26 05 00 00       	call   111bb <Set_Current_Attr>
   10c95:	a1 6c 5e 02 00       	mov    0x25e6c,%eax
   10c9a:	89 44 24 18          	mov    %eax,0x18(%esp)
   10c9e:	8b 45 04             	mov    0x4(%ebp),%eax
   10ca1:	89 44 24 14          	mov    %eax,0x14(%esp)
   10ca5:	c7 44 24 10 9c 00 00 	movl   $0x9c,0x10(%esp)
   10cac:	00 
   10cad:	c7 44 24 0c fe f0 01 	movl   $0x1f0fe,0xc(%esp)
   10cb4:	00 
   10cb5:	c7 44 24 08 52 ef 01 	movl   $0x1ef52,0x8(%esp)
   10cbc:	00 
   10cbd:	c7 44 24 04 f8 f1 01 	movl   $0x1f1f8,0x4(%esp)
   10cc4:	00 
   10cc5:	c7 04 24 34 ee 01 00 	movl   $0x1ee34,(%esp)
   10ccc:	e8 95 03 00 00       	call   11066 <Print>
   10cd1:	eb fe                	jmp    10cd1 <Read_Key+0x18a>
   10cd3:	fb                   	sti    
   10cd4:	89 f0                	mov    %esi,%eax
   10cd6:	83 c4 20             	add    $0x20,%esp
   10cd9:	5b                   	pop    %ebx
   10cda:	5e                   	pop    %esi
   10cdb:	5d                   	pop    %ebp
   10cdc:	c3                   	ret    

00010cdd <Wait_For_Key>:
   10cdd:	55                   	push   %ebp
   10cde:	89 e5                	mov    %esp,%ebp
   10ce0:	56                   	push   %esi
   10ce1:	53                   	push   %ebx
   10ce2:	83 ec 20             	sub    $0x20,%esp
   10ce5:	e8 55 f5 ff ff       	call   1023f <Interrupts_Enabled>
   10cea:	89 c3                	mov    %eax,%ebx
   10cec:	84 c0                	test   %al,%al
   10cee:	74 54                	je     10d44 <Wait_For_Key+0x67>
   10cf0:	e8 4a f5 ff ff       	call   1023f <Interrupts_Enabled>
   10cf5:	84 c0                	test   %al,%al
   10cf7:	75 4a                	jne    10d43 <Wait_For_Key+0x66>
   10cf9:	c7 04 24 4f 00 00 00 	movl   $0x4f,(%esp)
   10d00:	e8 b6 04 00 00       	call   111bb <Set_Current_Attr>
   10d05:	a1 6c 5e 02 00       	mov    0x25e6c,%eax
   10d0a:	89 44 24 18          	mov    %eax,0x18(%esp)
   10d0e:	8b 45 04             	mov    0x4(%ebp),%eax
   10d11:	89 44 24 14          	mov    %eax,0x14(%esp)
   10d15:	c7 44 24 10 8f 00 00 	movl   $0x8f,0x10(%esp)
   10d1c:	00 
   10d1d:	c7 44 24 0c fe f0 01 	movl   $0x1f0fe,0xc(%esp)
   10d24:	00 
   10d25:	c7 44 24 08 53 ef 01 	movl   $0x1ef53,0x8(%esp)
   10d2c:	00 
   10d2d:	c7 44 24 04 17 f2 01 	movl   $0x1f217,0x4(%esp)
   10d34:	00 
   10d35:	c7 04 24 34 ee 01 00 	movl   $0x1ee34,(%esp)
   10d3c:	e8 25 03 00 00       	call   11066 <Print>
   10d41:	eb fe                	jmp    10d41 <Wait_For_Key+0x64>
   10d43:	fa                   	cli    
   10d44:	8b 15 4c 49 02 00    	mov    0x2494c,%edx
   10d4a:	a1 48 49 02 00       	mov    0x24948,%eax
   10d4f:	39 c2                	cmp    %eax,%edx
   10d51:	74 6c                	je     10dbf <Wait_For_Key+0xe2>
   10d53:	75 4a                	jne    10d9f <Wait_For_Key+0xc2>
   10d55:	c7 04 24 4f 00 00 00 	movl   $0x4f,(%esp)
   10d5c:	e8 5a 04 00 00       	call   111bb <Set_Current_Attr>
   10d61:	a1 6c 5e 02 00       	mov    0x25e6c,%eax
   10d66:	89 44 24 18          	mov    %eax,0x18(%esp)
   10d6a:	8b 45 04             	mov    0x4(%ebp),%eax
   10d6d:	89 44 24 14          	mov    %eax,0x14(%esp)
   10d71:	c7 44 24 10 97 00 00 	movl   $0x97,0x10(%esp)
   10d78:	00 
   10d79:	c7 44 24 0c a7 f1 01 	movl   $0x1f1a7,0xc(%esp)
   10d80:	00 
   10d81:	c7 44 24 08 c0 f1 01 	movl   $0x1f1c0,0x8(%esp)
   10d88:	00 
   10d89:	c7 44 24 04 07 f2 01 	movl   $0x1f207,0x4(%esp)
   10d90:	00 
   10d91:	c7 04 24 34 ee 01 00 	movl   $0x1ee34,(%esp)
   10d98:	e8 c9 02 00 00       	call   11066 <Print>
   10d9d:	eb fe                	jmp    10d9d <Wait_For_Key+0xc0>
   10d9f:	0f b7 b4 12 60 49 02 	movzwl 0x24960(%edx,%edx,1),%esi
   10da6:	00 
   10da7:	8d 42 01             	lea    0x1(%edx),%eax
   10daa:	25 ff 00 00 00       	and    $0xff,%eax
   10daf:	a3 4c 49 02 00       	mov    %eax,0x2494c
   10db4:	e8 86 f4 ff ff       	call   1023f <Interrupts_Enabled>
   10db9:	84 c0                	test   %al,%al
   10dbb:	74 5d                	je     10e1a <Wait_For_Key+0x13d>
   10dbd:	eb 11                	jmp    10dd0 <Wait_For_Key+0xf3>
   10dbf:	c7 04 24 40 49 02 00 	movl   $0x24940,(%esp)
   10dc6:	e8 89 51 00 00       	call   15f54 <Wait>
   10dcb:	e9 74 ff ff ff       	jmp    10d44 <Wait_For_Key+0x67>
   10dd0:	c7 04 24 4f 00 00 00 	movl   $0x4f,(%esp)
   10dd7:	e8 df 03 00 00       	call   111bb <Set_Current_Attr>
   10ddc:	a1 6c 5e 02 00       	mov    0x25e6c,%eax
   10de1:	89 44 24 18          	mov    %eax,0x18(%esp)
   10de5:	8b 45 04             	mov    0x4(%ebp),%eax
   10de8:	89 44 24 14          	mov    %eax,0x14(%esp)
   10dec:	c7 44 24 10 99 00 00 	movl   $0x99,0x10(%esp)
   10df3:	00 
   10df4:	c7 44 24 0c fe f0 01 	movl   $0x1f0fe,0xc(%esp)
   10dfb:	00 
   10dfc:	c7 44 24 08 52 ef 01 	movl   $0x1ef52,0x8(%esp)
   10e03:	00 
   10e04:	c7 44 24 04 f8 f1 01 	movl   $0x1f1f8,0x4(%esp)
   10e0b:	00 
   10e0c:	c7 04 24 34 ee 01 00 	movl   $0x1ee34,(%esp)
   10e13:	e8 4e 02 00 00       	call   11066 <Print>
   10e18:	eb fe                	jmp    10e18 <Wait_For_Key+0x13b>
   10e1a:	84 db                	test   %bl,%bl
   10e1c:	74 56                	je     10e74 <Wait_For_Key+0x197>
   10e1e:	66 90                	xchg   %ax,%ax
   10e20:	e8 1a f4 ff ff       	call   1023f <Interrupts_Enabled>
   10e25:	84 c0                	test   %al,%al
   10e27:	74 4a                	je     10e73 <Wait_For_Key+0x196>
   10e29:	c7 04 24 4f 00 00 00 	movl   $0x4f,(%esp)
   10e30:	e8 86 03 00 00       	call   111bb <Set_Current_Attr>
   10e35:	a1 6c 5e 02 00       	mov    0x25e6c,%eax
   10e3a:	89 44 24 18          	mov    %eax,0x18(%esp)
   10e3e:	8b 45 04             	mov    0x4(%ebp),%eax
   10e41:	89 44 24 14          	mov    %eax,0x14(%esp)
   10e45:	c7 44 24 10 9c 00 00 	movl   $0x9c,0x10(%esp)
   10e4c:	00 
   10e4d:	c7 44 24 0c fe f0 01 	movl   $0x1f0fe,0xc(%esp)
   10e54:	00 
   10e55:	c7 44 24 08 52 ef 01 	movl   $0x1ef52,0x8(%esp)
   10e5c:	00 
   10e5d:	c7 44 24 04 f8 f1 01 	movl   $0x1f1f8,0x4(%esp)
   10e64:	00 
   10e65:	c7 04 24 34 ee 01 00 	movl   $0x1ee34,(%esp)
   10e6c:	e8 f5 01 00 00       	call   11066 <Print>
   10e71:	eb fe                	jmp    10e71 <Wait_For_Key+0x194>
   10e73:	fb                   	sti    
   10e74:	89 f0                	mov    %esi,%eax
   10e76:	83 c4 20             	add    $0x20,%esp
   10e79:	5b                   	pop    %ebx
   10e7a:	5e                   	pop    %esi
   10e7b:	5d                   	pop    %ebp
   10e7c:	c3                   	ret    
   10e7d:	66 90                	xchg   %ax,%ax
   10e7f:	90                   	nop

00010e80 <Clear_To_EOL>:
   10e80:	55                   	push   %ebp
   10e81:	89 e5                	mov    %esp,%ebp
   10e83:	53                   	push   %ebx
   10e84:	8b 0d 84 4b 02 00    	mov    0x24b84,%ecx
   10e8a:	a1 80 4b 02 00       	mov    0x24b80,%eax
   10e8f:	8d 04 80             	lea    (%eax,%eax,4),%eax
   10e92:	c1 e0 05             	shl    $0x5,%eax
   10e95:	8d 94 48 00 80 0b 00 	lea    0xb8000(%eax,%ecx,2),%edx
   10e9c:	b8 4f 00 00 00       	mov    $0x4f,%eax
   10ea1:	29 c8                	sub    %ecx,%eax
   10ea3:	bb 50 00 00 00       	mov    $0x50,%ebx
   10ea8:	29 cb                	sub    %ecx,%ebx
   10eaa:	85 db                	test   %ebx,%ebx
   10eac:	7e 1c                	jle    10eca <Clear_To_EOL+0x4a>
   10eae:	0f b6 1d 90 4b 02 00 	movzbl 0x24b90,%ebx
   10eb5:	c6 02 20             	movb   $0x20,(%edx)
   10eb8:	8d 4a 02             	lea    0x2(%edx),%ecx
   10ebb:	89 ca                	mov    %ecx,%edx
   10ebd:	88 59 ff             	mov    %bl,-0x1(%ecx)
   10ec0:	83 e8 01             	sub    $0x1,%eax
   10ec3:	8d 48 01             	lea    0x1(%eax),%ecx
   10ec6:	85 c9                	test   %ecx,%ecx
   10ec8:	7f eb                	jg     10eb5 <Clear_To_EOL+0x35>
   10eca:	5b                   	pop    %ebx
   10ecb:	5d                   	pop    %ebp
   10ecc:	c3                   	ret    

00010ecd <Newline>:
   10ecd:	55                   	push   %ebp
   10ece:	89 e5                	mov    %esp,%ebp
   10ed0:	a1 80 4b 02 00       	mov    0x24b80,%eax
   10ed5:	83 c0 01             	add    $0x1,%eax
   10ed8:	a3 80 4b 02 00       	mov    %eax,0x24b80
   10edd:	c7 05 84 4b 02 00 00 	movl   $0x0,0x24b84
   10ee4:	00 00 00 
   10ee7:	83 f8 19             	cmp    $0x19,%eax
   10eea:	75 45                	jne    10f31 <Newline+0x64>
   10eec:	0f b6 05 90 4b 02 00 	movzbl 0x24b90,%eax
   10ef3:	89 c1                	mov    %eax,%ecx
   10ef5:	c1 e1 18             	shl    $0x18,%ecx
   10ef8:	c1 e0 08             	shl    $0x8,%eax
   10efb:	09 c1                	or     %eax,%ecx
   10efd:	81 c9 20 00 20 00    	or     $0x200020,%ecx
   10f03:	b8 00 80 0b 00       	mov    $0xb8000,%eax
   10f08:	8b 90 a0 00 00 00    	mov    0xa0(%eax),%edx
   10f0e:	89 10                	mov    %edx,(%eax)
   10f10:	83 c0 04             	add    $0x4,%eax
   10f13:	3d 00 8f 0b 00       	cmp    $0xb8f00,%eax
   10f18:	75 ee                	jne    10f08 <Newline+0x3b>
   10f1a:	83 c0 04             	add    $0x4,%eax
   10f1d:	89 48 fc             	mov    %ecx,-0x4(%eax)
   10f20:	3d a0 8f 0b 00       	cmp    $0xb8fa0,%eax
   10f25:	75 f3                	jne    10f1a <Newline+0x4d>
   10f27:	c7 05 80 4b 02 00 18 	movl   $0x18,0x24b80
   10f2e:	00 00 00 
   10f31:	5d                   	pop    %ebp
   10f32:	c3                   	ret    

00010f33 <Put_Graphic_Char>:
   10f33:	8b 15 84 4b 02 00    	mov    0x24b84,%edx
   10f39:	8b 0d 80 4b 02 00    	mov    0x24b80,%ecx
   10f3f:	8d 0c 89             	lea    (%ecx,%ecx,4),%ecx
   10f42:	c1 e1 05             	shl    $0x5,%ecx
   10f45:	8d 0c 51             	lea    (%ecx,%edx,2),%ecx
   10f48:	88 81 00 80 0b 00    	mov    %al,0xb8000(%ecx)
   10f4e:	0f b6 05 90 4b 02 00 	movzbl 0x24b90,%eax
   10f55:	88 81 01 80 0b 00    	mov    %al,0xb8001(%ecx)
   10f5b:	83 fa 4e             	cmp    $0x4e,%edx
   10f5e:	7f 0a                	jg     10f6a <Put_Graphic_Char+0x37>
   10f60:	83 c2 01             	add    $0x1,%edx
   10f63:	89 15 84 4b 02 00    	mov    %edx,0x24b84
   10f69:	c3                   	ret    
   10f6a:	55                   	push   %ebp
   10f6b:	89 e5                	mov    %esp,%ebp
   10f6d:	e8 5b ff ff ff       	call   10ecd <Newline>
   10f72:	5d                   	pop    %ebp
   10f73:	c3                   	ret    

00010f74 <Move_Cursor>:
   10f74:	55                   	push   %ebp
   10f75:	89 e5                	mov    %esp,%ebp
   10f77:	83 f8 18             	cmp    $0x18,%eax
   10f7a:	b9 18 00 00 00       	mov    $0x18,%ecx
   10f7f:	0f 4f c1             	cmovg  %ecx,%eax
   10f82:	83 fa 4f             	cmp    $0x4f,%edx
   10f85:	b1 4f                	mov    $0x4f,%cl
   10f87:	0f 4f d1             	cmovg  %ecx,%edx
   10f8a:	b1 00                	mov    $0x0,%cl
   10f8c:	85 c0                	test   %eax,%eax
   10f8e:	0f 48 c1             	cmovs  %ecx,%eax
   10f91:	a3 80 4b 02 00       	mov    %eax,0x24b80
   10f96:	85 d2                	test   %edx,%edx
   10f98:	0f 49 ca             	cmovns %edx,%ecx
   10f9b:	89 0d 84 4b 02 00    	mov    %ecx,0x24b84
   10fa1:	5d                   	pop    %ebp
   10fa2:	c3                   	ret    

00010fa3 <Update_Cursor>:
   10fa3:	55                   	push   %ebp
   10fa4:	89 e5                	mov    %esp,%ebp
   10fa6:	56                   	push   %esi
   10fa7:	53                   	push   %ebx
   10fa8:	83 ec 10             	sub    $0x10,%esp
   10fab:	a1 80 4b 02 00       	mov    0x24b80,%eax
   10fb0:	8d 1c 80             	lea    (%eax,%eax,4),%ebx
   10fb3:	c1 e3 04             	shl    $0x4,%ebx
   10fb6:	03 1d 84 4b 02 00    	add    0x24b84,%ebx
   10fbc:	c7 04 24 d4 03 00 00 	movl   $0x3d4,(%esp)
   10fc3:	e8 77 f9 ff ff       	call   1093f <In_Byte>
   10fc8:	89 c6                	mov    %eax,%esi
   10fca:	e8 90 f9 ff ff       	call   1095f <IO_Delay>
   10fcf:	c7 44 24 04 0e 00 00 	movl   $0xe,0x4(%esp)
   10fd6:	00 
   10fd7:	c7 04 24 d4 03 00 00 	movl   $0x3d4,(%esp)
   10fde:	e8 50 f9 ff ff       	call   10933 <Out_Byte>
   10fe3:	e8 77 f9 ff ff       	call   1095f <IO_Delay>
   10fe8:	0f b6 c7             	movzbl %bh,%eax
   10feb:	89 44 24 04          	mov    %eax,0x4(%esp)
   10fef:	c7 04 24 d5 03 00 00 	movl   $0x3d5,(%esp)
   10ff6:	e8 38 f9 ff ff       	call   10933 <Out_Byte>
   10ffb:	e8 5f f9 ff ff       	call   1095f <IO_Delay>
   11000:	c7 44 24 04 0f 00 00 	movl   $0xf,0x4(%esp)
   11007:	00 
   11008:	c7 04 24 d4 03 00 00 	movl   $0x3d4,(%esp)
   1100f:	e8 1f f9 ff ff       	call   10933 <Out_Byte>
   11014:	e8 46 f9 ff ff       	call   1095f <IO_Delay>
   11019:	0f b6 db             	movzbl %bl,%ebx
   1101c:	89 5c 24 04          	mov    %ebx,0x4(%esp)
   11020:	c7 04 24 d5 03 00 00 	movl   $0x3d5,(%esp)
   11027:	e8 07 f9 ff ff       	call   10933 <Out_Byte>
   1102c:	e8 2e f9 ff ff       	call   1095f <IO_Delay>
   11031:	89 f0                	mov    %esi,%eax
   11033:	0f b6 f0             	movzbl %al,%esi
   11036:	89 74 24 04          	mov    %esi,0x4(%esp)
   1103a:	c7 04 24 d4 03 00 00 	movl   $0x3d4,(%esp)
   11041:	e8 ed f8 ff ff       	call   10933 <Out_Byte>
   11046:	83 c4 10             	add    $0x10,%esp
   11049:	5b                   	pop    %ebx
   1104a:	5e                   	pop    %esi
   1104b:	5d                   	pop    %ebp
   1104c:	c3                   	ret    

0001104d <Print_Finish>:
   1104d:	55                   	push   %ebp
   1104e:	89 e5                	mov    %esp,%ebp
   11050:	83 ec 08             	sub    $0x8,%esp
   11053:	e8 4b ff ff ff       	call   10fa3 <Update_Cursor>
   11058:	c9                   	leave  
   11059:	c3                   	ret    

0001105a <Get_Current_Attr>:
   1105a:	55                   	push   %ebp
   1105b:	89 e5                	mov    %esp,%ebp
   1105d:	0f b6 05 90 4b 02 00 	movzbl 0x24b90,%eax
   11064:	5d                   	pop    %ebp
   11065:	c3                   	ret    

00011066 <Print>:
   11066:	55                   	push   %ebp
   11067:	89 e5                	mov    %esp,%ebp
   11069:	53                   	push   %ebx
   1106a:	83 ec 24             	sub    $0x24,%esp
   1106d:	8b 5d 08             	mov    0x8(%ebp),%ebx
   11070:	e8 ca f1 ff ff       	call   1023f <Interrupts_Enabled>
   11075:	84 c0                	test   %al,%al
   11077:	0f 84 14 01 00 00    	je     11191 <Print+0x12b>
   1107d:	e8 bd f1 ff ff       	call   1023f <Interrupts_Enabled>
   11082:	84 c0                	test   %al,%al
   11084:	75 4a                	jne    110d0 <Print+0x6a>
   11086:	c7 04 24 4f 00 00 00 	movl   $0x4f,(%esp)
   1108d:	e8 29 01 00 00       	call   111bb <Set_Current_Attr>
   11092:	a1 6c 5e 02 00       	mov    0x25e6c,%eax
   11097:	89 44 24 18          	mov    %eax,0x18(%esp)
   1109b:	8b 45 04             	mov    0x4(%ebp),%eax
   1109e:	89 44 24 14          	mov    %eax,0x14(%esp)
   110a2:	c7 44 24 10 8f 00 00 	movl   $0x8f,0x10(%esp)
   110a9:	00 
   110aa:	c7 44 24 0c fe f0 01 	movl   $0x1f0fe,0xc(%esp)
   110b1:	00 
   110b2:	c7 44 24 08 53 ef 01 	movl   $0x1ef53,0x8(%esp)
   110b9:	00 
   110ba:	c7 44 24 04 0c f5 01 	movl   $0x1f50c,0x4(%esp)
   110c1:	00 
   110c2:	c7 04 24 34 ee 01 00 	movl   $0x1ee34,(%esp)
   110c9:	e8 98 ff ff ff       	call   11066 <Print>
   110ce:	eb fe                	jmp    110ce <Print+0x68>
   110d0:	fa                   	cli    
   110d1:	8d 45 0c             	lea    0xc(%ebp),%eax
   110d4:	89 44 24 08          	mov    %eax,0x8(%esp)
   110d8:	89 5c 24 04          	mov    %ebx,0x4(%esp)
   110dc:	c7 04 24 04 40 02 00 	movl   $0x24004,(%esp)
   110e3:	e8 98 d0 00 00       	call   1e180 <Format_Output>
   110e8:	e8 52 f1 ff ff       	call   1023f <Interrupts_Enabled>
   110ed:	84 c0                	test   %al,%al
   110ef:	74 4a                	je     1113b <Print+0xd5>
   110f1:	c7 04 24 4f 00 00 00 	movl   $0x4f,(%esp)
   110f8:	e8 be 00 00 00       	call   111bb <Set_Current_Attr>
   110fd:	a1 6c 5e 02 00       	mov    0x25e6c,%eax
   11102:	89 44 24 18          	mov    %eax,0x18(%esp)
   11106:	8b 45 04             	mov    0x4(%ebp),%eax
   11109:	89 44 24 14          	mov    %eax,0x14(%esp)
   1110d:	c7 44 24 10 99 00 00 	movl   $0x99,0x10(%esp)
   11114:	00 
   11115:	c7 44 24 0c fe f0 01 	movl   $0x1f0fe,0xc(%esp)
   1111c:	00 
   1111d:	c7 44 24 08 52 ef 01 	movl   $0x1ef52,0x8(%esp)
   11124:	00 
   11125:	c7 44 24 04 fd f4 01 	movl   $0x1f4fd,0x4(%esp)
   1112c:	00 
   1112d:	c7 04 24 34 ee 01 00 	movl   $0x1ee34,(%esp)
   11134:	e8 2d ff ff ff       	call   11066 <Print>
   11139:	eb fe                	jmp    11139 <Print+0xd3>
   1113b:	e8 ff f0 ff ff       	call   1023f <Interrupts_Enabled>
   11140:	84 c0                	test   %al,%al
   11142:	74 4a                	je     1118e <Print+0x128>
   11144:	c7 04 24 4f 00 00 00 	movl   $0x4f,(%esp)
   1114b:	e8 6b 00 00 00       	call   111bb <Set_Current_Attr>
   11150:	a1 6c 5e 02 00       	mov    0x25e6c,%eax
   11155:	89 44 24 18          	mov    %eax,0x18(%esp)
   11159:	8b 45 04             	mov    0x4(%ebp),%eax
   1115c:	89 44 24 14          	mov    %eax,0x14(%esp)
   11160:	c7 44 24 10 9c 00 00 	movl   $0x9c,0x10(%esp)
   11167:	00 
   11168:	c7 44 24 0c fe f0 01 	movl   $0x1f0fe,0xc(%esp)
   1116f:	00 
   11170:	c7 44 24 08 52 ef 01 	movl   $0x1ef52,0x8(%esp)
   11177:	00 
   11178:	c7 44 24 04 fd f4 01 	movl   $0x1f4fd,0x4(%esp)
   1117f:	00 
   11180:	c7 04 24 34 ee 01 00 	movl   $0x1ee34,(%esp)
   11187:	e8 da fe ff ff       	call   11066 <Print>
   1118c:	eb fe                	jmp    1118c <Print+0x126>
   1118e:	fb                   	sti    
   1118f:	eb 24                	jmp    111b5 <Print+0x14f>
   11191:	8d 45 0c             	lea    0xc(%ebp),%eax
   11194:	89 44 24 08          	mov    %eax,0x8(%esp)
   11198:	89 5c 24 04          	mov    %ebx,0x4(%esp)
   1119c:	c7 04 24 04 40 02 00 	movl   $0x24004,(%esp)
   111a3:	e8 d8 cf 00 00       	call   1e180 <Format_Output>
   111a8:	e8 92 f0 ff ff       	call   1023f <Interrupts_Enabled>
   111ad:	84 c0                	test   %al,%al
   111af:	0f 85 3c ff ff ff    	jne    110f1 <Print+0x8b>
   111b5:	83 c4 24             	add    $0x24,%esp
   111b8:	5b                   	pop    %ebx
   111b9:	5d                   	pop    %ebp
   111ba:	c3                   	ret    

000111bb <Set_Current_Attr>:
   111bb:	55                   	push   %ebp
   111bc:	89 e5                	mov    %esp,%ebp
   111be:	53                   	push   %ebx
   111bf:	83 ec 24             	sub    $0x24,%esp
   111c2:	8b 5d 08             	mov    0x8(%ebp),%ebx
   111c5:	e8 75 f0 ff ff       	call   1023f <Interrupts_Enabled>
   111ca:	84 c0                	test   %al,%al
   111cc:	0f 84 03 01 00 00    	je     112d5 <Set_Current_Attr+0x11a>
   111d2:	e8 68 f0 ff ff       	call   1023f <Interrupts_Enabled>
   111d7:	84 c0                	test   %al,%al
   111d9:	75 4a                	jne    11225 <Set_Current_Attr+0x6a>
   111db:	c7 04 24 4f 00 00 00 	movl   $0x4f,(%esp)
   111e2:	e8 d4 ff ff ff       	call   111bb <Set_Current_Attr>
   111e7:	a1 6c 5e 02 00       	mov    0x25e6c,%eax
   111ec:	89 44 24 18          	mov    %eax,0x18(%esp)
   111f0:	8b 45 04             	mov    0x4(%ebp),%eax
   111f3:	89 44 24 14          	mov    %eax,0x14(%esp)
   111f7:	c7 44 24 10 8f 00 00 	movl   $0x8f,0x10(%esp)
   111fe:	00 
   111ff:	c7 44 24 0c fe f0 01 	movl   $0x1f0fe,0xc(%esp)
   11206:	00 
   11207:	c7 44 24 08 53 ef 01 	movl   $0x1ef53,0x8(%esp)
   1120e:	00 
   1120f:	c7 44 24 04 0c f5 01 	movl   $0x1f50c,0x4(%esp)
   11216:	00 
   11217:	c7 04 24 34 ee 01 00 	movl   $0x1ee34,(%esp)
   1121e:	e8 43 fe ff ff       	call   11066 <Print>
   11223:	eb fe                	jmp    11223 <Set_Current_Attr+0x68>
   11225:	fa                   	cli    
   11226:	88 1d 90 4b 02 00    	mov    %bl,0x24b90
   1122c:	e8 0e f0 ff ff       	call   1023f <Interrupts_Enabled>
   11231:	84 c0                	test   %al,%al
   11233:	74 4a                	je     1127f <Set_Current_Attr+0xc4>
   11235:	c7 04 24 4f 00 00 00 	movl   $0x4f,(%esp)
   1123c:	e8 7a ff ff ff       	call   111bb <Set_Current_Attr>
   11241:	a1 6c 5e 02 00       	mov    0x25e6c,%eax
   11246:	89 44 24 18          	mov    %eax,0x18(%esp)
   1124a:	8b 45 04             	mov    0x4(%ebp),%eax
   1124d:	89 44 24 14          	mov    %eax,0x14(%esp)
   11251:	c7 44 24 10 99 00 00 	movl   $0x99,0x10(%esp)
   11258:	00 
   11259:	c7 44 24 0c fe f0 01 	movl   $0x1f0fe,0xc(%esp)
   11260:	00 
   11261:	c7 44 24 08 52 ef 01 	movl   $0x1ef52,0x8(%esp)
   11268:	00 
   11269:	c7 44 24 04 fd f4 01 	movl   $0x1f4fd,0x4(%esp)
   11270:	00 
   11271:	c7 04 24 34 ee 01 00 	movl   $0x1ee34,(%esp)
   11278:	e8 e9 fd ff ff       	call   11066 <Print>
   1127d:	eb fe                	jmp    1127d <Set_Current_Attr+0xc2>
   1127f:	e8 bb ef ff ff       	call   1023f <Interrupts_Enabled>
   11284:	84 c0                	test   %al,%al
   11286:	74 4a                	je     112d2 <Set_Current_Attr+0x117>
   11288:	c7 04 24 4f 00 00 00 	movl   $0x4f,(%esp)
   1128f:	e8 27 ff ff ff       	call   111bb <Set_Current_Attr>
   11294:	a1 6c 5e 02 00       	mov    0x25e6c,%eax
   11299:	89 44 24 18          	mov    %eax,0x18(%esp)
   1129d:	8b 45 04             	mov    0x4(%ebp),%eax
   112a0:	89 44 24 14          	mov    %eax,0x14(%esp)
   112a4:	c7 44 24 10 9c 00 00 	movl   $0x9c,0x10(%esp)
   112ab:	00 
   112ac:	c7 44 24 0c fe f0 01 	movl   $0x1f0fe,0xc(%esp)
   112b3:	00 
   112b4:	c7 44 24 08 52 ef 01 	movl   $0x1ef52,0x8(%esp)
   112bb:	00 
   112bc:	c7 44 24 04 fd f4 01 	movl   $0x1f4fd,0x4(%esp)
   112c3:	00 
   112c4:	c7 04 24 34 ee 01 00 	movl   $0x1ee34,(%esp)
   112cb:	e8 96 fd ff ff       	call   11066 <Print>
   112d0:	eb fe                	jmp    112d0 <Set_Current_Attr+0x115>
   112d2:	fb                   	sti    
   112d3:	eb 18                	jmp    112ed <Set_Current_Attr+0x132>
   112d5:	88 1d 90 4b 02 00    	mov    %bl,0x24b90
   112db:	90                   	nop
   112dc:	8d 74 26 00          	lea    0x0(%esi,%eiz,1),%esi
   112e0:	e8 5a ef ff ff       	call   1023f <Interrupts_Enabled>
   112e5:	84 c0                	test   %al,%al
   112e7:	0f 85 48 ff ff ff    	jne    11235 <Set_Current_Attr+0x7a>
   112ed:	83 c4 24             	add    $0x24,%esp
   112f0:	5b                   	pop    %ebx
   112f1:	5d                   	pop    %ebp
   112f2:	c3                   	ret    

000112f3 <Clear_Screen>:
   112f3:	55                   	push   %ebp
   112f4:	89 e5                	mov    %esp,%ebp
   112f6:	56                   	push   %esi
   112f7:	53                   	push   %ebx
   112f8:	83 ec 20             	sub    $0x20,%esp
   112fb:	0f b6 05 90 4b 02 00 	movzbl 0x24b90,%eax
   11302:	89 c3                	mov    %eax,%ebx
   11304:	c1 e3 18             	shl    $0x18,%ebx
   11307:	c1 e0 08             	shl    $0x8,%eax
   1130a:	09 c3                	or     %eax,%ebx
   1130c:	81 cb 20 00 20 00    	or     $0x200020,%ebx
   11312:	e8 28 ef ff ff       	call   1023f <Interrupts_Enabled>
   11317:	89 c6                	mov    %eax,%esi
   11319:	84 c0                	test   %al,%al
   1131b:	0f 84 16 01 00 00    	je     11437 <Clear_Screen+0x144>
   11321:	e8 19 ef ff ff       	call   1023f <Interrupts_Enabled>
   11326:	84 c0                	test   %al,%al
   11328:	75 4a                	jne    11374 <Clear_Screen+0x81>
   1132a:	c7 04 24 4f 00 00 00 	movl   $0x4f,(%esp)
   11331:	e8 85 fe ff ff       	call   111bb <Set_Current_Attr>
   11336:	a1 6c 5e 02 00       	mov    0x25e6c,%eax
   1133b:	89 44 24 18          	mov    %eax,0x18(%esp)
   1133f:	8b 45 04             	mov    0x4(%ebp),%eax
   11342:	89 44 24 14          	mov    %eax,0x14(%esp)
   11346:	c7 44 24 10 8f 00 00 	movl   $0x8f,0x10(%esp)
   1134d:	00 
   1134e:	c7 44 24 0c fe f0 01 	movl   $0x1f0fe,0xc(%esp)
   11355:	00 
   11356:	c7 44 24 08 53 ef 01 	movl   $0x1ef53,0x8(%esp)
   1135d:	00 
   1135e:	c7 44 24 04 0c f5 01 	movl   $0x1f50c,0x4(%esp)
   11365:	00 
   11366:	c7 04 24 34 ee 01 00 	movl   $0x1ee34,(%esp)
   1136d:	e8 f4 fc ff ff       	call   11066 <Print>
   11372:	eb fe                	jmp    11372 <Clear_Screen+0x7f>
   11374:	fa                   	cli    
   11375:	e9 bd 00 00 00       	jmp    11437 <Clear_Screen+0x144>
   1137a:	83 c2 04             	add    $0x4,%edx
   1137d:	89 5a fc             	mov    %ebx,-0x4(%edx)
   11380:	81 fa a0 8f 0b 00    	cmp    $0xb8fa0,%edx
   11386:	75 f2                	jne    1137a <Clear_Screen+0x87>
   11388:	e8 b2 ee ff ff       	call   1023f <Interrupts_Enabled>
   1138d:	84 c0                	test   %al,%al
   1138f:	74 4a                	je     113db <Clear_Screen+0xe8>
   11391:	c7 04 24 4f 00 00 00 	movl   $0x4f,(%esp)
   11398:	e8 1e fe ff ff       	call   111bb <Set_Current_Attr>
   1139d:	a1 6c 5e 02 00       	mov    0x25e6c,%eax
   113a2:	89 44 24 18          	mov    %eax,0x18(%esp)
   113a6:	8b 45 04             	mov    0x4(%ebp),%eax
   113a9:	89 44 24 14          	mov    %eax,0x14(%esp)
   113ad:	c7 44 24 10 99 00 00 	movl   $0x99,0x10(%esp)
   113b4:	00 
   113b5:	c7 44 24 0c fe f0 01 	movl   $0x1f0fe,0xc(%esp)
   113bc:	00 
   113bd:	c7 44 24 08 52 ef 01 	movl   $0x1ef52,0x8(%esp)
   113c4:	00 
   113c5:	c7 44 24 04 fd f4 01 	movl   $0x1f4fd,0x4(%esp)
   113cc:	00 
   113cd:	c7 04 24 34 ee 01 00 	movl   $0x1ee34,(%esp)
   113d4:	e8 8d fc ff ff       	call   11066 <Print>
   113d9:	eb fe                	jmp    113d9 <Clear_Screen+0xe6>
   113db:	89 f0                	mov    %esi,%eax
   113dd:	84 c0                	test   %al,%al
   113df:	74 64                	je     11445 <Clear_Screen+0x152>
   113e1:	e8 59 ee ff ff       	call   1023f <Interrupts_Enabled>
   113e6:	84 c0                	test   %al,%al
   113e8:	74 4a                	je     11434 <Clear_Screen+0x141>
   113ea:	c7 04 24 4f 00 00 00 	movl   $0x4f,(%esp)
   113f1:	e8 c5 fd ff ff       	call   111bb <Set_Current_Attr>
   113f6:	a1 6c 5e 02 00       	mov    0x25e6c,%eax
   113fb:	89 44 24 18          	mov    %eax,0x18(%esp)
   113ff:	8b 45 04             	mov    0x4(%ebp),%eax
   11402:	89 44 24 14          	mov    %eax,0x14(%esp)
   11406:	c7 44 24 10 9c 00 00 	movl   $0x9c,0x10(%esp)
   1140d:	00 
   1140e:	c7 44 24 0c fe f0 01 	movl   $0x1f0fe,0xc(%esp)
   11415:	00 
   11416:	c7 44 24 08 52 ef 01 	movl   $0x1ef52,0x8(%esp)
   1141d:	00 
   1141e:	c7 44 24 04 fd f4 01 	movl   $0x1f4fd,0x4(%esp)
   11425:	00 
   11426:	c7 04 24 34 ee 01 00 	movl   $0x1ee34,(%esp)
   1142d:	e8 34 fc ff ff       	call   11066 <Print>
   11432:	eb fe                	jmp    11432 <Clear_Screen+0x13f>
   11434:	fb                   	sti    
   11435:	eb 0e                	jmp    11445 <Clear_Screen+0x152>
   11437:	ba 00 80 0b 00       	mov    $0xb8000,%edx
   1143c:	8d 74 26 00          	lea    0x0(%esi,%eiz,1),%esi
   11440:	e9 35 ff ff ff       	jmp    1137a <Clear_Screen+0x87>
   11445:	83 c4 20             	add    $0x20,%esp
   11448:	5b                   	pop    %ebx
   11449:	5e                   	pop    %esi
   1144a:	5d                   	pop    %ebp
   1144b:	c3                   	ret    

0001144c <Add_Digit>:
   1144c:	8d 50 d0             	lea    -0x30(%eax),%edx
   1144f:	83 fa 09             	cmp    $0x9,%edx
   11452:	76 50                	jbe    114a4 <Add_Digit+0x58>
   11454:	55                   	push   %ebp
   11455:	89 e5                	mov    %esp,%ebp
   11457:	83 ec 28             	sub    $0x28,%esp
   1145a:	c7 04 24 4f 00 00 00 	movl   $0x4f,(%esp)
   11461:	e8 55 fd ff ff       	call   111bb <Set_Current_Attr>
   11466:	a1 6c 5e 02 00       	mov    0x25e6c,%eax
   1146b:	89 44 24 18          	mov    %eax,0x18(%esp)
   1146f:	8b 45 04             	mov    0x4(%ebp),%eax
   11472:	89 44 24 14          	mov    %eax,0x14(%esp)
   11476:	c7 44 24 10 ff 00 00 	movl   $0xff,0x10(%esp)
   1147d:	00 
   1147e:	c7 44 24 0c b0 f3 01 	movl   $0x1f3b0,0xc(%esp)
   11485:	00 
   11486:	c7 44 24 08 c7 f3 01 	movl   $0x1f3c7,0x8(%esp)
   1148d:	00 
   1148e:	c7 44 24 04 e6 f4 01 	movl   $0x1f4e6,0x4(%esp)
   11495:	00 
   11496:	c7 04 24 34 ee 01 00 	movl   $0x1ee34,(%esp)
   1149d:	e8 c4 fb ff ff       	call   11066 <Print>
   114a2:	eb fe                	jmp    114a2 <Add_Digit+0x56>
   114a4:	8b 15 b8 4b 02 00    	mov    0x24bb8,%edx
   114aa:	83 fa 07             	cmp    $0x7,%edx
   114ad:	7f 16                	jg     114c5 <Add_Digit+0x79>
   114af:	83 c2 03             	add    $0x3,%edx
   114b2:	6b 0c 95 88 4b 02 00 	imul   $0xa,0x24b88(,%edx,4),%ecx
   114b9:	0a 
   114ba:	8d 44 08 d0          	lea    -0x30(%eax,%ecx,1),%eax
   114be:	89 04 95 88 4b 02 00 	mov    %eax,0x24b88(,%edx,4)
   114c5:	c3                   	ret    

000114c6 <Start_Arg>:
   114c6:	8b 15 b8 4b 02 00    	mov    0x24bb8,%edx
   114cc:	39 c2                	cmp    %eax,%edx
   114ce:	74 50                	je     11520 <Start_Arg+0x5a>
   114d0:	55                   	push   %ebp
   114d1:	89 e5                	mov    %esp,%ebp
   114d3:	83 ec 28             	sub    $0x28,%esp
   114d6:	c7 04 24 4f 00 00 00 	movl   $0x4f,(%esp)
   114dd:	e8 d9 fc ff ff       	call   111bb <Set_Current_Attr>
   114e2:	a1 6c 5e 02 00       	mov    0x25e6c,%eax
   114e7:	89 44 24 18          	mov    %eax,0x18(%esp)
   114eb:	8b 45 04             	mov    0x4(%ebp),%eax
   114ee:	89 44 24 14          	mov    %eax,0x14(%esp)
   114f2:	c7 44 24 10 e7 00 00 	movl   $0xe7,0x10(%esp)
   114f9:	00 
   114fa:	c7 44 24 0c b0 f3 01 	movl   $0x1f3b0,0xc(%esp)
   11501:	00 
   11502:	c7 44 24 08 d2 f3 01 	movl   $0x1f3d2,0x8(%esp)
   11509:	00 
   1150a:	c7 44 24 04 dc f4 01 	movl   $0x1f4dc,0x4(%esp)
   11511:	00 
   11512:	c7 04 24 34 ee 01 00 	movl   $0x1ee34,(%esp)
   11519:	e8 48 fb ff ff       	call   11066 <Print>
   1151e:	eb fe                	jmp    1151e <Start_Arg+0x58>
   11520:	8d 42 01             	lea    0x1(%edx),%eax
   11523:	a3 b8 4b 02 00       	mov    %eax,0x24bb8
   11528:	c7 05 94 4b 02 00 03 	movl   $0x3,0x24b94
   1152f:	00 00 00 
   11532:	83 fa 07             	cmp    $0x7,%edx
   11535:	7f 0b                	jg     11542 <Start_Arg+0x7c>
   11537:	c7 04 95 98 4b 02 00 	movl   $0x0,0x24b98(,%edx,4)
   1153e:	00 00 00 00 
   11542:	c3                   	ret    

00011543 <Get_Cursor>:
   11543:	55                   	push   %ebp
   11544:	89 e5                	mov    %esp,%ebp
   11546:	56                   	push   %esi
   11547:	53                   	push   %ebx
   11548:	83 ec 20             	sub    $0x20,%esp
   1154b:	8b 75 08             	mov    0x8(%ebp),%esi
   1154e:	8b 5d 0c             	mov    0xc(%ebp),%ebx
   11551:	e8 e9 ec ff ff       	call   1023f <Interrupts_Enabled>
   11556:	84 c0                	test   %al,%al
   11558:	0f 84 11 01 00 00    	je     1166f <Get_Cursor+0x12c>
   1155e:	e8 dc ec ff ff       	call   1023f <Interrupts_Enabled>
   11563:	84 c0                	test   %al,%al
   11565:	75 4a                	jne    115b1 <Get_Cursor+0x6e>
   11567:	c7 04 24 4f 00 00 00 	movl   $0x4f,(%esp)
   1156e:	e8 48 fc ff ff       	call   111bb <Set_Current_Attr>
   11573:	a1 6c 5e 02 00       	mov    0x25e6c,%eax
   11578:	89 44 24 18          	mov    %eax,0x18(%esp)
   1157c:	8b 45 04             	mov    0x4(%ebp),%eax
   1157f:	89 44 24 14          	mov    %eax,0x14(%esp)
   11583:	c7 44 24 10 8f 00 00 	movl   $0x8f,0x10(%esp)
   1158a:	00 
   1158b:	c7 44 24 0c fe f0 01 	movl   $0x1f0fe,0xc(%esp)
   11592:	00 
   11593:	c7 44 24 08 53 ef 01 	movl   $0x1ef53,0x8(%esp)
   1159a:	00 
   1159b:	c7 44 24 04 0c f5 01 	movl   $0x1f50c,0x4(%esp)
   115a2:	00 
   115a3:	c7 04 24 34 ee 01 00 	movl   $0x1ee34,(%esp)
   115aa:	e8 b7 fa ff ff       	call   11066 <Print>
   115af:	eb fe                	jmp    115af <Get_Cursor+0x6c>
   115b1:	fa                   	cli    
   115b2:	a1 80 4b 02 00       	mov    0x24b80,%eax
   115b7:	89 06                	mov    %eax,(%esi)
   115b9:	a1 84 4b 02 00       	mov    0x24b84,%eax
   115be:	89 03                	mov    %eax,(%ebx)
   115c0:	e8 7a ec ff ff       	call   1023f <Interrupts_Enabled>
   115c5:	84 c0                	test   %al,%al
   115c7:	74 4a                	je     11613 <Get_Cursor+0xd0>
   115c9:	c7 04 24 4f 00 00 00 	movl   $0x4f,(%esp)
   115d0:	e8 e6 fb ff ff       	call   111bb <Set_Current_Attr>
   115d5:	a1 6c 5e 02 00       	mov    0x25e6c,%eax
   115da:	89 44 24 18          	mov    %eax,0x18(%esp)
   115de:	8b 45 04             	mov    0x4(%ebp),%eax
   115e1:	89 44 24 14          	mov    %eax,0x14(%esp)
   115e5:	c7 44 24 10 99 00 00 	movl   $0x99,0x10(%esp)
   115ec:	00 
   115ed:	c7 44 24 0c fe f0 01 	movl   $0x1f0fe,0xc(%esp)
   115f4:	00 
   115f5:	c7 44 24 08 52 ef 01 	movl   $0x1ef52,0x8(%esp)
   115fc:	00 
   115fd:	c7 44 24 04 fd f4 01 	movl   $0x1f4fd,0x4(%esp)
   11604:	00 
   11605:	c7 04 24 34 ee 01 00 	movl   $0x1ee34,(%esp)
   1160c:	e8 55 fa ff ff       	call   11066 <Print>
   11611:	eb fe                	jmp    11611 <Get_Cursor+0xce>
   11613:	e8 27 ec ff ff       	call   1023f <Interrupts_Enabled>
   11618:	84 c0                	test   %al,%al
   1161a:	8d b6 00 00 00 00    	lea    0x0(%esi),%esi
   11620:	74 4a                	je     1166c <Get_Cursor+0x129>
   11622:	c7 04 24 4f 00 00 00 	movl   $0x4f,(%esp)
   11629:	e8 8d fb ff ff       	call   111bb <Set_Current_Attr>
   1162e:	a1 6c 5e 02 00       	mov    0x25e6c,%eax
   11633:	89 44 24 18          	mov    %eax,0x18(%esp)
   11637:	8b 45 04             	mov    0x4(%ebp),%eax
   1163a:	89 44 24 14          	mov    %eax,0x14(%esp)
   1163e:	c7 44 24 10 9c 00 00 	movl   $0x9c,0x10(%esp)
   11645:	00 
   11646:	c7 44 24 0c fe f0 01 	movl   $0x1f0fe,0xc(%esp)
   1164d:	00 
   1164e:	c7 44 24 08 52 ef 01 	movl   $0x1ef52,0x8(%esp)
   11655:	00 
   11656:	c7 44 24 04 fd f4 01 	movl   $0x1f4fd,0x4(%esp)
   1165d:	00 
   1165e:	c7 04 24 34 ee 01 00 	movl   $0x1ee34,(%esp)
   11665:	e8 fc f9 ff ff       	call   11066 <Print>
   1166a:	eb fe                	jmp    1166a <Get_Cursor+0x127>
   1166c:	fb                   	sti    
   1166d:	eb 1b                	jmp    1168a <Get_Cursor+0x147>
   1166f:	a1 80 4b 02 00       	mov    0x24b80,%eax
   11674:	89 06                	mov    %eax,(%esi)
   11676:	a1 84 4b 02 00       	mov    0x24b84,%eax
   1167b:	89 03                	mov    %eax,(%ebx)
   1167d:	e8 bd eb ff ff       	call   1023f <Interrupts_Enabled>
   11682:	84 c0                	test   %al,%al
   11684:	0f 85 3f ff ff ff    	jne    115c9 <Get_Cursor+0x86>
   1168a:	83 c4 20             	add    $0x20,%esp
   1168d:	5b                   	pop    %ebx
   1168e:	5e                   	pop    %esi
   1168f:	5d                   	pop    %ebp
   11690:	c3                   	ret    

00011691 <Init_Screen>:
   11691:	55                   	push   %ebp
   11692:	89 e5                	mov    %esp,%ebp
   11694:	83 ec 28             	sub    $0x28,%esp
   11697:	e8 a3 eb ff ff       	call   1023f <Interrupts_Enabled>
   1169c:	84 c0                	test   %al,%al
   1169e:	0f 84 1d 01 00 00    	je     117c1 <Init_Screen+0x130>
   116a4:	e8 96 eb ff ff       	call   1023f <Interrupts_Enabled>
   116a9:	84 c0                	test   %al,%al
   116ab:	75 4a                	jne    116f7 <Init_Screen+0x66>
   116ad:	c7 04 24 4f 00 00 00 	movl   $0x4f,(%esp)
   116b4:	e8 02 fb ff ff       	call   111bb <Set_Current_Attr>
   116b9:	a1 6c 5e 02 00       	mov    0x25e6c,%eax
   116be:	89 44 24 18          	mov    %eax,0x18(%esp)
   116c2:	8b 45 04             	mov    0x4(%ebp),%eax
   116c5:	89 44 24 14          	mov    %eax,0x14(%esp)
   116c9:	c7 44 24 10 8f 00 00 	movl   $0x8f,0x10(%esp)
   116d0:	00 
   116d1:	c7 44 24 0c fe f0 01 	movl   $0x1f0fe,0xc(%esp)
   116d8:	00 
   116d9:	c7 44 24 08 53 ef 01 	movl   $0x1ef53,0x8(%esp)
   116e0:	00 
   116e1:	c7 44 24 04 0c f5 01 	movl   $0x1f50c,0x4(%esp)
   116e8:	00 
   116e9:	c7 04 24 34 ee 01 00 	movl   $0x1ee34,(%esp)
   116f0:	e8 71 f9 ff ff       	call   11066 <Print>
   116f5:	eb fe                	jmp    116f5 <Init_Screen+0x64>
   116f7:	fa                   	cli    
   116f8:	c7 05 84 4b 02 00 00 	movl   $0x0,0x24b84
   116ff:	00 00 00 
   11702:	c7 05 80 4b 02 00 00 	movl   $0x0,0x24b80
   11709:	00 00 00 
   1170c:	c6 05 90 4b 02 00 07 	movb   $0x7,0x24b90
   11713:	e8 db fb ff ff       	call   112f3 <Clear_Screen>
   11718:	e8 22 eb ff ff       	call   1023f <Interrupts_Enabled>
   1171d:	84 c0                	test   %al,%al
   1171f:	74 4a                	je     1176b <Init_Screen+0xda>
   11721:	c7 04 24 4f 00 00 00 	movl   $0x4f,(%esp)
   11728:	e8 8e fa ff ff       	call   111bb <Set_Current_Attr>
   1172d:	a1 6c 5e 02 00       	mov    0x25e6c,%eax
   11732:	89 44 24 18          	mov    %eax,0x18(%esp)
   11736:	8b 45 04             	mov    0x4(%ebp),%eax
   11739:	89 44 24 14          	mov    %eax,0x14(%esp)
   1173d:	c7 44 24 10 99 00 00 	movl   $0x99,0x10(%esp)
   11744:	00 
   11745:	c7 44 24 0c fe f0 01 	movl   $0x1f0fe,0xc(%esp)
   1174c:	00 
   1174d:	c7 44 24 08 52 ef 01 	movl   $0x1ef52,0x8(%esp)
   11754:	00 
   11755:	c7 44 24 04 fd f4 01 	movl   $0x1f4fd,0x4(%esp)
   1175c:	00 
   1175d:	c7 04 24 34 ee 01 00 	movl   $0x1ee34,(%esp)
   11764:	e8 fd f8 ff ff       	call   11066 <Print>
   11769:	eb fe                	jmp    11769 <Init_Screen+0xd8>
   1176b:	e8 cf ea ff ff       	call   1023f <Interrupts_Enabled>
   11770:	84 c0                	test   %al,%al
   11772:	74 4a                	je     117be <Init_Screen+0x12d>
   11774:	c7 04 24 4f 00 00 00 	movl   $0x4f,(%esp)
   1177b:	e8 3b fa ff ff       	call   111bb <Set_Current_Attr>
   11780:	a1 6c 5e 02 00       	mov    0x25e6c,%eax
   11785:	89 44 24 18          	mov    %eax,0x18(%esp)
   11789:	8b 45 04             	mov    0x4(%ebp),%eax
   1178c:	89 44 24 14          	mov    %eax,0x14(%esp)
   11790:	c7 44 24 10 9c 00 00 	movl   $0x9c,0x10(%esp)
   11797:	00 
   11798:	c7 44 24 0c fe f0 01 	movl   $0x1f0fe,0xc(%esp)
   1179f:	00 
   117a0:	c7 44 24 08 52 ef 01 	movl   $0x1ef52,0x8(%esp)
   117a7:	00 
   117a8:	c7 44 24 04 fd f4 01 	movl   $0x1f4fd,0x4(%esp)
   117af:	00 
   117b0:	c7 04 24 34 ee 01 00 	movl   $0x1ee34,(%esp)
   117b7:	e8 aa f8 ff ff       	call   11066 <Print>
   117bc:	eb fe                	jmp    117bc <Init_Screen+0x12b>
   117be:	fb                   	sti    
   117bf:	eb 2d                	jmp    117ee <Init_Screen+0x15d>
   117c1:	c7 05 84 4b 02 00 00 	movl   $0x0,0x24b84
   117c8:	00 00 00 
   117cb:	c7 05 80 4b 02 00 00 	movl   $0x0,0x24b80
   117d2:	00 00 00 
   117d5:	c6 05 90 4b 02 00 07 	movb   $0x7,0x24b90
   117dc:	e8 12 fb ff ff       	call   112f3 <Clear_Screen>
   117e1:	e8 59 ea ff ff       	call   1023f <Interrupts_Enabled>
   117e6:	84 c0                	test   %al,%al
   117e8:	0f 85 33 ff ff ff    	jne    11721 <Init_Screen+0x90>
   117ee:	c9                   	leave  
   117ef:	90                   	nop
   117f0:	c3                   	ret    

000117f1 <Put_Cursor>:
   117f1:	55                   	push   %ebp
   117f2:	89 e5                	mov    %esp,%ebp
   117f4:	57                   	push   %edi
   117f5:	56                   	push   %esi
   117f6:	53                   	push   %ebx
   117f7:	83 ec 2c             	sub    $0x2c,%esp
   117fa:	8b 7d 08             	mov    0x8(%ebp),%edi
   117fd:	8b 75 0c             	mov    0xc(%ebp),%esi
   11800:	83 ff 18             	cmp    $0x18,%edi
   11803:	0f 87 2b 01 00 00    	ja     11934 <Put_Cursor+0x143>
   11809:	bb 00 00 00 00       	mov    $0x0,%ebx
   1180e:	83 fe 4f             	cmp    $0x4f,%esi
   11811:	0f 87 47 01 00 00    	ja     1195e <Put_Cursor+0x16d>
   11817:	e8 23 ea ff ff       	call   1023f <Interrupts_Enabled>
   1181c:	84 c0                	test   %al,%al
   1181e:	0f 84 17 01 00 00    	je     1193b <Put_Cursor+0x14a>
   11824:	e8 16 ea ff ff       	call   1023f <Interrupts_Enabled>
   11829:	89 c3                	mov    %eax,%ebx
   1182b:	84 c0                	test   %al,%al
   1182d:	75 4a                	jne    11879 <Put_Cursor+0x88>
   1182f:	c7 04 24 4f 00 00 00 	movl   $0x4f,(%esp)
   11836:	e8 80 f9 ff ff       	call   111bb <Set_Current_Attr>
   1183b:	a1 6c 5e 02 00       	mov    0x25e6c,%eax
   11840:	89 44 24 18          	mov    %eax,0x18(%esp)
   11844:	8b 45 04             	mov    0x4(%ebp),%eax
   11847:	89 44 24 14          	mov    %eax,0x14(%esp)
   1184b:	c7 44 24 10 8f 00 00 	movl   $0x8f,0x10(%esp)
   11852:	00 
   11853:	c7 44 24 0c fe f0 01 	movl   $0x1f0fe,0xc(%esp)
   1185a:	00 
   1185b:	c7 44 24 08 53 ef 01 	movl   $0x1ef53,0x8(%esp)
   11862:	00 
   11863:	c7 44 24 04 0c f5 01 	movl   $0x1f50c,0x4(%esp)
   1186a:	00 
   1186b:	c7 04 24 34 ee 01 00 	movl   $0x1ee34,(%esp)
   11872:	e8 ef f7 ff ff       	call   11066 <Print>
   11877:	eb fe                	jmp    11877 <Put_Cursor+0x86>
   11879:	fa                   	cli    
   1187a:	89 3d 80 4b 02 00    	mov    %edi,0x24b80
   11880:	89 35 84 4b 02 00    	mov    %esi,0x24b84
   11886:	e8 18 f7 ff ff       	call   10fa3 <Update_Cursor>
   1188b:	e8 af e9 ff ff       	call   1023f <Interrupts_Enabled>
   11890:	84 c0                	test   %al,%al
   11892:	74 4a                	je     118de <Put_Cursor+0xed>
   11894:	c7 04 24 4f 00 00 00 	movl   $0x4f,(%esp)
   1189b:	e8 1b f9 ff ff       	call   111bb <Set_Current_Attr>
   118a0:	a1 6c 5e 02 00       	mov    0x25e6c,%eax
   118a5:	89 44 24 18          	mov    %eax,0x18(%esp)
   118a9:	8b 45 04             	mov    0x4(%ebp),%eax
   118ac:	89 44 24 14          	mov    %eax,0x14(%esp)
   118b0:	c7 44 24 10 99 00 00 	movl   $0x99,0x10(%esp)
   118b7:	00 
   118b8:	c7 44 24 0c fe f0 01 	movl   $0x1f0fe,0xc(%esp)
   118bf:	00 
   118c0:	c7 44 24 08 52 ef 01 	movl   $0x1ef52,0x8(%esp)
   118c7:	00 
   118c8:	c7 44 24 04 fd f4 01 	movl   $0x1f4fd,0x4(%esp)
   118cf:	00 
   118d0:	c7 04 24 34 ee 01 00 	movl   $0x1ee34,(%esp)
   118d7:	e8 8a f7 ff ff       	call   11066 <Print>
   118dc:	eb fe                	jmp    118dc <Put_Cursor+0xeb>
   118de:	e8 5c e9 ff ff       	call   1023f <Interrupts_Enabled>
   118e3:	84 c0                	test   %al,%al
   118e5:	74 4a                	je     11931 <Put_Cursor+0x140>
   118e7:	c7 04 24 4f 00 00 00 	movl   $0x4f,(%esp)
   118ee:	e8 c8 f8 ff ff       	call   111bb <Set_Current_Attr>
   118f3:	a1 6c 5e 02 00       	mov    0x25e6c,%eax
   118f8:	89 44 24 18          	mov    %eax,0x18(%esp)
   118fc:	8b 45 04             	mov    0x4(%ebp),%eax
   118ff:	89 44 24 14          	mov    %eax,0x14(%esp)
   11903:	c7 44 24 10 9c 00 00 	movl   $0x9c,0x10(%esp)
   1190a:	00 
   1190b:	c7 44 24 0c fe f0 01 	movl   $0x1f0fe,0xc(%esp)
   11912:	00 
   11913:	c7 44 24 08 52 ef 01 	movl   $0x1ef52,0x8(%esp)
   1191a:	00 
   1191b:	c7 44 24 04 fd f4 01 	movl   $0x1f4fd,0x4(%esp)
   11922:	00 
   11923:	c7 04 24 34 ee 01 00 	movl   $0x1ee34,(%esp)
   1192a:	e8 37 f7 ff ff       	call   11066 <Print>
   1192f:	eb fe                	jmp    1192f <Put_Cursor+0x13e>
   11931:	fb                   	sti    
   11932:	eb 2a                	jmp    1195e <Put_Cursor+0x16d>
   11934:	bb 00 00 00 00       	mov    $0x0,%ebx
   11939:	eb 23                	jmp    1195e <Put_Cursor+0x16d>
   1193b:	89 3d 80 4b 02 00    	mov    %edi,0x24b80
   11941:	89 35 84 4b 02 00    	mov    %esi,0x24b84
   11947:	e8 57 f6 ff ff       	call   10fa3 <Update_Cursor>
   1194c:	e8 ee e8 ff ff       	call   1023f <Interrupts_Enabled>
   11951:	84 c0                	test   %al,%al
   11953:	0f 85 3b ff ff ff    	jne    11894 <Put_Cursor+0xa3>
   11959:	bb 01 00 00 00       	mov    $0x1,%ebx
   1195e:	89 d8                	mov    %ebx,%eax
   11960:	83 c4 2c             	add    $0x2c,%esp
   11963:	5b                   	pop    %ebx
   11964:	5e                   	pop    %esi
   11965:	5f                   	pop    %edi
   11966:	5d                   	pop    %ebp
   11967:	c3                   	ret    

00011968 <Put_Char_Imp>:
   11968:	55                   	push   %ebp
   11969:	89 e5                	mov    %esp,%ebp
   1196b:	56                   	push   %esi
   1196c:	53                   	push   %ebx
   1196d:	83 ec 20             	sub    $0x20,%esp
   11970:	89 c3                	mov    %eax,%ebx
   11972:	8d 70 d0             	lea    -0x30(%eax),%esi
   11975:	83 3d 94 4b 02 00 04 	cmpl   $0x4,0x24b94
   1197c:	0f 87 13 03 00 00    	ja     11c95 <Put_Char_Imp+0x32d>
   11982:	a1 94 4b 02 00       	mov    0x24b94,%eax
   11987:	ff 24 85 f4 f3 01 00 	jmp    *0x1f3f4(,%eax,4)
   1198e:	83 fb 1b             	cmp    $0x1b,%ebx
   11991:	75 19                	jne    119ac <Put_Char_Imp+0x44>
   11993:	c7 05 94 4b 02 00 01 	movl   $0x1,0x24b94
   1199a:	00 00 00 
   1199d:	c7 05 b8 4b 02 00 00 	movl   $0x0,0x24bb8
   119a4:	00 00 00 
   119a7:	e9 33 03 00 00       	jmp    11cdf <Put_Char_Imp+0x377>
   119ac:	83 fb 09             	cmp    $0x9,%ebx
   119af:	74 16                	je     119c7 <Put_Char_Imp+0x5f>
   119b1:	83 fb 0a             	cmp    $0xa,%ebx
   119b4:	75 49                	jne    119ff <Put_Char_Imp+0x97>
   119b6:	e8 c5 f4 ff ff       	call   10e80 <Clear_To_EOL>
   119bb:	90                   	nop
   119bc:	8d 74 26 00          	lea    0x0(%esi,%eiz,1),%esi
   119c0:	e8 08 f5 ff ff       	call   10ecd <Newline>
   119c5:	eb 3f                	jmp    11a06 <Put_Char_Imp+0x9e>
   119c7:	a1 84 4b 02 00       	mov    0x24b84,%eax
   119cc:	99                   	cltd   
   119cd:	c1 ea 1d             	shr    $0x1d,%edx
   119d0:	01 d0                	add    %edx,%eax
   119d2:	83 e0 07             	and    $0x7,%eax
   119d5:	29 d0                	sub    %edx,%eax
   119d7:	be 07 00 00 00       	mov    $0x7,%esi
   119dc:	29 c6                	sub    %eax,%esi
   119de:	ba 08 00 00 00       	mov    $0x8,%edx
   119e3:	29 c2                	sub    %eax,%edx
   119e5:	85 d2                	test   %edx,%edx
   119e7:	7e 1d                	jle    11a06 <Put_Char_Imp+0x9e>
   119e9:	b8 20 00 00 00       	mov    $0x20,%eax
   119ee:	e8 40 f5 ff ff       	call   10f33 <Put_Graphic_Char>
   119f3:	83 ee 01             	sub    $0x1,%esi
   119f6:	8d 46 01             	lea    0x1(%esi),%eax
   119f9:	85 c0                	test   %eax,%eax
   119fb:	7f ec                	jg     119e9 <Put_Char_Imp+0x81>
   119fd:	eb 07                	jmp    11a06 <Put_Char_Imp+0x9e>
   119ff:	89 d8                	mov    %ebx,%eax
   11a01:	e8 2d f5 ff ff       	call   10f33 <Put_Graphic_Char>
   11a06:	0f b6 db             	movzbl %bl,%ebx
   11a09:	89 5c 24 04          	mov    %ebx,0x4(%esp)
   11a0d:	c7 04 24 e9 00 00 00 	movl   $0xe9,(%esp)
   11a14:	e8 1a ef ff ff       	call   10933 <Out_Byte>
   11a19:	e9 c1 02 00 00       	jmp    11cdf <Put_Char_Imp+0x377>
   11a1e:	83 fb 5b             	cmp    $0x5b,%ebx
   11a21:	75 0f                	jne    11a32 <Put_Char_Imp+0xca>
   11a23:	c7 05 94 4b 02 00 02 	movl   $0x2,0x24b94
   11a2a:	00 00 00 
   11a2d:	e9 ad 02 00 00       	jmp    11cdf <Put_Char_Imp+0x377>
   11a32:	c7 05 94 4b 02 00 00 	movl   $0x0,0x24b94
   11a39:	00 00 00 
   11a3c:	c7 05 b8 4b 02 00 00 	movl   $0x0,0x24bb8
   11a43:	00 00 00 
   11a46:	e9 94 02 00 00       	jmp    11cdf <Put_Char_Imp+0x377>
   11a4b:	83 fe 09             	cmp    $0x9,%esi
   11a4e:	77 0f                	ja     11a5f <Put_Char_Imp+0xf7>
   11a50:	b8 00 00 00 00       	mov    $0x0,%eax
   11a55:	e8 6c fa ff ff       	call   114c6 <Start_Arg>
   11a5a:	e9 16 ff ff ff       	jmp    11975 <Put_Char_Imp+0xd>
   11a5f:	83 fb 3b             	cmp    $0x3b,%ebx
   11a62:	75 23                	jne    11a87 <Put_Char_Imp+0x11f>
   11a64:	b8 00 00 00 00       	mov    $0x0,%eax
   11a69:	e8 58 fa ff ff       	call   114c6 <Start_Arg>
   11a6e:	b8 31 00 00 00       	mov    $0x31,%eax
   11a73:	e8 d4 f9 ff ff       	call   1144c <Add_Digit>
   11a78:	b8 01 00 00 00       	mov    $0x1,%eax
   11a7d:	e8 44 fa ff ff       	call   114c6 <Start_Arg>
   11a82:	e9 58 02 00 00       	jmp    11cdf <Put_Char_Imp+0x377>
   11a87:	c7 05 94 4b 02 00 04 	movl   $0x4,0x24b94
   11a8e:	00 00 00 
   11a91:	e9 df fe ff ff       	jmp    11975 <Put_Char_Imp+0xd>
   11a96:	83 fe 09             	cmp    $0x9,%esi
   11a99:	77 0c                	ja     11aa7 <Put_Char_Imp+0x13f>
   11a9b:	89 d8                	mov    %ebx,%eax
   11a9d:	e8 aa f9 ff ff       	call   1144c <Add_Digit>
   11aa2:	e9 38 02 00 00       	jmp    11cdf <Put_Char_Imp+0x377>
   11aa7:	83 fb 3b             	cmp    $0x3b,%ebx
   11aaa:	75 0f                	jne    11abb <Put_Char_Imp+0x153>
   11aac:	a1 b8 4b 02 00       	mov    0x24bb8,%eax
   11ab1:	e8 10 fa ff ff       	call   114c6 <Start_Arg>
   11ab6:	e9 24 02 00 00       	jmp    11cdf <Put_Char_Imp+0x377>
   11abb:	c7 05 94 4b 02 00 04 	movl   $0x4,0x24b94
   11ac2:	00 00 00 
   11ac5:	e9 ab fe ff ff       	jmp    11975 <Put_Char_Imp+0xd>
   11aca:	83 eb 41             	sub    $0x41,%ebx
   11acd:	83 fb 34             	cmp    $0x34,%ebx
   11ad0:	0f 87 a9 01 00 00    	ja     11c7f <Put_Char_Imp+0x317>
   11ad6:	ff 24 9d 08 f4 01 00 	jmp    *0x1f408(,%ebx,4)
   11add:	8d 76 00             	lea    0x0(%esi),%esi
   11ae0:	e8 9b f3 ff ff       	call   10e80 <Clear_To_EOL>
   11ae5:	e9 95 01 00 00       	jmp    11c7f <Put_Char_Imp+0x317>
   11aea:	a1 80 4b 02 00       	mov    0x24b80,%eax
   11aef:	a3 88 4b 02 00       	mov    %eax,0x24b88
   11af4:	a1 84 4b 02 00       	mov    0x24b84,%eax
   11af9:	a3 8c 4b 02 00       	mov    %eax,0x24b8c
   11afe:	e9 7c 01 00 00       	jmp    11c7f <Put_Char_Imp+0x317>
   11b03:	a1 88 4b 02 00       	mov    0x24b88,%eax
   11b08:	a3 80 4b 02 00       	mov    %eax,0x24b80
   11b0d:	a1 8c 4b 02 00       	mov    0x24b8c,%eax
   11b12:	a3 84 4b 02 00       	mov    %eax,0x24b84
   11b17:	e9 63 01 00 00       	jmp    11c7f <Put_Char_Imp+0x317>
   11b1c:	83 3d b8 4b 02 00 00 	cmpl   $0x0,0x24bb8
   11b23:	b8 00 00 00 00       	mov    $0x0,%eax
   11b28:	0f 4f 05 98 4b 02 00 	cmovg  0x24b98,%eax
   11b2f:	8b 0d 80 4b 02 00    	mov    0x24b80,%ecx
   11b35:	29 c1                	sub    %eax,%ecx
   11b37:	89 c8                	mov    %ecx,%eax
   11b39:	8b 15 84 4b 02 00    	mov    0x24b84,%edx
   11b3f:	e8 30 f4 ff ff       	call   10f74 <Move_Cursor>
   11b44:	e9 36 01 00 00       	jmp    11c7f <Put_Char_Imp+0x317>
   11b49:	83 3d b8 4b 02 00 00 	cmpl   $0x0,0x24bb8
   11b50:	b8 00 00 00 00       	mov    $0x0,%eax
   11b55:	0f 4f 05 98 4b 02 00 	cmovg  0x24b98,%eax
   11b5c:	03 05 80 4b 02 00    	add    0x24b80,%eax
   11b62:	8b 15 84 4b 02 00    	mov    0x24b84,%edx
   11b68:	e8 07 f4 ff ff       	call   10f74 <Move_Cursor>
   11b6d:	e9 0d 01 00 00       	jmp    11c7f <Put_Char_Imp+0x317>
   11b72:	83 3d b8 4b 02 00 00 	cmpl   $0x0,0x24bb8
   11b79:	ba 00 00 00 00       	mov    $0x0,%edx
   11b7e:	0f 4f 15 98 4b 02 00 	cmovg  0x24b98,%edx
   11b85:	03 15 84 4b 02 00    	add    0x24b84,%edx
   11b8b:	a1 80 4b 02 00       	mov    0x24b80,%eax
   11b90:	e8 df f3 ff ff       	call   10f74 <Move_Cursor>
   11b95:	e9 e5 00 00 00       	jmp    11c7f <Put_Char_Imp+0x317>
   11b9a:	83 3d b8 4b 02 00 00 	cmpl   $0x0,0x24bb8
   11ba1:	b8 00 00 00 00       	mov    $0x0,%eax
   11ba6:	0f 4f 05 98 4b 02 00 	cmovg  0x24b98,%eax
   11bad:	8b 15 84 4b 02 00    	mov    0x24b84,%edx
   11bb3:	29 c2                	sub    %eax,%edx
   11bb5:	a1 80 4b 02 00       	mov    0x24b80,%eax
   11bba:	e8 b5 f3 ff ff       	call   10f74 <Move_Cursor>
   11bbf:	e9 bb 00 00 00       	jmp    11c7f <Put_Char_Imp+0x317>
   11bc4:	0f b6 05 90 4b 02 00 	movzbl 0x24b90,%eax
   11bcb:	83 e0 f7             	and    $0xfffffff7,%eax
   11bce:	8b 1d b8 4b 02 00    	mov    0x24bb8,%ebx
   11bd4:	85 db                	test   %ebx,%ebx
   11bd6:	7e 55                	jle    11c2d <Put_Char_Imp+0x2c5>
   11bd8:	b9 00 00 00 00       	mov    $0x0,%ecx
   11bdd:	8b 14 8d 98 4b 02 00 	mov    0x24b98(,%ecx,4),%edx
   11be4:	85 d2                	test   %edx,%edx
   11be6:	74 39                	je     11c21 <Put_Char_Imp+0x2b9>
   11be8:	83 fa 01             	cmp    $0x1,%edx
   11beb:	75 05                	jne    11bf2 <Put_Char_Imp+0x28a>
   11bed:	83 c8 08             	or     $0x8,%eax
   11bf0:	eb 34                	jmp    11c26 <Put_Char_Imp+0x2be>
   11bf2:	8d 72 e2             	lea    -0x1e(%edx),%esi
   11bf5:	83 fe 07             	cmp    $0x7,%esi
   11bf8:	77 0e                	ja     11c08 <Put_Char_Imp+0x2a0>
   11bfa:	83 e0 f8             	and    $0xfffffff8,%eax
   11bfd:	0f b6 92 ff f4 01 00 	movzbl 0x1f4ff(%edx),%edx
   11c04:	09 d0                	or     %edx,%eax
   11c06:	eb 1e                	jmp    11c26 <Put_Char_Imp+0x2be>
   11c08:	8d 72 d8             	lea    -0x28(%edx),%esi
   11c0b:	83 fe 07             	cmp    $0x7,%esi
   11c0e:	77 16                	ja     11c26 <Put_Char_Imp+0x2be>
   11c10:	83 e0 8f             	and    $0xffffff8f,%eax
   11c13:	0f b6 92 f5 f4 01 00 	movzbl 0x1f4f5(%edx),%edx
   11c1a:	c1 e2 04             	shl    $0x4,%edx
   11c1d:	09 d0                	or     %edx,%eax
   11c1f:	eb 05                	jmp    11c26 <Put_Char_Imp+0x2be>
   11c21:	b8 07 00 00 00       	mov    $0x7,%eax
   11c26:	83 c1 01             	add    $0x1,%ecx
   11c29:	39 d9                	cmp    %ebx,%ecx
   11c2b:	75 b0                	jne    11bdd <Put_Char_Imp+0x275>
   11c2d:	a2 90 4b 02 00       	mov    %al,0x24b90
   11c32:	eb 4b                	jmp    11c7f <Put_Char_Imp+0x317>
   11c34:	83 3d b8 4b 02 00 02 	cmpl   $0x2,0x24bb8
   11c3b:	75 42                	jne    11c7f <Put_Char_Imp+0x317>
   11c3d:	a1 9c 4b 02 00       	mov    0x24b9c,%eax
   11c42:	8d 50 ff             	lea    -0x1(%eax),%edx
   11c45:	a1 98 4b 02 00       	mov    0x24b98,%eax
   11c4a:	83 e8 01             	sub    $0x1,%eax
   11c4d:	e8 22 f3 ff ff       	call   10f74 <Move_Cursor>
   11c52:	eb 2b                	jmp    11c7f <Put_Char_Imp+0x317>
   11c54:	83 3d b8 4b 02 00 01 	cmpl   $0x1,0x24bb8
   11c5b:	75 22                	jne    11c7f <Put_Char_Imp+0x317>
   11c5d:	83 3d 98 4b 02 00 02 	cmpl   $0x2,0x24b98
   11c64:	75 19                	jne    11c7f <Put_Char_Imp+0x317>
   11c66:	e8 88 f6 ff ff       	call   112f3 <Clear_Screen>
   11c6b:	c7 44 24 04 00 00 00 	movl   $0x0,0x4(%esp)
   11c72:	00 
   11c73:	c7 04 24 00 00 00 00 	movl   $0x0,(%esp)
   11c7a:	e8 72 fb ff ff       	call   117f1 <Put_Cursor>
   11c7f:	c7 05 94 4b 02 00 00 	movl   $0x0,0x24b94
   11c86:	00 00 00 
   11c89:	c7 05 b8 4b 02 00 00 	movl   $0x0,0x24bb8
   11c90:	00 00 00 
   11c93:	eb 4a                	jmp    11cdf <Put_Char_Imp+0x377>
   11c95:	c7 04 24 4f 00 00 00 	movl   $0x4f,(%esp)
   11c9c:	e8 1a f5 ff ff       	call   111bb <Set_Current_Attr>
   11ca1:	a1 6c 5e 02 00       	mov    0x25e6c,%eax
   11ca6:	89 44 24 18          	mov    %eax,0x18(%esp)
   11caa:	8b 45 04             	mov    0x4(%ebp),%eax
   11cad:	89 44 24 14          	mov    %eax,0x14(%esp)
   11cb1:	c7 44 24 10 5a 01 00 	movl   $0x15a,0x10(%esp)
   11cb8:	00 
   11cb9:	c7 44 24 0c b0 f3 01 	movl   $0x1f3b0,0xc(%esp)
   11cc0:	00 
   11cc1:	c7 44 24 08 eb f3 01 	movl   $0x1f3eb,0x8(%esp)
   11cc8:	00 
   11cc9:	c7 44 24 04 f0 f4 01 	movl   $0x1f4f0,0x4(%esp)
   11cd0:	00 
   11cd1:	c7 04 24 34 ee 01 00 	movl   $0x1ee34,(%esp)
   11cd8:	e8 89 f3 ff ff       	call   11066 <Print>
   11cdd:	eb fe                	jmp    11cdd <Put_Char_Imp+0x375>
   11cdf:	83 c4 20             	add    $0x20,%esp
   11ce2:	5b                   	pop    %ebx
   11ce3:	5e                   	pop    %esi
   11ce4:	5d                   	pop    %ebp
   11ce5:	c3                   	ret    

00011ce6 <Put_Char>:
   11ce6:	55                   	push   %ebp
   11ce7:	89 e5                	mov    %esp,%ebp
   11ce9:	53                   	push   %ebx
   11cea:	83 ec 24             	sub    $0x24,%esp
   11ced:	8b 5d 08             	mov    0x8(%ebp),%ebx
   11cf0:	e8 4a e5 ff ff       	call   1023f <Interrupts_Enabled>
   11cf5:	84 c0                	test   %al,%al
   11cf7:	0f 84 09 01 00 00    	je     11e06 <Put_Char+0x120>
   11cfd:	e8 3d e5 ff ff       	call   1023f <Interrupts_Enabled>
   11d02:	84 c0                	test   %al,%al
   11d04:	75 4a                	jne    11d50 <Put_Char+0x6a>
   11d06:	c7 04 24 4f 00 00 00 	movl   $0x4f,(%esp)
   11d0d:	e8 a9 f4 ff ff       	call   111bb <Set_Current_Attr>
   11d12:	a1 6c 5e 02 00       	mov    0x25e6c,%eax
   11d17:	89 44 24 18          	mov    %eax,0x18(%esp)
   11d1b:	8b 45 04             	mov    0x4(%ebp),%eax
   11d1e:	89 44 24 14          	mov    %eax,0x14(%esp)
   11d22:	c7 44 24 10 8f 00 00 	movl   $0x8f,0x10(%esp)
   11d29:	00 
   11d2a:	c7 44 24 0c fe f0 01 	movl   $0x1f0fe,0xc(%esp)
   11d31:	00 
   11d32:	c7 44 24 08 53 ef 01 	movl   $0x1ef53,0x8(%esp)
   11d39:	00 
   11d3a:	c7 44 24 04 0c f5 01 	movl   $0x1f50c,0x4(%esp)
   11d41:	00 
   11d42:	c7 04 24 34 ee 01 00 	movl   $0x1ee34,(%esp)
   11d49:	e8 18 f3 ff ff       	call   11066 <Print>
   11d4e:	eb fe                	jmp    11d4e <Put_Char+0x68>
   11d50:	fa                   	cli    
   11d51:	89 d8                	mov    %ebx,%eax
   11d53:	e8 10 fc ff ff       	call   11968 <Put_Char_Imp>
   11d58:	e8 46 f2 ff ff       	call   10fa3 <Update_Cursor>
   11d5d:	e8 dd e4 ff ff       	call   1023f <Interrupts_Enabled>
   11d62:	84 c0                	test   %al,%al
   11d64:	74 4a                	je     11db0 <Put_Char+0xca>
   11d66:	c7 04 24 4f 00 00 00 	movl   $0x4f,(%esp)
   11d6d:	e8 49 f4 ff ff       	call   111bb <Set_Current_Attr>
   11d72:	a1 6c 5e 02 00       	mov    0x25e6c,%eax
   11d77:	89 44 24 18          	mov    %eax,0x18(%esp)
   11d7b:	8b 45 04             	mov    0x4(%ebp),%eax
   11d7e:	89 44 24 14          	mov    %eax,0x14(%esp)
   11d82:	c7 44 24 10 99 00 00 	movl   $0x99,0x10(%esp)
   11d89:	00 
   11d8a:	c7 44 24 0c fe f0 01 	movl   $0x1f0fe,0xc(%esp)
   11d91:	00 
   11d92:	c7 44 24 08 52 ef 01 	movl   $0x1ef52,0x8(%esp)
   11d99:	00 
   11d9a:	c7 44 24 04 fd f4 01 	movl   $0x1f4fd,0x4(%esp)
   11da1:	00 
   11da2:	c7 04 24 34 ee 01 00 	movl   $0x1ee34,(%esp)
   11da9:	e8 b8 f2 ff ff       	call   11066 <Print>
   11dae:	eb fe                	jmp    11dae <Put_Char+0xc8>
   11db0:	e8 8a e4 ff ff       	call   1023f <Interrupts_Enabled>
   11db5:	84 c0                	test   %al,%al
   11db7:	74 4a                	je     11e03 <Put_Char+0x11d>
   11db9:	c7 04 24 4f 00 00 00 	movl   $0x4f,(%esp)
   11dc0:	e8 f6 f3 ff ff       	call   111bb <Set_Current_Attr>
   11dc5:	a1 6c 5e 02 00       	mov    0x25e6c,%eax
   11dca:	89 44 24 18          	mov    %eax,0x18(%esp)
   11dce:	8b 45 04             	mov    0x4(%ebp),%eax
   11dd1:	89 44 24 14          	mov    %eax,0x14(%esp)
   11dd5:	c7 44 24 10 9c 00 00 	movl   $0x9c,0x10(%esp)
   11ddc:	00 
   11ddd:	c7 44 24 0c fe f0 01 	movl   $0x1f0fe,0xc(%esp)
   11de4:	00 
   11de5:	c7 44 24 08 52 ef 01 	movl   $0x1ef52,0x8(%esp)
   11dec:	00 
   11ded:	c7 44 24 04 fd f4 01 	movl   $0x1f4fd,0x4(%esp)
   11df4:	00 
   11df5:	c7 04 24 34 ee 01 00 	movl   $0x1ee34,(%esp)
   11dfc:	e8 65 f2 ff ff       	call   11066 <Print>
   11e01:	eb fe                	jmp    11e01 <Put_Char+0x11b>
   11e03:	fb                   	sti    
   11e04:	eb 21                	jmp    11e27 <Put_Char+0x141>
   11e06:	89 d8                	mov    %ebx,%eax
   11e08:	90                   	nop
   11e09:	8d b4 26 00 00 00 00 	lea    0x0(%esi,%eiz,1),%esi
   11e10:	e8 53 fb ff ff       	call   11968 <Put_Char_Imp>
   11e15:	e8 89 f1 ff ff       	call   10fa3 <Update_Cursor>
   11e1a:	e8 20 e4 ff ff       	call   1023f <Interrupts_Enabled>
   11e1f:	84 c0                	test   %al,%al
   11e21:	0f 85 3f ff ff ff    	jne    11d66 <Put_Char+0x80>
   11e27:	83 c4 24             	add    $0x24,%esp
   11e2a:	5b                   	pop    %ebx
   11e2b:	5d                   	pop    %ebp
   11e2c:	c3                   	ret    

00011e2d <Print_Emit>:
   11e2d:	55                   	push   %ebp
   11e2e:	89 e5                	mov    %esp,%ebp
   11e30:	83 ec 08             	sub    $0x8,%esp
   11e33:	8b 45 0c             	mov    0xc(%ebp),%eax
   11e36:	e8 2d fb ff ff       	call   11968 <Put_Char_Imp>
   11e3b:	c9                   	leave  
   11e3c:	c3                   	ret    

00011e3d <Put_String>:
   11e3d:	55                   	push   %ebp
   11e3e:	89 e5                	mov    %esp,%ebp
   11e40:	56                   	push   %esi
   11e41:	53                   	push   %ebx
   11e42:	83 ec 20             	sub    $0x20,%esp
   11e45:	8b 5d 08             	mov    0x8(%ebp),%ebx
   11e48:	e8 f2 e3 ff ff       	call   1023f <Interrupts_Enabled>
   11e4d:	89 c6                	mov    %eax,%esi
   11e4f:	84 c0                	test   %al,%al
   11e51:	74 54                	je     11ea7 <Put_String+0x6a>
   11e53:	e8 e7 e3 ff ff       	call   1023f <Interrupts_Enabled>
   11e58:	84 c0                	test   %al,%al
   11e5a:	75 4a                	jne    11ea6 <Put_String+0x69>
   11e5c:	c7 04 24 4f 00 00 00 	movl   $0x4f,(%esp)
   11e63:	e8 53 f3 ff ff       	call   111bb <Set_Current_Attr>
   11e68:	a1 6c 5e 02 00       	mov    0x25e6c,%eax
   11e6d:	89 44 24 18          	mov    %eax,0x18(%esp)
   11e71:	8b 45 04             	mov    0x4(%ebp),%eax
   11e74:	89 44 24 14          	mov    %eax,0x14(%esp)
   11e78:	c7 44 24 10 8f 00 00 	movl   $0x8f,0x10(%esp)
   11e7f:	00 
   11e80:	c7 44 24 0c fe f0 01 	movl   $0x1f0fe,0xc(%esp)
   11e87:	00 
   11e88:	c7 44 24 08 53 ef 01 	movl   $0x1ef53,0x8(%esp)
   11e8f:	00 
   11e90:	c7 44 24 04 0c f5 01 	movl   $0x1f50c,0x4(%esp)
   11e97:	00 
   11e98:	c7 04 24 34 ee 01 00 	movl   $0x1ee34,(%esp)
   11e9f:	e8 c2 f1 ff ff       	call   11066 <Print>
   11ea4:	eb fe                	jmp    11ea4 <Put_String+0x67>
   11ea6:	fa                   	cli    
   11ea7:	0f b6 13             	movzbl (%ebx),%edx
   11eaa:	84 d2                	test   %dl,%dl
   11eac:	74 12                	je     11ec0 <Put_String+0x83>
   11eae:	83 c3 01             	add    $0x1,%ebx
   11eb1:	0f be c2             	movsbl %dl,%eax
   11eb4:	e8 af fa ff ff       	call   11968 <Put_Char_Imp>
   11eb9:	0f b6 13             	movzbl (%ebx),%edx
   11ebc:	84 d2                	test   %dl,%dl
   11ebe:	75 ee                	jne    11eae <Put_String+0x71>
   11ec0:	e8 de f0 ff ff       	call   10fa3 <Update_Cursor>
   11ec5:	e8 75 e3 ff ff       	call   1023f <Interrupts_Enabled>
   11eca:	84 c0                	test   %al,%al
   11ecc:	74 4a                	je     11f18 <Put_String+0xdb>
   11ece:	c7 04 24 4f 00 00 00 	movl   $0x4f,(%esp)
   11ed5:	e8 e1 f2 ff ff       	call   111bb <Set_Current_Attr>
   11eda:	a1 6c 5e 02 00       	mov    0x25e6c,%eax
   11edf:	89 44 24 18          	mov    %eax,0x18(%esp)
   11ee3:	8b 45 04             	mov    0x4(%ebp),%eax
   11ee6:	89 44 24 14          	mov    %eax,0x14(%esp)
   11eea:	c7 44 24 10 99 00 00 	movl   $0x99,0x10(%esp)
   11ef1:	00 
   11ef2:	c7 44 24 0c fe f0 01 	movl   $0x1f0fe,0xc(%esp)
   11ef9:	00 
   11efa:	c7 44 24 08 52 ef 01 	movl   $0x1ef52,0x8(%esp)
   11f01:	00 
   11f02:	c7 44 24 04 fd f4 01 	movl   $0x1f4fd,0x4(%esp)
   11f09:	00 
   11f0a:	c7 04 24 34 ee 01 00 	movl   $0x1ee34,(%esp)
   11f11:	e8 50 f1 ff ff       	call   11066 <Print>
   11f16:	eb fe                	jmp    11f16 <Put_String+0xd9>
   11f18:	89 f0                	mov    %esi,%eax
   11f1a:	84 c0                	test   %al,%al
   11f1c:	74 56                	je     11f74 <Put_String+0x137>
   11f1e:	66 90                	xchg   %ax,%ax
   11f20:	e8 1a e3 ff ff       	call   1023f <Interrupts_Enabled>
   11f25:	84 c0                	test   %al,%al
   11f27:	74 4a                	je     11f73 <Put_String+0x136>
   11f29:	c7 04 24 4f 00 00 00 	movl   $0x4f,(%esp)
   11f30:	e8 86 f2 ff ff       	call   111bb <Set_Current_Attr>
   11f35:	a1 6c 5e 02 00       	mov    0x25e6c,%eax
   11f3a:	89 44 24 18          	mov    %eax,0x18(%esp)
   11f3e:	8b 45 04             	mov    0x4(%ebp),%eax
   11f41:	89 44 24 14          	mov    %eax,0x14(%esp)
   11f45:	c7 44 24 10 9c 00 00 	movl   $0x9c,0x10(%esp)
   11f4c:	00 
   11f4d:	c7 44 24 0c fe f0 01 	movl   $0x1f0fe,0xc(%esp)
   11f54:	00 
   11f55:	c7 44 24 08 52 ef 01 	movl   $0x1ef52,0x8(%esp)
   11f5c:	00 
   11f5d:	c7 44 24 04 fd f4 01 	movl   $0x1f4fd,0x4(%esp)
   11f64:	00 
   11f65:	c7 04 24 34 ee 01 00 	movl   $0x1ee34,(%esp)
   11f6c:	e8 f5 f0 ff ff       	call   11066 <Print>
   11f71:	eb fe                	jmp    11f71 <Put_String+0x134>
   11f73:	fb                   	sti    
   11f74:	83 c4 20             	add    $0x20,%esp
   11f77:	5b                   	pop    %ebx
   11f78:	5e                   	pop    %esi
   11f79:	5d                   	pop    %ebp
   11f7a:	c3                   	ret    

00011f7b <Put_Buf>:
   11f7b:	55                   	push   %ebp
   11f7c:	89 e5                	mov    %esp,%ebp
   11f7e:	57                   	push   %edi
   11f7f:	56                   	push   %esi
   11f80:	53                   	push   %ebx
   11f81:	83 ec 2c             	sub    $0x2c,%esp
   11f84:	8b 75 08             	mov    0x8(%ebp),%esi
   11f87:	8b 5d 0c             	mov    0xc(%ebp),%ebx
   11f8a:	e8 b0 e2 ff ff       	call   1023f <Interrupts_Enabled>
   11f8f:	89 c7                	mov    %eax,%edi
   11f91:	84 c0                	test   %al,%al
   11f93:	74 54                	je     11fe9 <Put_Buf+0x6e>
   11f95:	e8 a5 e2 ff ff       	call   1023f <Interrupts_Enabled>
   11f9a:	84 c0                	test   %al,%al
   11f9c:	75 4a                	jne    11fe8 <Put_Buf+0x6d>
   11f9e:	c7 04 24 4f 00 00 00 	movl   $0x4f,(%esp)
   11fa5:	e8 11 f2 ff ff       	call   111bb <Set_Current_Attr>
   11faa:	a1 6c 5e 02 00       	mov    0x25e6c,%eax
   11faf:	89 44 24 18          	mov    %eax,0x18(%esp)
   11fb3:	8b 45 04             	mov    0x4(%ebp),%eax
   11fb6:	89 44 24 14          	mov    %eax,0x14(%esp)
   11fba:	c7 44 24 10 8f 00 00 	movl   $0x8f,0x10(%esp)
   11fc1:	00 
   11fc2:	c7 44 24 0c fe f0 01 	movl   $0x1f0fe,0xc(%esp)
   11fc9:	00 
   11fca:	c7 44 24 08 53 ef 01 	movl   $0x1ef53,0x8(%esp)
   11fd1:	00 
   11fd2:	c7 44 24 04 0c f5 01 	movl   $0x1f50c,0x4(%esp)
   11fd9:	00 
   11fda:	c7 04 24 34 ee 01 00 	movl   $0x1ee34,(%esp)
   11fe1:	e8 80 f0 ff ff       	call   11066 <Print>
   11fe6:	eb fe                	jmp    11fe6 <Put_Buf+0x6b>
   11fe8:	fa                   	cli    
   11fe9:	85 db                	test   %ebx,%ebx
   11feb:	74 11                	je     11ffe <Put_Buf+0x83>
   11fed:	83 c6 01             	add    $0x1,%esi
   11ff0:	0f be 46 ff          	movsbl -0x1(%esi),%eax
   11ff4:	e8 6f f9 ff ff       	call   11968 <Put_Char_Imp>
   11ff9:	83 eb 01             	sub    $0x1,%ebx
   11ffc:	75 ef                	jne    11fed <Put_Buf+0x72>
   11ffe:	e8 a0 ef ff ff       	call   10fa3 <Update_Cursor>
   12003:	e8 37 e2 ff ff       	call   1023f <Interrupts_Enabled>
   12008:	84 c0                	test   %al,%al
   1200a:	74 4a                	je     12056 <Put_Buf+0xdb>
   1200c:	c7 04 24 4f 00 00 00 	movl   $0x4f,(%esp)
   12013:	e8 a3 f1 ff ff       	call   111bb <Set_Current_Attr>
   12018:	a1 6c 5e 02 00       	mov    0x25e6c,%eax
   1201d:	89 44 24 18          	mov    %eax,0x18(%esp)
   12021:	8b 45 04             	mov    0x4(%ebp),%eax
   12024:	89 44 24 14          	mov    %eax,0x14(%esp)
   12028:	c7 44 24 10 99 00 00 	movl   $0x99,0x10(%esp)
   1202f:	00 
   12030:	c7 44 24 0c fe f0 01 	movl   $0x1f0fe,0xc(%esp)
   12037:	00 
   12038:	c7 44 24 08 52 ef 01 	movl   $0x1ef52,0x8(%esp)
   1203f:	00 
   12040:	c7 44 24 04 fd f4 01 	movl   $0x1f4fd,0x4(%esp)
   12047:	00 
   12048:	c7 04 24 34 ee 01 00 	movl   $0x1ee34,(%esp)
   1204f:	e8 12 f0 ff ff       	call   11066 <Print>
   12054:	eb fe                	jmp    12054 <Put_Buf+0xd9>
   12056:	89 f8                	mov    %edi,%eax
   12058:	84 c0                	test   %al,%al
   1205a:	74 58                	je     120b4 <Put_Buf+0x139>
   1205c:	8d 74 26 00          	lea    0x0(%esi,%eiz,1),%esi
   12060:	e8 da e1 ff ff       	call   1023f <Interrupts_Enabled>
   12065:	84 c0                	test   %al,%al
   12067:	74 4a                	je     120b3 <Put_Buf+0x138>
   12069:	c7 04 24 4f 00 00 00 	movl   $0x4f,(%esp)
   12070:	e8 46 f1 ff ff       	call   111bb <Set_Current_Attr>
   12075:	a1 6c 5e 02 00       	mov    0x25e6c,%eax
   1207a:	89 44 24 18          	mov    %eax,0x18(%esp)
   1207e:	8b 45 04             	mov    0x4(%ebp),%eax
   12081:	89 44 24 14          	mov    %eax,0x14(%esp)
   12085:	c7 44 24 10 9c 00 00 	movl   $0x9c,0x10(%esp)
   1208c:	00 
   1208d:	c7 44 24 0c fe f0 01 	movl   $0x1f0fe,0xc(%esp)
   12094:	00 
   12095:	c7 44 24 08 52 ef 01 	movl   $0x1ef52,0x8(%esp)
   1209c:	00 
   1209d:	c7 44 24 04 fd f4 01 	movl   $0x1f4fd,0x4(%esp)
   120a4:	00 
   120a5:	c7 04 24 34 ee 01 00 	movl   $0x1ee34,(%esp)
   120ac:	e8 b5 ef ff ff       	call   11066 <Print>
   120b1:	eb fe                	jmp    120b1 <Put_Buf+0x136>
   120b3:	fb                   	sti    
   120b4:	83 c4 2c             	add    $0x2c,%esp
   120b7:	5b                   	pop    %ebx
   120b8:	5e                   	pop    %esi
   120b9:	5f                   	pop    %edi
   120ba:	5d                   	pop    %ebp
   120bb:	c3                   	ret    

000120bc <Spin>:
   120bc:	55                   	push   %ebp
   120bd:	89 e5                	mov    %esp,%ebp
   120bf:	48                   	dec    %eax
   120c0:	83 f8 00             	cmp    $0x0,%eax
   120c3:	90                   	nop
   120c4:	90                   	nop
   120c5:	90                   	nop
   120c6:	90                   	nop
   120c7:	90                   	nop
   120c8:	90                   	nop
   120c9:	90                   	nop
   120ca:	90                   	nop
   120cb:	90                   	nop
   120cc:	90                   	nop
   120cd:	90                   	nop
   120ce:	90                   	nop
   120cf:	7f ee                	jg     120bf <Spin+0x3>
   120d1:	5d                   	pop    %ebp
   120d2:	c3                   	ret    

000120d3 <Timer_Interrupt_Handler>:
   120d3:	55                   	push   %ebp
   120d4:	89 e5                	mov    %esp,%ebp
   120d6:	57                   	push   %edi
   120d7:	56                   	push   %esi
   120d8:	53                   	push   %ebx
   120d9:	83 ec 1c             	sub    $0x1c,%esp
   120dc:	8b 3d 6c 5e 02 00    	mov    0x25e6c,%edi
   120e2:	8b 45 08             	mov    0x8(%ebp),%eax
   120e5:	89 04 24             	mov    %eax,(%esp)
   120e8:	e8 e7 e7 ff ff       	call   108d4 <Begin_IRQ>
   120ed:	a1 00 58 02 00       	mov    0x25800,%eax
   120f2:	83 c0 01             	add    $0x1,%eax
   120f5:	a3 00 58 02 00       	mov    %eax,0x25800
   120fa:	8b 47 04             	mov    0x4(%edi),%eax
   120fd:	83 c0 01             	add    $0x1,%eax
   12100:	89 47 04             	mov    %eax,0x4(%edi)
   12103:	83 3d c4 4b 02 00 00 	cmpl   $0x0,0x24bc4
   1210a:	7e 2e                	jle    1213a <Timer_Interrupt_Handler+0x67>
   1210c:	bb 20 58 02 00       	mov    $0x25820,%ebx
   12111:	be 00 00 00 00       	mov    $0x0,%esi
   12116:	8b 03                	mov    (%ebx),%eax
   12118:	85 c0                	test   %eax,%eax
   1211a:	75 0b                	jne    12127 <Timer_Interrupt_Handler+0x54>
   1211c:	8b 43 04             	mov    0x4(%ebx),%eax
   1211f:	89 04 24             	mov    %eax,(%esp)
   12122:	ff 53 08             	call   *0x8(%ebx)
   12125:	eb 05                	jmp    1212c <Timer_Interrupt_Handler+0x59>
   12127:	83 e8 01             	sub    $0x1,%eax
   1212a:	89 03                	mov    %eax,(%ebx)
   1212c:	83 c6 01             	add    $0x1,%esi
   1212f:	83 c3 10             	add    $0x10,%ebx
   12132:	39 35 c4 4b 02 00    	cmp    %esi,0x24bc4
   12138:	7f dc                	jg     12116 <Timer_Interrupt_Handler+0x43>
   1213a:	8b 47 04             	mov    0x4(%edi),%eax
   1213d:	3b 05 0c 40 02 00    	cmp    0x2400c,%eax
   12143:	72 1e                	jb     12163 <Timer_Interrupt_Handler+0x90>
   12145:	c7 05 70 5e 02 00 01 	movl   $0x1,0x25e70
   1214c:	00 00 00 
   1214f:	8b 87 40 02 00 00    	mov    0x240(%edi),%eax
   12155:	83 f8 02             	cmp    $0x2,%eax
   12158:	7f 09                	jg     12163 <Timer_Interrupt_Handler+0x90>
   1215a:	83 c0 01             	add    $0x1,%eax
   1215d:	89 87 40 02 00 00    	mov    %eax,0x240(%edi)
   12163:	8b 45 08             	mov    0x8(%ebp),%eax
   12166:	89 04 24             	mov    %eax,(%esp)
   12169:	e8 6b e7 ff ff       	call   108d9 <End_IRQ>
   1216e:	83 c4 1c             	add    $0x1c,%esp
   12171:	5b                   	pop    %ebx
   12172:	5e                   	pop    %esi
   12173:	5f                   	pop    %edi
   12174:	5d                   	pop    %ebp
   12175:	c3                   	ret    

00012176 <Timer_Calibrate>:
   12176:	55                   	push   %ebp
   12177:	89 e5                	mov    %esp,%ebp
   12179:	53                   	push   %ebx
   1217a:	83 ec 14             	sub    $0x14,%esp
   1217d:	8b 5d 08             	mov    0x8(%ebp),%ebx
   12180:	89 1c 24             	mov    %ebx,(%esp)
   12183:	e8 4c e7 ff ff       	call   108d4 <Begin_IRQ>
   12188:	a1 00 58 02 00       	mov    0x25800,%eax
   1218d:	83 f8 02             	cmp    $0x2,%eax
   12190:	77 0f                	ja     121a1 <Timer_Calibrate+0x2b>
   12192:	a1 00 58 02 00       	mov    0x25800,%eax
   12197:	83 c0 01             	add    $0x1,%eax
   1219a:	a3 00 58 02 00       	mov    %eax,0x25800
   1219f:	eb 14                	jmp    121b5 <Timer_Calibrate+0x3f>
   121a1:	b8 ff ff ff 7f       	mov    $0x7fffffff,%eax
   121a6:	2b 43 28             	sub    0x28(%ebx),%eax
   121a9:	a3 bc 4b 02 00       	mov    %eax,0x24bbc
   121ae:	c7 43 28 00 00 00 00 	movl   $0x0,0x28(%ebx)
   121b5:	89 1c 24             	mov    %ebx,(%esp)
   121b8:	e8 1c e7 ff ff       	call   108d9 <End_IRQ>
   121bd:	83 c4 14             	add    $0x14,%esp
   121c0:	5b                   	pop    %ebx
   121c1:	5d                   	pop    %ebp
   121c2:	c3                   	ret    

000121c3 <Init_Timer>:
   121c3:	55                   	push   %ebp
   121c4:	89 e5                	mov    %esp,%ebp
   121c6:	83 ec 28             	sub    $0x28,%esp
   121c9:	c7 04 24 25 f5 01 00 	movl   $0x1f525,(%esp)
   121d0:	e8 91 ee ff ff       	call   11066 <Print>
   121d5:	c7 44 24 04 36 00 00 	movl   $0x36,0x4(%esp)
   121dc:	00 
   121dd:	c7 04 24 43 00 00 00 	movl   $0x43,(%esp)
   121e4:	e8 4a e7 ff ff       	call   10933 <Out_Byte>
   121e9:	c7 44 24 04 00 00 00 	movl   $0x0,0x4(%esp)
   121f0:	00 
   121f1:	c7 04 24 40 00 00 00 	movl   $0x40,(%esp)
   121f8:	e8 36 e7 ff ff       	call   10933 <Out_Byte>
   121fd:	c7 44 24 04 00 00 00 	movl   $0x0,0x4(%esp)
   12204:	00 
   12205:	c7 04 24 40 00 00 00 	movl   $0x40,(%esp)
   1220c:	e8 22 e7 ff ff       	call   10933 <Out_Byte>
   12211:	e8 29 e0 ff ff       	call   1023f <Interrupts_Enabled>
   12216:	84 c0                	test   %al,%al
   12218:	75 4a                	jne    12264 <Init_Timer+0xa1>
   1221a:	c7 04 24 4f 00 00 00 	movl   $0x4f,(%esp)
   12221:	e8 95 ef ff ff       	call   111bb <Set_Current_Attr>
   12226:	a1 6c 5e 02 00       	mov    0x25e6c,%eax
   1222b:	89 44 24 18          	mov    %eax,0x18(%esp)
   1222f:	8b 45 04             	mov    0x4(%ebp),%eax
   12232:	89 44 24 14          	mov    %eax,0x14(%esp)
   12236:	c7 44 24 10 a4 00 00 	movl   $0xa4,0x10(%esp)
   1223d:	00 
   1223e:	c7 44 24 0c 3c f5 01 	movl   $0x1f53c,0xc(%esp)
   12245:	00 
   12246:	c7 44 24 08 53 ef 01 	movl   $0x1ef53,0x8(%esp)
   1224d:	00 
   1224e:	c7 44 24 04 d9 f5 01 	movl   $0x1f5d9,0x4(%esp)
   12255:	00 
   12256:	c7 04 24 34 ee 01 00 	movl   $0x1ee34,(%esp)
   1225d:	e8 04 ee ff ff       	call   11066 <Print>
   12262:	eb fe                	jmp    12262 <Init_Timer+0x9f>
   12264:	fa                   	cli    
   12265:	c7 44 24 04 76 21 01 	movl   $0x12176,0x4(%esp)
   1226c:	00 
   1226d:	c7 04 24 00 00 00 00 	movl   $0x0,(%esp)
   12274:	e8 c7 e2 ff ff       	call   10540 <Install_IRQ>
   12279:	c7 04 24 00 00 00 00 	movl   $0x0,(%esp)
   12280:	e8 37 e3 ff ff       	call   105bc <Enable_IRQ>
   12285:	e8 b5 df ff ff       	call   1023f <Interrupts_Enabled>
   1228a:	84 c0                	test   %al,%al
   1228c:	74 4a                	je     122d8 <Init_Timer+0x115>
   1228e:	c7 04 24 4f 00 00 00 	movl   $0x4f,(%esp)
   12295:	e8 21 ef ff ff       	call   111bb <Set_Current_Attr>
   1229a:	a1 6c 5e 02 00       	mov    0x25e6c,%eax
   1229f:	89 44 24 18          	mov    %eax,0x18(%esp)
   122a3:	8b 45 04             	mov    0x4(%ebp),%eax
   122a6:	89 44 24 14          	mov    %eax,0x14(%esp)
   122aa:	c7 44 24 10 aa 00 00 	movl   $0xaa,0x10(%esp)
   122b1:	00 
   122b2:	c7 44 24 0c 3c f5 01 	movl   $0x1f53c,0xc(%esp)
   122b9:	00 
   122ba:	c7 44 24 08 52 ef 01 	movl   $0x1ef52,0x8(%esp)
   122c1:	00 
   122c2:	c7 44 24 04 d9 f5 01 	movl   $0x1f5d9,0x4(%esp)
   122c9:	00 
   122ca:	c7 04 24 34 ee 01 00 	movl   $0x1ee34,(%esp)
   122d1:	e8 90 ed ff ff       	call   11066 <Print>
   122d6:	eb fe                	jmp    122d6 <Init_Timer+0x113>
   122d8:	fb                   	sti    
   122d9:	a1 00 58 02 00       	mov    0x25800,%eax
   122de:	83 f8 02             	cmp    $0x2,%eax
   122e1:	76 f6                	jbe    122d9 <Init_Timer+0x116>
   122e3:	b8 ff ff ff 7f       	mov    $0x7fffffff,%eax
   122e8:	e8 cf fd ff ff       	call   120bc <Spin>
   122ed:	e8 4d df ff ff       	call   1023f <Interrupts_Enabled>
   122f2:	84 c0                	test   %al,%al
   122f4:	75 4a                	jne    12340 <Init_Timer+0x17d>
   122f6:	c7 04 24 4f 00 00 00 	movl   $0x4f,(%esp)
   122fd:	e8 b9 ee ff ff       	call   111bb <Set_Current_Attr>
   12302:	a1 6c 5e 02 00       	mov    0x25e6c,%eax
   12307:	89 44 24 18          	mov    %eax,0x18(%esp)
   1230b:	8b 45 04             	mov    0x4(%ebp),%eax
   1230e:	89 44 24 14          	mov    %eax,0x14(%esp)
   12312:	c7 44 24 10 b7 00 00 	movl   $0xb7,0x10(%esp)
   12319:	00 
   1231a:	c7 44 24 0c 3c f5 01 	movl   $0x1f53c,0xc(%esp)
   12321:	00 
   12322:	c7 44 24 08 53 ef 01 	movl   $0x1ef53,0x8(%esp)
   12329:	00 
   1232a:	c7 44 24 04 d9 f5 01 	movl   $0x1f5d9,0x4(%esp)
   12331:	00 
   12332:	c7 04 24 34 ee 01 00 	movl   $0x1ee34,(%esp)
   12339:	e8 28 ed ff ff       	call   11066 <Print>
   1233e:	eb fe                	jmp    1233e <Init_Timer+0x17b>
   12340:	fa                   	cli    
   12341:	c7 04 24 00 00 00 00 	movl   $0x0,(%esp)
   12348:	e8 fe e3 ff ff       	call   1074b <Disable_IRQ>
   1234d:	e8 ed de ff ff       	call   1023f <Interrupts_Enabled>
   12352:	84 c0                	test   %al,%al
   12354:	74 4a                	je     123a0 <Init_Timer+0x1dd>
   12356:	c7 04 24 4f 00 00 00 	movl   $0x4f,(%esp)
   1235d:	e8 59 ee ff ff       	call   111bb <Set_Current_Attr>
   12362:	a1 6c 5e 02 00       	mov    0x25e6c,%eax
   12367:	89 44 24 18          	mov    %eax,0x18(%esp)
   1236b:	8b 45 04             	mov    0x4(%ebp),%eax
   1236e:	89 44 24 14          	mov    %eax,0x14(%esp)
   12372:	c7 44 24 10 be 00 00 	movl   $0xbe,0x10(%esp)
   12379:	00 
   1237a:	c7 44 24 0c 3c f5 01 	movl   $0x1f53c,0xc(%esp)
   12381:	00 
   12382:	c7 44 24 08 52 ef 01 	movl   $0x1ef52,0x8(%esp)
   12389:	00 
   1238a:	c7 44 24 04 d9 f5 01 	movl   $0x1f5d9,0x4(%esp)
   12391:	00 
   12392:	c7 04 24 34 ee 01 00 	movl   $0x1ee34,(%esp)
   12399:	e8 c8 ec ff ff       	call   11066 <Print>
   1239e:	eb fe                	jmp    1239e <Init_Timer+0x1db>
   123a0:	fb                   	sti    
   123a1:	a1 bc 4b 02 00       	mov    0x24bbc,%eax
   123a6:	89 44 24 04          	mov    %eax,0x4(%esp)
   123aa:	c7 04 24 54 f5 01 00 	movl   $0x1f554,(%esp)
   123b1:	e8 b0 ec ff ff       	call   11066 <Print>
   123b6:	c7 44 24 04 d3 20 01 	movl   $0x120d3,0x4(%esp)
   123bd:	00 
   123be:	c7 04 24 00 00 00 00 	movl   $0x0,(%esp)
   123c5:	e8 76 e1 ff ff       	call   10540 <Install_IRQ>
   123ca:	c7 04 24 00 00 00 00 	movl   $0x0,(%esp)
   123d1:	e8 e6 e1 ff ff       	call   105bc <Enable_IRQ>
   123d6:	c9                   	leave  
   123d7:	c3                   	ret    

000123d8 <Start_Timer>:
   123d8:	55                   	push   %ebp
   123d9:	89 e5                	mov    %esp,%ebp
   123db:	57                   	push   %edi
   123dc:	56                   	push   %esi
   123dd:	53                   	push   %ebx
   123de:	83 ec 2c             	sub    $0x2c,%esp
   123e1:	8b 75 08             	mov    0x8(%ebp),%esi
   123e4:	e8 56 de ff ff       	call   1023f <Interrupts_Enabled>
   123e9:	84 c0                	test   %al,%al
   123eb:	74 4a                	je     12437 <Start_Timer+0x5f>
   123ed:	c7 04 24 4f 00 00 00 	movl   $0x4f,(%esp)
   123f4:	e8 c2 ed ff ff       	call   111bb <Set_Current_Attr>
   123f9:	a1 6c 5e 02 00       	mov    0x25e6c,%eax
   123fe:	89 44 24 18          	mov    %eax,0x18(%esp)
   12402:	8b 45 04             	mov    0x4(%ebp),%eax
   12405:	89 44 24 14          	mov    %eax,0x14(%esp)
   12409:	c7 44 24 10 e1 00 00 	movl   $0xe1,0x10(%esp)
   12410:	00 
   12411:	c7 44 24 0c 3c f5 01 	movl   $0x1f53c,0xc(%esp)
   12418:	00 
   12419:	c7 44 24 08 52 ef 01 	movl   $0x1ef52,0x8(%esp)
   12420:	00 
   12421:	c7 44 24 04 cd f5 01 	movl   $0x1f5cd,0x4(%esp)
   12428:	00 
   12429:	c7 04 24 34 ee 01 00 	movl   $0x1ee34,(%esp)
   12430:	e8 31 ec ff ff       	call   11066 <Print>
   12435:	eb fe                	jmp    12435 <Start_Timer+0x5d>
   12437:	8b 15 c4 4b 02 00    	mov    0x24bc4,%edx
   1243d:	83 fa 64             	cmp    $0x64,%edx
   12440:	74 39                	je     1247b <Start_Timer+0xa3>
   12442:	a1 c0 4b 02 00       	mov    0x24bc0,%eax
   12447:	8d 48 01             	lea    0x1(%eax),%ecx
   1244a:	89 0d c0 4b 02 00    	mov    %ecx,0x24bc0
   12450:	89 d3                	mov    %edx,%ebx
   12452:	c1 e3 04             	shl    $0x4,%ebx
   12455:	89 83 24 58 02 00    	mov    %eax,0x25824(%ebx)
   1245b:	8b 7d 0c             	mov    0xc(%ebp),%edi
   1245e:	89 bb 28 58 02 00    	mov    %edi,0x25828(%ebx)
   12464:	89 b3 20 58 02 00    	mov    %esi,0x25820(%ebx)
   1246a:	89 b3 2c 58 02 00    	mov    %esi,0x2582c(%ebx)
   12470:	83 c2 01             	add    $0x1,%edx
   12473:	89 15 c4 4b 02 00    	mov    %edx,0x24bc4
   12479:	eb 05                	jmp    12480 <Start_Timer+0xa8>
   1247b:	b8 ff ff ff ff       	mov    $0xffffffff,%eax
   12480:	83 c4 2c             	add    $0x2c,%esp
   12483:	5b                   	pop    %ebx
   12484:	5e                   	pop    %esi
   12485:	5f                   	pop    %edi
   12486:	5d                   	pop    %ebp
   12487:	c3                   	ret    

00012488 <Get_Remaing_Timer_Ticks>:
   12488:	55                   	push   %ebp
   12489:	89 e5                	mov    %esp,%ebp
   1248b:	53                   	push   %ebx
   1248c:	83 ec 24             	sub    $0x24,%esp
   1248f:	8b 5d 08             	mov    0x8(%ebp),%ebx
   12492:	e8 a8 dd ff ff       	call   1023f <Interrupts_Enabled>
   12497:	84 c0                	test   %al,%al
   12499:	75 1d                	jne    124b8 <Get_Remaing_Timer_Ticks+0x30>
   1249b:	8b 15 c4 4b 02 00    	mov    0x24bc4,%edx
   124a1:	85 d2                	test   %edx,%edx
   124a3:	0f 8e 86 00 00 00    	jle    1252f <Get_Remaing_Timer_Ticks+0xa7>
   124a9:	b8 00 00 00 00       	mov    $0x0,%eax
   124ae:	39 1d 24 58 02 00    	cmp    %ebx,0x25824
   124b4:	75 6b                	jne    12521 <Get_Remaing_Timer_Ticks+0x99>
   124b6:	eb 59                	jmp    12511 <Get_Remaing_Timer_Ticks+0x89>
   124b8:	c7 04 24 4f 00 00 00 	movl   $0x4f,(%esp)
   124bf:	e8 f7 ec ff ff       	call   111bb <Set_Current_Attr>
   124c4:	a1 6c 5e 02 00       	mov    0x25e6c,%eax
   124c9:	89 44 24 18          	mov    %eax,0x18(%esp)
   124cd:	8b 45 04             	mov    0x4(%ebp),%eax
   124d0:	89 44 24 14          	mov    %eax,0x14(%esp)
   124d4:	c7 44 24 10 f5 00 00 	movl   $0xf5,0x10(%esp)
   124db:	00 
   124dc:	c7 44 24 0c 3c f5 01 	movl   $0x1f53c,0xc(%esp)
   124e3:	00 
   124e4:	c7 44 24 08 52 ef 01 	movl   $0x1ef52,0x8(%esp)
   124eb:	00 
   124ec:	c7 44 24 04 b5 f5 01 	movl   $0x1f5b5,0x4(%esp)
   124f3:	00 
   124f4:	c7 04 24 34 ee 01 00 	movl   $0x1ee34,(%esp)
   124fb:	e8 66 eb ff ff       	call   11066 <Print>
   12500:	eb fe                	jmp    12500 <Get_Remaing_Timer_Ticks+0x78>
   12502:	89 c1                	mov    %eax,%ecx
   12504:	c1 e1 04             	shl    $0x4,%ecx
   12507:	39 99 24 58 02 00    	cmp    %ebx,0x25824(%ecx)
   1250d:	75 12                	jne    12521 <Get_Remaing_Timer_Ticks+0x99>
   1250f:	eb 05                	jmp    12516 <Get_Remaing_Timer_Ticks+0x8e>
   12511:	b8 00 00 00 00       	mov    $0x0,%eax
   12516:	c1 e0 04             	shl    $0x4,%eax
   12519:	8b 80 20 58 02 00    	mov    0x25820(%eax),%eax
   1251f:	eb 13                	jmp    12534 <Get_Remaing_Timer_Ticks+0xac>
   12521:	83 c0 01             	add    $0x1,%eax
   12524:	39 d0                	cmp    %edx,%eax
   12526:	75 da                	jne    12502 <Get_Remaing_Timer_Ticks+0x7a>
   12528:	b8 ff ff ff ff       	mov    $0xffffffff,%eax
   1252d:	eb 05                	jmp    12534 <Get_Remaing_Timer_Ticks+0xac>
   1252f:	b8 ff ff ff ff       	mov    $0xffffffff,%eax
   12534:	83 c4 24             	add    $0x24,%esp
   12537:	5b                   	pop    %ebx
   12538:	5d                   	pop    %ebp
   12539:	c3                   	ret    

0001253a <Cancel_Timer>:
   1253a:	55                   	push   %ebp
   1253b:	89 e5                	mov    %esp,%ebp
   1253d:	56                   	push   %esi
   1253e:	53                   	push   %ebx
   1253f:	83 ec 20             	sub    $0x20,%esp
   12542:	8b 5d 08             	mov    0x8(%ebp),%ebx
   12545:	e8 f5 dc ff ff       	call   1023f <Interrupts_Enabled>
   1254a:	84 c0                	test   %al,%al
   1254c:	75 21                	jne    1256f <Cancel_Timer+0x35>
   1254e:	8b 15 c4 4b 02 00    	mov    0x24bc4,%edx
   12554:	85 d2                	test   %edx,%edx
   12556:	0f 8e ba 00 00 00    	jle    12616 <Cancel_Timer+0xdc>
   1255c:	b8 00 00 00 00       	mov    $0x0,%eax
   12561:	39 1d 24 58 02 00    	cmp    %ebx,0x25824
   12567:	0f 85 a2 00 00 00    	jne    1260f <Cancel_Timer+0xd5>
   1256d:	eb 59                	jmp    125c8 <Cancel_Timer+0x8e>
   1256f:	c7 04 24 4f 00 00 00 	movl   $0x4f,(%esp)
   12576:	e8 40 ec ff ff       	call   111bb <Set_Current_Attr>
   1257b:	a1 6c 5e 02 00       	mov    0x25e6c,%eax
   12580:	89 44 24 18          	mov    %eax,0x18(%esp)
   12584:	8b 45 04             	mov    0x4(%ebp),%eax
   12587:	89 44 24 14          	mov    %eax,0x14(%esp)
   1258b:	c7 44 24 10 02 01 00 	movl   $0x102,0x10(%esp)
   12592:	00 
   12593:	c7 44 24 0c 3c f5 01 	movl   $0x1f53c,0xc(%esp)
   1259a:	00 
   1259b:	c7 44 24 08 52 ef 01 	movl   $0x1ef52,0x8(%esp)
   125a2:	00 
   125a3:	c7 44 24 04 a8 f5 01 	movl   $0x1f5a8,0x4(%esp)
   125aa:	00 
   125ab:	c7 04 24 34 ee 01 00 	movl   $0x1ee34,(%esp)
   125b2:	e8 af ea ff ff       	call   11066 <Print>
   125b7:	eb fe                	jmp    125b7 <Cancel_Timer+0x7d>
   125b9:	89 c1                	mov    %eax,%ecx
   125bb:	c1 e1 04             	shl    $0x4,%ecx
   125be:	39 99 24 58 02 00    	cmp    %ebx,0x25824(%ecx)
   125c4:	75 49                	jne    1260f <Cancel_Timer+0xd5>
   125c6:	eb 05                	jmp    125cd <Cancel_Timer+0x93>
   125c8:	b8 00 00 00 00       	mov    $0x0,%eax
   125cd:	83 ea 01             	sub    $0x1,%edx
   125d0:	c1 e0 04             	shl    $0x4,%eax
   125d3:	8d 88 20 58 02 00    	lea    0x25820(%eax),%ecx
   125d9:	89 d6                	mov    %edx,%esi
   125db:	c1 e6 04             	shl    $0x4,%esi
   125de:	8d 9e 20 58 02 00    	lea    0x25820(%esi),%ebx
   125e4:	8b b6 20 58 02 00    	mov    0x25820(%esi),%esi
   125ea:	89 b0 20 58 02 00    	mov    %esi,0x25820(%eax)
   125f0:	8b 43 04             	mov    0x4(%ebx),%eax
   125f3:	89 41 04             	mov    %eax,0x4(%ecx)
   125f6:	8b 43 08             	mov    0x8(%ebx),%eax
   125f9:	89 41 08             	mov    %eax,0x8(%ecx)
   125fc:	8b 43 0c             	mov    0xc(%ebx),%eax
   125ff:	89 41 0c             	mov    %eax,0xc(%ecx)
   12602:	89 15 c4 4b 02 00    	mov    %edx,0x24bc4
   12608:	b8 00 00 00 00       	mov    $0x0,%eax
   1260d:	eb 1c                	jmp    1262b <Cancel_Timer+0xf1>
   1260f:	83 c0 01             	add    $0x1,%eax
   12612:	39 d0                	cmp    %edx,%eax
   12614:	75 a3                	jne    125b9 <Cancel_Timer+0x7f>
   12616:	89 5c 24 04          	mov    %ebx,0x4(%esp)
   1261a:	c7 04 24 78 f5 01 00 	movl   $0x1f578,(%esp)
   12621:	e8 40 ea ff ff       	call   11066 <Print>
   12626:	b8 ff ff ff ff       	mov    $0xffffffff,%eax
   1262b:	83 c4 20             	add    $0x20,%esp
   1262e:	5b                   	pop    %ebx
   1262f:	5e                   	pop    %esi
   12630:	5d                   	pop    %ebp
   12631:	c3                   	ret    

00012632 <Micro_Delay>:
   12632:	55                   	push   %ebp
   12633:	89 e5                	mov    %esp,%ebp
   12635:	53                   	push   %ebx
   12636:	8b 4d 08             	mov    0x8(%ebp),%ecx
   12639:	0f af 0d bc 4b 02 00 	imul   0x24bbc,%ecx
   12640:	ba 5b fd 4d 77       	mov    $0x774dfd5b,%edx
   12645:	89 c8                	mov    %ecx,%eax
   12647:	f7 ea                	imul   %edx
   12649:	89 d0                	mov    %edx,%eax
   1264b:	c1 f8 17             	sar    $0x17,%eax
   1264e:	89 cb                	mov    %ecx,%ebx
   12650:	c1 fb 1f             	sar    $0x1f,%ebx
   12653:	29 d8                	sub    %ebx,%eax
   12655:	69 d0 80 57 ed fe    	imul   $0xfeed5780,%eax,%edx
   1265b:	8d 14 0a             	lea    (%edx,%ecx,1),%edx
   1265e:	85 d2                	test   %edx,%edx
   12660:	0f 9f c2             	setg   %dl
   12663:	0f b6 d2             	movzbl %dl,%edx
   12666:	01 d0                	add    %edx,%eax
   12668:	e8 4f fa ff ff       	call   120bc <Spin>
   1266d:	5b                   	pop    %ebx
   1266e:	5d                   	pop    %ebp
   1266f:	c3                   	ret    

00012670 <End_Int_Atomic>:
   12670:	55                   	push   %ebp
   12671:	89 e5                	mov    %esp,%ebp
   12673:	53                   	push   %ebx
   12674:	83 ec 24             	sub    $0x24,%esp
   12677:	89 c3                	mov    %eax,%ebx
   12679:	e8 c1 db ff ff       	call   1023f <Interrupts_Enabled>
   1267e:	84 c0                	test   %al,%al
   12680:	74 4a                	je     126cc <End_Int_Atomic+0x5c>
   12682:	c7 04 24 4f 00 00 00 	movl   $0x4f,(%esp)
   12689:	e8 2d eb ff ff       	call   111bb <Set_Current_Attr>
   1268e:	a1 6c 5e 02 00       	mov    0x25e6c,%eax
   12693:	89 44 24 18          	mov    %eax,0x18(%esp)
   12697:	8b 45 04             	mov    0x4(%ebp),%eax
   1269a:	89 44 24 14          	mov    %eax,0x14(%esp)
   1269e:	c7 44 24 10 99 00 00 	movl   $0x99,0x10(%esp)
   126a5:	00 
   126a6:	c7 44 24 0c fe f0 01 	movl   $0x1f0fe,0xc(%esp)
   126ad:	00 
   126ae:	c7 44 24 08 52 ef 01 	movl   $0x1ef52,0x8(%esp)
   126b5:	00 
   126b6:	c7 44 24 04 6a f8 01 	movl   $0x1f86a,0x4(%esp)
   126bd:	00 
   126be:	c7 04 24 34 ee 01 00 	movl   $0x1ee34,(%esp)
   126c5:	e8 9c e9 ff ff       	call   11066 <Print>
   126ca:	eb fe                	jmp    126ca <End_Int_Atomic+0x5a>
   126cc:	84 db                	test   %bl,%bl
   126ce:	74 54                	je     12724 <End_Int_Atomic+0xb4>
   126d0:	e8 6a db ff ff       	call   1023f <Interrupts_Enabled>
   126d5:	84 c0                	test   %al,%al
   126d7:	74 4a                	je     12723 <End_Int_Atomic+0xb3>
   126d9:	c7 04 24 4f 00 00 00 	movl   $0x4f,(%esp)
   126e0:	e8 d6 ea ff ff       	call   111bb <Set_Current_Attr>
   126e5:	a1 6c 5e 02 00       	mov    0x25e6c,%eax
   126ea:	89 44 24 18          	mov    %eax,0x18(%esp)
   126ee:	8b 45 04             	mov    0x4(%ebp),%eax
   126f1:	89 44 24 14          	mov    %eax,0x14(%esp)
   126f5:	c7 44 24 10 9c 00 00 	movl   $0x9c,0x10(%esp)
   126fc:	00 
   126fd:	c7 44 24 0c fe f0 01 	movl   $0x1f0fe,0xc(%esp)
   12704:	00 
   12705:	c7 44 24 08 52 ef 01 	movl   $0x1ef52,0x8(%esp)
   1270c:	00 
   1270d:	c7 44 24 04 6a f8 01 	movl   $0x1f86a,0x4(%esp)
   12714:	00 
   12715:	c7 04 24 34 ee 01 00 	movl   $0x1ee34,(%esp)
   1271c:	e8 45 e9 ff ff       	call   11066 <Print>
   12721:	eb fe                	jmp    12721 <End_Int_Atomic+0xb1>
   12723:	fb                   	sti    
   12724:	83 c4 24             	add    $0x24,%esp
   12727:	5b                   	pop    %ebx
   12728:	5d                   	pop    %ebp
   12729:	c3                   	ret    

0001272a <Add_Page_Range>:
   1272a:	55                   	push   %ebp
   1272b:	89 e5                	mov    %esp,%ebp
   1272d:	56                   	push   %esi
   1272e:	53                   	push   %ebx
   1272f:	83 ec 20             	sub    $0x20,%esp
   12732:	89 c3                	mov    %eax,%ebx
   12734:	25 00 f0 ff ff       	and    $0xfffff000,%eax
   12739:	39 c3                	cmp    %eax,%ebx
   1273b:	74 4a                	je     12787 <Add_Page_Range+0x5d>
   1273d:	c7 04 24 4f 00 00 00 	movl   $0x4f,(%esp)
   12744:	e8 72 ea ff ff       	call   111bb <Set_Current_Attr>
   12749:	a1 6c 5e 02 00       	mov    0x25e6c,%eax
   1274e:	89 44 24 18          	mov    %eax,0x18(%esp)
   12752:	8b 45 04             	mov    0x4(%ebp),%eax
   12755:	89 44 24 14          	mov    %eax,0x14(%esp)
   12759:	c7 44 24 10 40 00 00 	movl   $0x40,0x10(%esp)
   12760:	00 
   12761:	c7 44 24 0c e9 f5 01 	movl   $0x1f5e9,0xc(%esp)
   12768:	00 
   12769:	c7 44 24 08 fd f5 01 	movl   $0x1f5fd,0x8(%esp)
   12770:	00 
   12771:	c7 44 24 04 ae f8 01 	movl   $0x1f8ae,0x4(%esp)
   12778:	00 
   12779:	c7 04 24 34 ee 01 00 	movl   $0x1ee34,(%esp)
   12780:	e8 e1 e8 ff ff       	call   11066 <Print>
   12785:	eb fe                	jmp    12785 <Add_Page_Range+0x5b>
   12787:	89 d6                	mov    %edx,%esi
   12789:	89 d0                	mov    %edx,%eax
   1278b:	25 00 f0 ff ff       	and    $0xfffff000,%eax
   12790:	39 c2                	cmp    %eax,%edx
   12792:	74 4a                	je     127de <Add_Page_Range+0xb4>
   12794:	c7 04 24 4f 00 00 00 	movl   $0x4f,(%esp)
   1279b:	e8 1b ea ff ff       	call   111bb <Set_Current_Attr>
   127a0:	a1 6c 5e 02 00       	mov    0x25e6c,%eax
   127a5:	89 44 24 18          	mov    %eax,0x18(%esp)
   127a9:	8b 45 04             	mov    0x4(%ebp),%eax
   127ac:	89 44 24 14          	mov    %eax,0x14(%esp)
   127b0:	c7 44 24 10 41 00 00 	movl   $0x41,0x10(%esp)
   127b7:	00 
   127b8:	c7 44 24 0c e9 f5 01 	movl   $0x1f5e9,0xc(%esp)
   127bf:	00 
   127c0:	c7 44 24 08 15 f6 01 	movl   $0x1f615,0x8(%esp)
   127c7:	00 
   127c8:	c7 44 24 04 ae f8 01 	movl   $0x1f8ae,0x4(%esp)
   127cf:	00 
   127d0:	c7 04 24 34 ee 01 00 	movl   $0x1ee34,(%esp)
   127d7:	e8 8a e8 ff ff       	call   11066 <Print>
   127dc:	eb fe                	jmp    127dc <Add_Page_Range+0xb2>
   127de:	39 d3                	cmp    %edx,%ebx
   127e0:	72 4a                	jb     1282c <Add_Page_Range+0x102>
   127e2:	c7 04 24 4f 00 00 00 	movl   $0x4f,(%esp)
   127e9:	e8 cd e9 ff ff       	call   111bb <Set_Current_Attr>
   127ee:	a1 6c 5e 02 00       	mov    0x25e6c,%eax
   127f3:	89 44 24 18          	mov    %eax,0x18(%esp)
   127f7:	8b 45 04             	mov    0x4(%ebp),%eax
   127fa:	89 44 24 14          	mov    %eax,0x14(%esp)
   127fe:	c7 44 24 10 42 00 00 	movl   $0x42,0x10(%esp)
   12805:	00 
   12806:	c7 44 24 0c e9 f5 01 	movl   $0x1f5e9,0xc(%esp)
   1280d:	00 
   1280e:	c7 44 24 08 2b f6 01 	movl   $0x1f62b,0x8(%esp)
   12815:	00 
   12816:	c7 44 24 04 ae f8 01 	movl   $0x1f8ae,0x4(%esp)
   1281d:	00 
   1281e:	c7 04 24 34 ee 01 00 	movl   $0x1ee34,(%esp)
   12825:	e8 3c e8 ff ff       	call   11066 <Print>
   1282a:	eb fe                	jmp    1282a <Add_Page_Range+0x100>
   1282c:	89 d8                	mov    %ebx,%eax
   1282e:	c1 e8 0c             	shr    $0xc,%eax
   12831:	8d 14 40             	lea    (%eax,%eax,2),%edx
   12834:	a1 60 5e 02 00       	mov    0x25e60,%eax
   12839:	8d 04 d0             	lea    (%eax,%edx,8),%eax
   1283c:	89 08                	mov    %ecx,(%eax)
   1283e:	85 c9                	test   %ecx,%ecx
   12840:	75 4e                	jne    12890 <Add_Page_Range+0x166>
   12842:	8b 15 cc 4b 02 00    	mov    0x24bcc,%edx
   12848:	85 d2                	test   %edx,%edx
   1284a:	0f 84 c0 00 00 00    	je     12910 <Add_Page_Range+0x1e6>
   12850:	39 d0                	cmp    %edx,%eax
   12852:	75 06                	jne    1285a <Add_Page_Range+0x130>
   12854:	eb 6d                	jmp    128c3 <Add_Page_Range+0x199>
   12856:	39 d0                	cmp    %edx,%eax
   12858:	74 69                	je     128c3 <Add_Page_Range+0x199>
   1285a:	8b 52 08             	mov    0x8(%edx),%edx
   1285d:	85 d2                	test   %edx,%edx
   1285f:	90                   	nop
   12860:	75 f4                	jne    12856 <Add_Page_Range+0x12c>
   12862:	e9 a9 00 00 00       	jmp    12910 <Add_Page_Range+0x1e6>
   12867:	eb fe                	jmp    12867 <Add_Page_Range+0x13d>
   12869:	a3 d0 4b 02 00       	mov    %eax,0x24bd0
   1286e:	a3 cc 4b 02 00       	mov    %eax,0x24bcc
   12873:	c7 40 04 00 00 00 00 	movl   $0x0,0x4(%eax)
   1287a:	eb 0b                	jmp    12887 <Add_Page_Range+0x15d>
   1287c:	89 42 08             	mov    %eax,0x8(%edx)
   1287f:	89 50 04             	mov    %edx,0x4(%eax)
   12882:	a3 d0 4b 02 00       	mov    %eax,0x24bd0
   12887:	83 05 c8 4b 02 00 01 	addl   $0x1,0x24bc8
   1288e:	eb 0e                	jmp    1289e <Add_Page_Range+0x174>
   12890:	c7 40 08 00 00 00 00 	movl   $0x0,0x8(%eax)
   12897:	c7 40 04 00 00 00 00 	movl   $0x0,0x4(%eax)
   1289e:	c7 40 0c 00 00 00 00 	movl   $0x0,0xc(%eax)
   128a5:	c7 40 10 00 00 00 00 	movl   $0x0,0x10(%eax)
   128ac:	c7 40 14 00 00 00 00 	movl   $0x0,0x14(%eax)
   128b3:	81 c3 00 10 00 00    	add    $0x1000,%ebx
   128b9:	39 de                	cmp    %ebx,%esi
   128bb:	0f 87 6b ff ff ff    	ja     1282c <Add_Page_Range+0x102>
   128c1:	eb 67                	jmp    1292a <Add_Page_Range+0x200>
   128c3:	c7 04 24 4f 00 00 00 	movl   $0x4f,(%esp)
   128ca:	e8 ec e8 ff ff       	call   111bb <Set_Current_Attr>
   128cf:	a1 6c 5e 02 00       	mov    0x25e6c,%eax
   128d4:	89 44 24 18          	mov    %eax,0x18(%esp)
   128d8:	8b 45 04             	mov    0x4(%ebp),%eax
   128db:	89 44 24 14          	mov    %eax,0x14(%esp)
   128df:	c7 44 24 10 45 00 00 	movl   $0x45,0x10(%esp)
   128e6:	00 
   128e7:	c7 44 24 0c 37 f6 01 	movl   $0x1f637,0xc(%esp)
   128ee:	00 
   128ef:	c7 44 24 08 ec f6 01 	movl   $0x1f6ec,0x8(%esp)
   128f6:	00 
   128f7:	c7 44 24 04 95 f8 01 	movl   $0x1f895,0x4(%esp)
   128fe:	00 
   128ff:	c7 04 24 34 ee 01 00 	movl   $0x1ee34,(%esp)
   12906:	e8 5b e7 ff ff       	call   11066 <Print>
   1290b:	e9 57 ff ff ff       	jmp    12867 <Add_Page_Range+0x13d>
   12910:	c7 40 08 00 00 00 00 	movl   $0x0,0x8(%eax)
   12917:	8b 15 d0 4b 02 00    	mov    0x24bd0,%edx
   1291d:	85 d2                	test   %edx,%edx
   1291f:	0f 85 57 ff ff ff    	jne    1287c <Add_Page_Range+0x152>
   12925:	e9 3f ff ff ff       	jmp    12869 <Add_Page_Range+0x13f>
   1292a:	83 c4 20             	add    $0x20,%esp
   1292d:	5b                   	pop    %ebx
   1292e:	5e                   	pop    %esi
   1292f:	5d                   	pop    %ebp
   12930:	c3                   	ret    

00012931 <Init_Mem>:
   12931:	55                   	push   %ebp
   12932:	89 e5                	mov    %esp,%ebp
   12934:	57                   	push   %edi
   12935:	56                   	push   %esi
   12936:	53                   	push   %ebx
   12937:	83 ec 2c             	sub    $0x2c,%esp
   1293a:	8b 7d 08             	mov    0x8(%ebp),%edi
   1293d:	8b 47 04             	mov    0x4(%edi),%eax
   12940:	89 c6                	mov    %eax,%esi
   12942:	c1 fe 02             	sar    $0x2,%esi
   12945:	89 f2                	mov    %esi,%edx
   12947:	c1 e2 0c             	shl    $0xc,%edx
   1294a:	89 55 e4             	mov    %edx,-0x1c(%ebp)
   1294d:	8d 1c 76             	lea    (%esi,%esi,2),%ebx
   12950:	c1 e3 03             	shl    $0x3,%ebx
   12953:	85 c0                	test   %eax,%eax
   12955:	7f 4a                	jg     129a1 <Init_Mem+0x70>
   12957:	c7 04 24 4f 00 00 00 	movl   $0x4f,(%esp)
   1295e:	e8 58 e8 ff ff       	call   111bb <Set_Current_Attr>
   12963:	a1 6c 5e 02 00       	mov    0x25e6c,%eax
   12968:	89 44 24 18          	mov    %eax,0x18(%esp)
   1296c:	8b 45 04             	mov    0x4(%ebp),%eax
   1296f:	89 44 24 14          	mov    %eax,0x14(%esp)
   12973:	c7 44 24 10 70 00 00 	movl   $0x70,0x10(%esp)
   1297a:	00 
   1297b:	c7 44 24 0c e9 f5 01 	movl   $0x1f5e9,0xc(%esp)
   12982:	00 
   12983:	c7 44 24 08 4f f6 01 	movl   $0x1f64f,0x8(%esp)
   1298a:	00 
   1298b:	c7 44 24 04 bd f8 01 	movl   $0x1f8bd,0x4(%esp)
   12992:	00 
   12993:	c7 04 24 34 ee 01 00 	movl   $0x1ee34,(%esp)
   1299a:	e8 c7 e6 ff ff       	call   11066 <Print>
   1299f:	eb fe                	jmp    1299f <Init_Mem+0x6e>
   129a1:	e8 08 0d 00 00       	call   136ae <Init_GDT>
   129a6:	b8 90 5e 02 00       	mov    $0x25e90,%eax
   129ab:	a9 ff 0f 00 00       	test   $0xfff,%eax
   129b0:	74 0a                	je     129bc <Init_Mem+0x8b>
   129b2:	25 00 f0 ff ff       	and    $0xfffff000,%eax
   129b7:	05 00 10 00 00       	add    $0x1000,%eax
   129bc:	a3 60 5e 02 00       	mov    %eax,0x25e60
   129c1:	01 c3                	add    %eax,%ebx
   129c3:	f7 c3 ff 0f 00 00    	test   $0xfff,%ebx
   129c9:	74 0c                	je     129d7 <Init_Mem+0xa6>
   129cb:	81 e3 00 f0 ff ff    	and    $0xfffff000,%ebx
   129d1:	81 c3 00 10 00 00    	add    $0x1000,%ebx
   129d7:	89 35 64 5e 02 00    	mov    %esi,0x25e64
   129dd:	b9 08 00 00 00       	mov    $0x8,%ecx
   129e2:	ba 00 10 00 00       	mov    $0x1000,%edx
   129e7:	b8 00 00 00 00       	mov    $0x0,%eax
   129ec:	e8 39 fd ff ff       	call   1272a <Add_Page_Range>
   129f1:	b9 00 00 00 00       	mov    $0x0,%ecx
   129f6:	ba 00 00 01 00       	mov    $0x10000,%edx
   129fb:	b8 00 10 00 00       	mov    $0x1000,%eax
   12a00:	e8 25 fd ff ff       	call   1272a <Add_Page_Range>
   12a05:	b9 01 00 00 00       	mov    $0x1,%ecx
   12a0a:	89 da                	mov    %ebx,%edx
   12a0c:	b8 00 00 01 00       	mov    $0x10000,%eax
   12a11:	e8 14 fd ff ff       	call   1272a <Add_Page_Range>
   12a16:	b9 00 00 00 00       	mov    $0x0,%ecx
   12a1b:	ba 00 00 0a 00       	mov    $0xa0000,%edx
   12a20:	89 d8                	mov    %ebx,%eax
   12a22:	e8 03 fd ff ff       	call   1272a <Add_Page_Range>
   12a27:	b9 02 00 00 00       	mov    $0x2,%ecx
   12a2c:	ba 00 00 10 00       	mov    $0x100000,%edx
   12a31:	b8 00 00 0a 00       	mov    $0xa0000,%eax
   12a36:	e8 ef fc ff ff       	call   1272a <Add_Page_Range>
   12a3b:	b9 04 00 00 00       	mov    $0x4,%ecx
   12a40:	ba 00 20 10 00       	mov    $0x102000,%edx
   12a45:	b8 00 00 10 00       	mov    $0x100000,%eax
   12a4a:	e8 db fc ff ff       	call   1272a <Add_Page_Range>
   12a4f:	b9 10 00 00 00       	mov    $0x10,%ecx
   12a54:	ba 00 20 20 00       	mov    $0x202000,%edx
   12a59:	b8 00 20 10 00       	mov    $0x102000,%eax
   12a5e:	e8 c7 fc ff ff       	call   1272a <Add_Page_Range>
   12a63:	b9 00 00 00 00       	mov    $0x0,%ecx
   12a68:	8b 55 e4             	mov    -0x1c(%ebp),%edx
   12a6b:	b8 00 20 20 00       	mov    $0x202000,%eax
   12a70:	e8 b5 fc ff ff       	call   1272a <Add_Page_Range>
   12a75:	c7 44 24 04 00 00 10 	movl   $0x100000,0x4(%esp)
   12a7c:	00 
   12a7d:	c7 04 24 00 20 10 00 	movl   $0x102000,(%esp)
   12a84:	e8 97 19 00 00       	call   14420 <Init_Heap>
   12a89:	c7 44 24 0c 00 00 10 	movl   $0x100000,0xc(%esp)
   12a90:	00 
   12a91:	a1 c8 4b 02 00       	mov    0x24bc8,%eax
   12a96:	89 44 24 08          	mov    %eax,0x8(%esp)
   12a9a:	8b 47 04             	mov    0x4(%edi),%eax
   12a9d:	89 44 24 04          	mov    %eax,0x4(%esp)
   12aa1:	c7 04 24 18 f7 01 00 	movl   $0x1f718,(%esp)
   12aa8:	e8 b9 e5 ff ff       	call   11066 <Print>
   12aad:	83 c4 2c             	add    $0x2c,%esp
   12ab0:	5b                   	pop    %ebx
   12ab1:	5e                   	pop    %esi
   12ab2:	5f                   	pop    %edi
   12ab3:	5d                   	pop    %ebp
   12ab4:	c3                   	ret    

00012ab5 <Init_BSS>:
   12ab5:	55                   	push   %ebp
   12ab6:	89 e5                	mov    %esp,%ebp
   12ab8:	83 ec 18             	sub    $0x18,%esp
   12abb:	b8 90 5e 02 00       	mov    $0x25e90,%eax
   12ac0:	2d 3c 41 02 00       	sub    $0x2413c,%eax
   12ac5:	89 44 24 08          	mov    %eax,0x8(%esp)
   12ac9:	c7 44 24 04 00 00 00 	movl   $0x0,0x4(%esp)
   12ad0:	00 
   12ad1:	c7 04 24 3c 41 02 00 	movl   $0x2413c,(%esp)
   12ad8:	e8 74 be 00 00       	call   1e951 <memset>
   12add:	c9                   	leave  
   12ade:	c3                   	ret    

00012adf <Alloc_Page>:
   12adf:	55                   	push   %ebp
   12ae0:	89 e5                	mov    %esp,%ebp
   12ae2:	56                   	push   %esi
   12ae3:	53                   	push   %ebx
   12ae4:	83 ec 20             	sub    $0x20,%esp
   12ae7:	e8 53 d7 ff ff       	call   1023f <Interrupts_Enabled>
   12aec:	89 c3                	mov    %eax,%ebx
   12aee:	84 c0                	test   %al,%al
   12af0:	74 54                	je     12b46 <Alloc_Page+0x67>
   12af2:	e8 48 d7 ff ff       	call   1023f <Interrupts_Enabled>
   12af7:	84 c0                	test   %al,%al
   12af9:	75 4a                	jne    12b45 <Alloc_Page+0x66>
   12afb:	c7 04 24 4f 00 00 00 	movl   $0x4f,(%esp)
   12b02:	e8 b4 e6 ff ff       	call   111bb <Set_Current_Attr>
   12b07:	a1 6c 5e 02 00       	mov    0x25e6c,%eax
   12b0c:	89 44 24 18          	mov    %eax,0x18(%esp)
   12b10:	8b 45 04             	mov    0x4(%ebp),%eax
   12b13:	89 44 24 14          	mov    %eax,0x14(%esp)
   12b17:	c7 44 24 10 8f 00 00 	movl   $0x8f,0x10(%esp)
   12b1e:	00 
   12b1f:	c7 44 24 0c fe f0 01 	movl   $0x1f0fe,0xc(%esp)
   12b26:	00 
   12b27:	c7 44 24 08 53 ef 01 	movl   $0x1ef53,0x8(%esp)
   12b2e:	00 
   12b2f:	c7 44 24 04 79 f8 01 	movl   $0x1f879,0x4(%esp)
   12b36:	00 
   12b37:	c7 04 24 34 ee 01 00 	movl   $0x1ee34,(%esp)
   12b3e:	e8 23 e5 ff ff       	call   11066 <Print>
   12b43:	eb fe                	jmp    12b43 <Alloc_Page+0x64>
   12b45:	fa                   	cli    
   12b46:	8b 15 cc 4b 02 00    	mov    0x24bcc,%edx
   12b4c:	85 d2                	test   %edx,%edx
   12b4e:	0f 84 8f 00 00 00    	je     12be3 <Alloc_Page+0x104>
   12b54:	f6 02 04             	testb  $0x4,(%edx)
   12b57:	74 4a                	je     12ba3 <Alloc_Page+0xc4>
   12b59:	c7 04 24 4f 00 00 00 	movl   $0x4f,(%esp)
   12b60:	e8 56 e6 ff ff       	call   111bb <Set_Current_Attr>
   12b65:	a1 6c 5e 02 00       	mov    0x25e6c,%eax
   12b6a:	89 44 24 18          	mov    %eax,0x18(%esp)
   12b6e:	8b 45 04             	mov    0x4(%ebp),%eax
   12b71:	89 44 24 14          	mov    %eax,0x14(%esp)
   12b75:	c7 44 24 10 bf 00 00 	movl   $0xbf,0x10(%esp)
   12b7c:	00 
   12b7d:	c7 44 24 0c e9 f5 01 	movl   $0x1f5e9,0xc(%esp)
   12b84:	00 
   12b85:	c7 44 24 08 60 f7 01 	movl   $0x1f760,0x8(%esp)
   12b8c:	00 
   12b8d:	c7 44 24 04 8a f8 01 	movl   $0x1f88a,0x4(%esp)
   12b94:	00 
   12b95:	c7 04 24 34 ee 01 00 	movl   $0x1ee34,(%esp)
   12b9c:	e8 c5 e4 ff ff       	call   11066 <Print>
   12ba1:	eb fe                	jmp    12ba1 <Alloc_Page+0xc2>
   12ba3:	8b 4a 08             	mov    0x8(%edx),%ecx
   12ba6:	89 0d cc 4b 02 00    	mov    %ecx,0x24bcc
   12bac:	85 c9                	test   %ecx,%ecx
   12bae:	75 0c                	jne    12bbc <Alloc_Page+0xdd>
   12bb0:	c7 05 d0 4b 02 00 00 	movl   $0x0,0x24bd0
   12bb7:	00 00 00 
   12bba:	eb 07                	jmp    12bc3 <Alloc_Page+0xe4>
   12bbc:	c7 41 04 00 00 00 00 	movl   $0x0,0x4(%ecx)
   12bc3:	83 0a 04             	orl    $0x4,(%edx)
   12bc6:	83 2d c8 4b 02 00 01 	subl   $0x1,0x24bc8
   12bcd:	2b 15 60 5e 02 00    	sub    0x25e60,%edx
   12bd3:	89 d6                	mov    %edx,%esi
   12bd5:	c1 fe 03             	sar    $0x3,%esi
   12bd8:	69 f6 ab aa aa aa    	imul   $0xaaaaaaab,%esi,%esi
   12bde:	c1 e6 0c             	shl    $0xc,%esi
   12be1:	eb 05                	jmp    12be8 <Alloc_Page+0x109>
   12be3:	be 00 00 00 00       	mov    $0x0,%esi
   12be8:	e8 52 d6 ff ff       	call   1023f <Interrupts_Enabled>
   12bed:	84 c0                	test   %al,%al
   12bef:	74 4a                	je     12c3b <Alloc_Page+0x15c>
   12bf1:	c7 04 24 4f 00 00 00 	movl   $0x4f,(%esp)
   12bf8:	e8 be e5 ff ff       	call   111bb <Set_Current_Attr>
   12bfd:	a1 6c 5e 02 00       	mov    0x25e6c,%eax
   12c02:	89 44 24 18          	mov    %eax,0x18(%esp)
   12c06:	8b 45 04             	mov    0x4(%ebp),%eax
   12c09:	89 44 24 14          	mov    %eax,0x14(%esp)
   12c0d:	c7 44 24 10 99 00 00 	movl   $0x99,0x10(%esp)
   12c14:	00 
   12c15:	c7 44 24 0c fe f0 01 	movl   $0x1f0fe,0xc(%esp)
   12c1c:	00 
   12c1d:	c7 44 24 08 52 ef 01 	movl   $0x1ef52,0x8(%esp)
   12c24:	00 
   12c25:	c7 44 24 04 6a f8 01 	movl   $0x1f86a,0x4(%esp)
   12c2c:	00 
   12c2d:	c7 04 24 34 ee 01 00 	movl   $0x1ee34,(%esp)
   12c34:	e8 2d e4 ff ff       	call   11066 <Print>
   12c39:	eb fe                	jmp    12c39 <Alloc_Page+0x15a>
   12c3b:	84 db                	test   %bl,%bl
   12c3d:	74 55                	je     12c94 <Alloc_Page+0x1b5>
   12c3f:	90                   	nop
   12c40:	e8 fa d5 ff ff       	call   1023f <Interrupts_Enabled>
   12c45:	84 c0                	test   %al,%al
   12c47:	74 4a                	je     12c93 <Alloc_Page+0x1b4>
   12c49:	c7 04 24 4f 00 00 00 	movl   $0x4f,(%esp)
   12c50:	e8 66 e5 ff ff       	call   111bb <Set_Current_Attr>
   12c55:	a1 6c 5e 02 00       	mov    0x25e6c,%eax
   12c5a:	89 44 24 18          	mov    %eax,0x18(%esp)
   12c5e:	8b 45 04             	mov    0x4(%ebp),%eax
   12c61:	89 44 24 14          	mov    %eax,0x14(%esp)
   12c65:	c7 44 24 10 9c 00 00 	movl   $0x9c,0x10(%esp)
   12c6c:	00 
   12c6d:	c7 44 24 0c fe f0 01 	movl   $0x1f0fe,0xc(%esp)
   12c74:	00 
   12c75:	c7 44 24 08 52 ef 01 	movl   $0x1ef52,0x8(%esp)
   12c7c:	00 
   12c7d:	c7 44 24 04 6a f8 01 	movl   $0x1f86a,0x4(%esp)
   12c84:	00 
   12c85:	c7 04 24 34 ee 01 00 	movl   $0x1ee34,(%esp)
   12c8c:	e8 d5 e3 ff ff       	call   11066 <Print>
   12c91:	eb fe                	jmp    12c91 <Alloc_Page+0x1b2>
   12c93:	fb                   	sti    
   12c94:	89 f0                	mov    %esi,%eax
   12c96:	83 c4 20             	add    $0x20,%esp
   12c99:	5b                   	pop    %ebx
   12c9a:	5e                   	pop    %esi
   12c9b:	5d                   	pop    %ebp
   12c9c:	c3                   	ret    

00012c9d <Alloc_Pageable_Page>:
   12c9d:	55                   	push   %ebp
   12c9e:	89 e5                	mov    %esp,%ebp
   12ca0:	57                   	push   %edi
   12ca1:	56                   	push   %esi
   12ca2:	53                   	push   %ebx
   12ca3:	83 ec 2c             	sub    $0x2c,%esp
   12ca6:	e8 94 d5 ff ff       	call   1023f <Interrupts_Enabled>
   12cab:	88 45 e7             	mov    %al,-0x19(%ebp)
   12cae:	84 c0                	test   %al,%al
   12cb0:	74 54                	je     12d06 <Alloc_Pageable_Page+0x69>
   12cb2:	e8 88 d5 ff ff       	call   1023f <Interrupts_Enabled>
   12cb7:	84 c0                	test   %al,%al
   12cb9:	75 4a                	jne    12d05 <Alloc_Pageable_Page+0x68>
   12cbb:	c7 04 24 4f 00 00 00 	movl   $0x4f,(%esp)
   12cc2:	e8 f4 e4 ff ff       	call   111bb <Set_Current_Attr>
   12cc7:	a1 6c 5e 02 00       	mov    0x25e6c,%eax
   12ccc:	89 44 24 18          	mov    %eax,0x18(%esp)
   12cd0:	8b 45 04             	mov    0x4(%ebp),%eax
   12cd3:	89 44 24 14          	mov    %eax,0x14(%esp)
   12cd7:	c7 44 24 10 8f 00 00 	movl   $0x8f,0x10(%esp)
   12cde:	00 
   12cdf:	c7 44 24 0c fe f0 01 	movl   $0x1f0fe,0xc(%esp)
   12ce6:	00 
   12ce7:	c7 44 24 08 53 ef 01 	movl   $0x1ef53,0x8(%esp)
   12cee:	00 
   12cef:	c7 44 24 04 79 f8 01 	movl   $0x1f879,0x4(%esp)
   12cf6:	00 
   12cf7:	c7 04 24 34 ee 01 00 	movl   $0x1ee34,(%esp)
   12cfe:	e8 63 e3 ff ff       	call   11066 <Print>
   12d03:	eb fe                	jmp    12d03 <Alloc_Pageable_Page+0x66>
   12d05:	fa                   	cli    
   12d06:	e8 34 d5 ff ff       	call   1023f <Interrupts_Enabled>
   12d0b:	84 c0                	test   %al,%al
   12d0d:	8d 76 00             	lea    0x0(%esi),%esi
   12d10:	74 4a                	je     12d5c <Alloc_Pageable_Page+0xbf>
   12d12:	c7 04 24 4f 00 00 00 	movl   $0x4f,(%esp)
   12d19:	e8 9d e4 ff ff       	call   111bb <Set_Current_Attr>
   12d1e:	a1 6c 5e 02 00       	mov    0x25e6c,%eax
   12d23:	89 44 24 18          	mov    %eax,0x18(%esp)
   12d27:	8b 45 04             	mov    0x4(%ebp),%eax
   12d2a:	89 44 24 14          	mov    %eax,0x14(%esp)
   12d2e:	c7 44 24 10 f7 00 00 	movl   $0xf7,0x10(%esp)
   12d35:	00 
   12d36:	c7 44 24 0c e9 f5 01 	movl   $0x1f5e9,0xc(%esp)
   12d3d:	00 
   12d3e:	c7 44 24 08 52 ef 01 	movl   $0x1ef52,0x8(%esp)
   12d45:	00 
   12d46:	c7 44 24 04 56 f8 01 	movl   $0x1f856,0x4(%esp)
   12d4d:	00 
   12d4e:	c7 04 24 34 ee 01 00 	movl   $0x1ee34,(%esp)
   12d55:	e8 0c e3 ff ff       	call   11066 <Print>
   12d5a:	eb fe                	jmp    12d5a <Alloc_Pageable_Page+0xbd>
   12d5c:	8b 45 0c             	mov    0xc(%ebp),%eax
   12d5f:	25 00 f0 ff ff       	and    $0xfffff000,%eax
   12d64:	39 45 0c             	cmp    %eax,0xc(%ebp)
   12d67:	74 4a                	je     12db3 <Alloc_Pageable_Page+0x116>
   12d69:	c7 04 24 4f 00 00 00 	movl   $0x4f,(%esp)
   12d70:	e8 46 e4 ff ff       	call   111bb <Set_Current_Attr>
   12d75:	a1 6c 5e 02 00       	mov    0x25e6c,%eax
   12d7a:	89 44 24 18          	mov    %eax,0x18(%esp)
   12d7e:	8b 45 04             	mov    0x4(%ebp),%eax
   12d81:	89 44 24 14          	mov    %eax,0x14(%esp)
   12d85:	c7 44 24 10 f8 00 00 	movl   $0xf8,0x10(%esp)
   12d8c:	00 
   12d8d:	c7 44 24 0c e9 f5 01 	movl   $0x1f5e9,0xc(%esp)
   12d94:	00 
   12d95:	c7 44 24 08 67 f6 01 	movl   $0x1f667,0x8(%esp)
   12d9c:	00 
   12d9d:	c7 44 24 04 56 f8 01 	movl   $0x1f856,0x4(%esp)
   12da4:	00 
   12da5:	c7 04 24 34 ee 01 00 	movl   $0x1ee34,(%esp)
   12dac:	e8 b5 e2 ff ff       	call   11066 <Print>
   12db1:	eb fe                	jmp    12db1 <Alloc_Pageable_Page+0x114>
   12db3:	e8 27 fd ff ff       	call   12adf <Alloc_Page>
   12db8:	89 c6                	mov    %eax,%esi
   12dba:	85 c0                	test   %eax,%eax
   12dbc:	8d 74 26 00          	lea    0x0(%esi,%eiz,1),%esi
   12dc0:	74 61                	je     12e23 <Alloc_Pageable_Page+0x186>
   12dc2:	c1 e8 0c             	shr    $0xc,%eax
   12dc5:	8d 14 40             	lea    (%eax,%eax,2),%edx
   12dc8:	a1 60 5e 02 00       	mov    0x25e60,%eax
   12dcd:	8d 1c d0             	lea    (%eax,%edx,8),%ebx
   12dd0:	f6 03 20             	testb  $0x20,(%ebx)
   12dd3:	0f 84 82 02 00 00    	je     1305b <Alloc_Pageable_Page+0x3be>
   12dd9:	c7 04 24 4f 00 00 00 	movl   $0x4f,(%esp)
   12de0:	e8 d6 e3 ff ff       	call   111bb <Set_Current_Attr>
   12de5:	a1 6c 5e 02 00       	mov    0x25e6c,%eax
   12dea:	89 44 24 18          	mov    %eax,0x18(%esp)
   12dee:	8b 45 04             	mov    0x4(%ebp),%eax
   12df1:	89 44 24 14          	mov    %eax,0x14(%esp)
   12df5:	c7 44 24 10 fd 00 00 	movl   $0xfd,0x10(%esp)
   12dfc:	00 
   12dfd:	c7 44 24 0c e9 f5 01 	movl   $0x1f5e9,0xc(%esp)
   12e04:	00 
   12e05:	c7 44 24 08 84 f7 01 	movl   $0x1f784,0x8(%esp)
   12e0c:	00 
   12e0d:	c7 44 24 04 56 f8 01 	movl   $0x1f856,0x4(%esp)
   12e14:	00 
   12e15:	c7 04 24 34 ee 01 00 	movl   $0x1ee34,(%esp)
   12e1c:	e8 45 e2 ff ff       	call   11066 <Print>
   12e21:	eb fe                	jmp    12e21 <Alloc_Pageable_Page+0x184>
   12e23:	83 3d e4 53 02 00 00 	cmpl   $0x0,0x253e4
   12e2a:	74 0c                	je     12e38 <Alloc_Pageable_Page+0x19b>
   12e2c:	c7 04 24 a8 f7 01 00 	movl   $0x1f7a8,(%esp)
   12e33:	e8 2e e2 ff ff       	call   11066 <Print>
   12e38:	8b 3d 64 5e 02 00    	mov    0x25e64,%edi
   12e3e:	85 ff                	test   %edi,%edi
   12e40:	74 45                	je     12e87 <Alloc_Pageable_Page+0x1ea>
   12e42:	8b 0d 60 5e 02 00    	mov    0x25e60,%ecx
   12e48:	ba 00 00 00 00       	mov    $0x0,%edx
   12e4d:	bb 00 00 00 00       	mov    $0x0,%ebx
   12e52:	b8 00 00 00 00       	mov    $0x0,%eax
   12e57:	8d 04 40             	lea    (%eax,%eax,2),%eax
   12e5a:	8d 04 c1             	lea    (%ecx,%eax,8),%eax
   12e5d:	8b 30                	mov    (%eax),%esi
   12e5f:	83 e6 24             	and    $0x24,%esi
   12e62:	83 fe 24             	cmp    $0x24,%esi
   12e65:	75 15                	jne    12e7c <Alloc_Pageable_Page+0x1df>
   12e67:	85 db                	test   %ebx,%ebx
   12e69:	0f 44 d8             	cmove  %eax,%ebx
   12e6c:	8b 73 0c             	mov    0xc(%ebx),%esi
   12e6f:	39 70 0c             	cmp    %esi,0xc(%eax)
   12e72:	7d 08                	jge    12e7c <Alloc_Pageable_Page+0x1df>
   12e74:	8b 30                	mov    (%eax),%esi
   12e76:	83 e6 20             	and    $0x20,%esi
   12e79:	0f 45 d8             	cmovne %eax,%ebx
   12e7c:	83 c2 01             	add    $0x1,%edx
   12e7f:	89 d0                	mov    %edx,%eax
   12e81:	39 fa                	cmp    %edi,%edx
   12e83:	75 d2                	jne    12e57 <Alloc_Pageable_Page+0x1ba>
   12e85:	eb 05                	jmp    12e8c <Alloc_Pageable_Page+0x1ef>
   12e87:	bb 00 00 00 00       	mov    $0x0,%ebx
   12e8c:	f6 03 20             	testb  $0x20,(%ebx)
   12e8f:	75 4a                	jne    12edb <Alloc_Pageable_Page+0x23e>
   12e91:	c7 04 24 4f 00 00 00 	movl   $0x4f,(%esp)
   12e98:	e8 1e e3 ff ff       	call   111bb <Set_Current_Attr>
   12e9d:	a1 6c 5e 02 00       	mov    0x25e6c,%eax
   12ea2:	89 44 24 18          	mov    %eax,0x18(%esp)
   12ea6:	8b 45 04             	mov    0x4(%ebp),%eax
   12ea9:	89 44 24 14          	mov    %eax,0x14(%esp)
   12ead:	c7 44 24 10 04 01 00 	movl   $0x104,0x10(%esp)
   12eb4:	00 
   12eb5:	c7 44 24 0c e9 f5 01 	movl   $0x1f5e9,0xc(%esp)
   12ebc:	00 
   12ebd:	c7 44 24 08 7f f6 01 	movl   $0x1f67f,0x8(%esp)
   12ec4:	00 
   12ec5:	c7 44 24 04 56 f8 01 	movl   $0x1f856,0x4(%esp)
   12ecc:	00 
   12ecd:	c7 04 24 34 ee 01 00 	movl   $0x1ee34,(%esp)
   12ed4:	e8 8d e1 ff ff       	call   11066 <Print>
   12ed9:	eb fe                	jmp    12ed9 <Alloc_Pageable_Page+0x23c>
   12edb:	89 de                	mov    %ebx,%esi
   12edd:	2b 35 60 5e 02 00    	sub    0x25e60,%esi
   12ee3:	c1 fe 03             	sar    $0x3,%esi
   12ee6:	69 f6 ab aa aa aa    	imul   $0xaaaaaaab,%esi,%esi
   12eec:	c1 e6 0c             	shl    $0xc,%esi
   12eef:	83 3d e4 53 02 00 00 	cmpl   $0x0,0x253e4
   12ef6:	74 17                	je     12f0f <Alloc_Pageable_Page+0x272>
   12ef8:	8b 43 0c             	mov    0xc(%ebx),%eax
   12efb:	89 44 24 08          	mov    %eax,0x8(%esp)
   12eff:	89 74 24 04          	mov    %esi,0x4(%esp)
   12f03:	c7 04 24 d0 f7 01 00 	movl   $0x1f7d0,(%esp)
   12f0a:	e8 57 e1 ff ff       	call   11066 <Print>
   12f0f:	e8 b6 9b 00 00       	call   1caca <Find_Space_On_Paging_File>
   12f14:	89 c7                	mov    %eax,%edi
   12f16:	85 c0                	test   %eax,%eax
   12f18:	0f 88 9f 01 00 00    	js     130bd <Alloc_Pageable_Page+0x420>
   12f1e:	83 3d e4 53 02 00 00 	cmpl   $0x0,0x253e4
   12f25:	74 10                	je     12f37 <Alloc_Pageable_Page+0x29a>
   12f27:	89 44 24 04          	mov    %eax,0x4(%esp)
   12f2b:	c7 04 24 9b f6 01 00 	movl   $0x1f69b,(%esp)
   12f32:	e8 2f e1 ff ff       	call   11066 <Print>
   12f37:	8b 03                	mov    (%ebx),%eax
   12f39:	83 e0 df             	and    $0xffffffdf,%eax
   12f3c:	83 c8 40             	or     $0x40,%eax
   12f3f:	89 03                	mov    %eax,(%ebx)
   12f41:	83 3d e4 53 02 00 00 	cmpl   $0x0,0x253e4
   12f48:	74 14                	je     12f5e <Alloc_Pageable_Page+0x2c1>
   12f4a:	89 7c 24 08          	mov    %edi,0x8(%esp)
   12f4e:	89 74 24 04          	mov    %esi,0x4(%esp)
   12f52:	c7 04 24 f8 f7 01 00 	movl   $0x1f7f8,(%esp)
   12f59:	e8 08 e1 ff ff       	call   11066 <Print>
   12f5e:	e8 dc d2 ff ff       	call   1023f <Interrupts_Enabled>
   12f63:	84 c0                	test   %al,%al
   12f65:	74 4a                	je     12fb1 <Alloc_Pageable_Page+0x314>
   12f67:	c7 04 24 4f 00 00 00 	movl   $0x4f,(%esp)
   12f6e:	e8 48 e2 ff ff       	call   111bb <Set_Current_Attr>
   12f73:	a1 6c 5e 02 00       	mov    0x25e6c,%eax
   12f78:	89 44 24 18          	mov    %eax,0x18(%esp)
   12f7c:	8b 45 04             	mov    0x4(%ebp),%eax
   12f7f:	89 44 24 14          	mov    %eax,0x14(%esp)
   12f83:	c7 44 24 10 17 01 00 	movl   $0x117,0x10(%esp)
   12f8a:	00 
   12f8b:	c7 44 24 0c e9 f5 01 	movl   $0x1f5e9,0xc(%esp)
   12f92:	00 
   12f93:	c7 44 24 08 52 ef 01 	movl   $0x1ef52,0x8(%esp)
   12f9a:	00 
   12f9b:	c7 44 24 04 56 f8 01 	movl   $0x1f856,0x4(%esp)
   12fa2:	00 
   12fa3:	c7 04 24 34 ee 01 00 	movl   $0x1ee34,(%esp)
   12faa:	e8 b7 e0 ff ff       	call   11066 <Print>
   12faf:	eb fe                	jmp    12faf <Alloc_Pageable_Page+0x312>
   12fb1:	fb                   	sti    
   12fb2:	89 7c 24 08          	mov    %edi,0x8(%esp)
   12fb6:	8b 43 10             	mov    0x10(%ebx),%eax
   12fb9:	89 44 24 04          	mov    %eax,0x4(%esp)
   12fbd:	89 34 24             	mov    %esi,(%esp)
   12fc0:	e8 b2 9d 00 00       	call   1cd77 <Write_To_Paging_File>
   12fc5:	e8 75 d2 ff ff       	call   1023f <Interrupts_Enabled>
   12fca:	84 c0                	test   %al,%al
   12fcc:	75 4a                	jne    13018 <Alloc_Pageable_Page+0x37b>
   12fce:	c7 04 24 4f 00 00 00 	movl   $0x4f,(%esp)
   12fd5:	e8 e1 e1 ff ff       	call   111bb <Set_Current_Attr>
   12fda:	a1 6c 5e 02 00       	mov    0x25e6c,%eax
   12fdf:	89 44 24 18          	mov    %eax,0x18(%esp)
   12fe3:	8b 45 04             	mov    0x4(%ebp),%eax
   12fe6:	89 44 24 14          	mov    %eax,0x14(%esp)
   12fea:	c7 44 24 10 19 01 00 	movl   $0x119,0x10(%esp)
   12ff1:	00 
   12ff2:	c7 44 24 0c e9 f5 01 	movl   $0x1f5e9,0xc(%esp)
   12ff9:	00 
   12ffa:	c7 44 24 08 53 ef 01 	movl   $0x1ef53,0x8(%esp)
   13001:	00 
   13002:	c7 44 24 04 56 f8 01 	movl   $0x1f856,0x4(%esp)
   13009:	00 
   1300a:	c7 04 24 34 ee 01 00 	movl   $0x1ee34,(%esp)
   13011:	e8 50 e0 ff ff       	call   11066 <Print>
   13016:	eb fe                	jmp    13016 <Alloc_Pageable_Page+0x379>
   13018:	fa                   	cli    
   13019:	f6 03 04             	testb  $0x4,(%ebx)
   1301c:	74 2a                	je     13048 <Alloc_Pageable_Page+0x3ab>
   1301e:	8b 43 14             	mov    0x14(%ebx),%eax
   13021:	80 20 fe             	andb   $0xfe,(%eax)
   13024:	8b 43 14             	mov    0x14(%ebx),%eax
   13027:	0f b6 50 01          	movzbl 0x1(%eax),%edx
   1302b:	83 e2 f1             	and    $0xfffffff1,%edx
   1302e:	83 ca 08             	or     $0x8,%edx
   13031:	88 50 01             	mov    %dl,0x1(%eax)
   13034:	8b 43 14             	mov    0x14(%ebx),%eax
   13037:	c1 e7 0c             	shl    $0xc,%edi
   1303a:	8b 10                	mov    (%eax),%edx
   1303c:	81 e2 ff 0f 00 00    	and    $0xfff,%edx
   13042:	09 fa                	or     %edi,%edx
   13044:	89 10                	mov    %edx,(%eax)
   13046:	eb 0b                	jmp    13053 <Alloc_Pageable_Page+0x3b6>
   13048:	89 3c 24             	mov    %edi,(%esp)
   1304b:	e8 17 9c 00 00       	call   1cc67 <Free_Space_On_Paging_File>
   13050:	83 0b 04             	orl    $0x4,(%ebx)
   13053:	83 23 bf             	andl   $0xffffffbf,(%ebx)
   13056:	e8 e5 9f 00 00       	call   1d040 <Flush_TLB>
   1305b:	83 0b 20             	orl    $0x20,(%ebx)
   1305e:	8b 45 08             	mov    0x8(%ebp),%eax
   13061:	89 43 14             	mov    %eax,0x14(%ebx)
   13064:	80 60 01 f1          	andb   $0xf1,0x1(%eax)
   13068:	8b 45 0c             	mov    0xc(%ebp),%eax
   1306b:	89 43 10             	mov    %eax,0x10(%ebx)
   1306e:	f6 03 04             	testb  $0x4,(%ebx)
   13071:	75 4a                	jne    130bd <Alloc_Pageable_Page+0x420>
   13073:	c7 04 24 4f 00 00 00 	movl   $0x4f,(%esp)
   1307a:	e8 3c e1 ff ff       	call   111bb <Set_Current_Attr>
   1307f:	a1 6c 5e 02 00       	mov    0x25e6c,%eax
   13084:	89 44 24 18          	mov    %eax,0x18(%esp)
   13088:	8b 45 04             	mov    0x4(%ebp),%eax
   1308b:	89 44 24 14          	mov    %eax,0x14(%esp)
   1308f:	c7 44 24 10 39 01 00 	movl   $0x139,0x10(%esp)
   13096:	00 
   13097:	c7 44 24 0c e9 f5 01 	movl   $0x1f5e9,0xc(%esp)
   1309e:	00 
   1309f:	c7 44 24 08 b7 f6 01 	movl   $0x1f6b7,0x8(%esp)
   130a6:	00 
   130a7:	c7 44 24 04 56 f8 01 	movl   $0x1f856,0x4(%esp)
   130ae:	00 
   130af:	c7 04 24 34 ee 01 00 	movl   $0x1ee34,(%esp)
   130b6:	e8 ab df ff ff       	call   11066 <Print>
   130bb:	eb fe                	jmp    130bb <Alloc_Pageable_Page+0x41e>
   130bd:	0f b6 45 e7          	movzbl -0x19(%ebp),%eax
   130c1:	e8 aa f5 ff ff       	call   12670 <End_Int_Atomic>
   130c6:	89 f0                	mov    %esi,%eax
   130c8:	83 c4 2c             	add    $0x2c,%esp
   130cb:	5b                   	pop    %ebx
   130cc:	5e                   	pop    %esi
   130cd:	5f                   	pop    %edi
   130ce:	5d                   	pop    %ebp
   130cf:	c3                   	ret    

000130d0 <Free_Page>:
   130d0:	55                   	push   %ebp
   130d1:	89 e5                	mov    %esp,%ebp
   130d3:	56                   	push   %esi
   130d4:	53                   	push   %ebx
   130d5:	83 ec 20             	sub    $0x20,%esp
   130d8:	8b 75 08             	mov    0x8(%ebp),%esi
   130db:	e8 5f d1 ff ff       	call   1023f <Interrupts_Enabled>
   130e0:	89 c3                	mov    %eax,%ebx
   130e2:	84 c0                	test   %al,%al
   130e4:	74 54                	je     1313a <Free_Page+0x6a>
   130e6:	e8 54 d1 ff ff       	call   1023f <Interrupts_Enabled>
   130eb:	84 c0                	test   %al,%al
   130ed:	75 4a                	jne    13139 <Free_Page+0x69>
   130ef:	c7 04 24 4f 00 00 00 	movl   $0x4f,(%esp)
   130f6:	e8 c0 e0 ff ff       	call   111bb <Set_Current_Attr>
   130fb:	a1 6c 5e 02 00       	mov    0x25e6c,%eax
   13100:	89 44 24 18          	mov    %eax,0x18(%esp)
   13104:	8b 45 04             	mov    0x4(%ebp),%eax
   13107:	89 44 24 14          	mov    %eax,0x14(%esp)
   1310b:	c7 44 24 10 8f 00 00 	movl   $0x8f,0x10(%esp)
   13112:	00 
   13113:	c7 44 24 0c fe f0 01 	movl   $0x1f0fe,0xc(%esp)
   1311a:	00 
   1311b:	c7 44 24 08 53 ef 01 	movl   $0x1ef53,0x8(%esp)
   13122:	00 
   13123:	c7 44 24 04 79 f8 01 	movl   $0x1f879,0x4(%esp)
   1312a:	00 
   1312b:	c7 04 24 34 ee 01 00 	movl   $0x1ee34,(%esp)
   13132:	e8 2f df ff ff       	call   11066 <Print>
   13137:	eb fe                	jmp    13137 <Free_Page+0x67>
   13139:	fa                   	cli    
   1313a:	89 f0                	mov    %esi,%eax
   1313c:	25 00 f0 ff ff       	and    $0xfffff000,%eax
   13141:	39 c6                	cmp    %eax,%esi
   13143:	74 4a                	je     1318f <Free_Page+0xbf>
   13145:	c7 04 24 4f 00 00 00 	movl   $0x4f,(%esp)
   1314c:	e8 6a e0 ff ff       	call   111bb <Set_Current_Attr>
   13151:	a1 6c 5e 02 00       	mov    0x25e6c,%eax
   13156:	89 44 24 18          	mov    %eax,0x18(%esp)
   1315a:	8b 45 04             	mov    0x4(%ebp),%eax
   1315d:	89 44 24 14          	mov    %eax,0x14(%esp)
   13161:	c7 44 24 10 4b 01 00 	movl   $0x14b,0x10(%esp)
   13168:	00 
   13169:	c7 44 24 0c e9 f5 01 	movl   $0x1f5e9,0xc(%esp)
   13170:	00 
   13171:	c7 44 24 08 d4 f6 01 	movl   $0x1f6d4,0x8(%esp)
   13178:	00 
   13179:	c7 44 24 04 4c f8 01 	movl   $0x1f84c,0x4(%esp)
   13180:	00 
   13181:	c7 04 24 34 ee 01 00 	movl   $0x1ee34,(%esp)
   13188:	e8 d9 de ff ff       	call   11066 <Print>
   1318d:	eb fe                	jmp    1318d <Free_Page+0xbd>
   1318f:	89 f0                	mov    %esi,%eax
   13191:	c1 e8 0c             	shr    $0xc,%eax
   13194:	8d 14 40             	lea    (%eax,%eax,2),%edx
   13197:	a1 60 5e 02 00       	mov    0x25e60,%eax
   1319c:	8d 14 d0             	lea    (%eax,%edx,8),%edx
   1319f:	8b 02                	mov    (%edx),%eax
   131a1:	a8 04                	test   $0x4,%al
   131a3:	75 4a                	jne    131ef <Free_Page+0x11f>
   131a5:	c7 04 24 4f 00 00 00 	movl   $0x4f,(%esp)
   131ac:	e8 0a e0 ff ff       	call   111bb <Set_Current_Attr>
   131b1:	a1 6c 5e 02 00       	mov    0x25e6c,%eax
   131b6:	89 44 24 18          	mov    %eax,0x18(%esp)
   131ba:	8b 45 04             	mov    0x4(%ebp),%eax
   131bd:	89 44 24 14          	mov    %eax,0x14(%esp)
   131c1:	c7 44 24 10 4f 01 00 	movl   $0x14f,0x10(%esp)
   131c8:	00 
   131c9:	c7 44 24 0c e9 f5 01 	movl   $0x1f5e9,0xc(%esp)
   131d0:	00 
   131d1:	c7 44 24 08 28 f8 01 	movl   $0x1f828,0x8(%esp)
   131d8:	00 
   131d9:	c7 44 24 04 4c f8 01 	movl   $0x1f84c,0x4(%esp)
   131e0:	00 
   131e1:	c7 04 24 34 ee 01 00 	movl   $0x1ee34,(%esp)
   131e8:	e8 79 de ff ff       	call   11066 <Print>
   131ed:	eb fe                	jmp    131ed <Free_Page+0x11d>
   131ef:	89 c1                	mov    %eax,%ecx
   131f1:	83 e1 fb             	and    $0xfffffffb,%ecx
   131f4:	89 0a                	mov    %ecx,(%edx)
   131f6:	a8 40                	test   $0x40,%al
   131f8:	0f 85 b9 00 00 00    	jne    132b7 <Free_Page+0x1e7>
   131fe:	83 e0 db             	and    $0xffffffdb,%eax
   13201:	89 02                	mov    %eax,(%edx)
   13203:	8b 0d cc 4b 02 00    	mov    0x24bcc,%ecx
   13209:	85 c9                	test   %ecx,%ecx
   1320b:	74 4b                	je     13258 <Free_Page+0x188>
   1320d:	39 ca                	cmp    %ecx,%edx
   1320f:	75 06                	jne    13217 <Free_Page+0x147>
   13211:	eb 57                	jmp    1326a <Free_Page+0x19a>
   13213:	39 ca                	cmp    %ecx,%edx
   13215:	74 53                	je     1326a <Free_Page+0x19a>
   13217:	8b 49 08             	mov    0x8(%ecx),%ecx
   1321a:	85 c9                	test   %ecx,%ecx
   1321c:	8d 74 26 00          	lea    0x0(%esi,%eiz,1),%esi
   13220:	75 f1                	jne    13213 <Free_Page+0x143>
   13222:	eb 34                	jmp    13258 <Free_Page+0x188>
   13224:	eb fe                	jmp    13224 <Free_Page+0x154>
   13226:	89 15 d0 4b 02 00    	mov    %edx,0x24bd0
   1322c:	89 15 cc 4b 02 00    	mov    %edx,0x24bcc
   13232:	c7 42 04 00 00 00 00 	movl   $0x0,0x4(%edx)
   13239:	eb 0c                	jmp    13247 <Free_Page+0x177>
   1323b:	89 50 08             	mov    %edx,0x8(%eax)
   1323e:	89 42 04             	mov    %eax,0x4(%edx)
   13241:	89 15 d0 4b 02 00    	mov    %edx,0x24bd0
   13247:	83 05 c8 4b 02 00 01 	addl   $0x1,0x24bc8
   1324e:	0f b6 c3             	movzbl %bl,%eax
   13251:	e8 1a f4 ff ff       	call   12670 <End_Int_Atomic>
   13256:	eb 5f                	jmp    132b7 <Free_Page+0x1e7>
   13258:	c7 42 08 00 00 00 00 	movl   $0x0,0x8(%edx)
   1325f:	a1 d0 4b 02 00       	mov    0x24bd0,%eax
   13264:	85 c0                	test   %eax,%eax
   13266:	75 d3                	jne    1323b <Free_Page+0x16b>
   13268:	eb bc                	jmp    13226 <Free_Page+0x156>
   1326a:	c7 04 24 4f 00 00 00 	movl   $0x4f,(%esp)
   13271:	e8 45 df ff ff       	call   111bb <Set_Current_Attr>
   13276:	a1 6c 5e 02 00       	mov    0x25e6c,%eax
   1327b:	89 44 24 18          	mov    %eax,0x18(%esp)
   1327f:	8b 45 04             	mov    0x4(%ebp),%eax
   13282:	89 44 24 14          	mov    %eax,0x14(%esp)
   13286:	c7 44 24 10 45 00 00 	movl   $0x45,0x10(%esp)
   1328d:	00 
   1328e:	c7 44 24 0c 37 f6 01 	movl   $0x1f637,0xc(%esp)
   13295:	00 
   13296:	c7 44 24 08 ec f6 01 	movl   $0x1f6ec,0x8(%esp)
   1329d:	00 
   1329e:	c7 44 24 04 95 f8 01 	movl   $0x1f895,0x4(%esp)
   132a5:	00 
   132a6:	c7 04 24 34 ee 01 00 	movl   $0x1ee34,(%esp)
   132ad:	e8 b4 dd ff ff       	call   11066 <Print>
   132b2:	e9 6d ff ff ff       	jmp    13224 <Free_Page+0x154>
   132b7:	83 c4 20             	add    $0x20,%esp
   132ba:	5b                   	pop    %ebx
   132bb:	5e                   	pop    %esi
   132bc:	5d                   	pop    %ebp
   132bd:	c3                   	ret    

000132be <Init_CRC32>:
   132be:	55                   	push   %ebp
   132bf:	89 e5                	mov    %esp,%ebp
   132c1:	57                   	push   %edi
   132c2:	56                   	push   %esi
   132c3:	53                   	push   %ebx
   132c4:	c7 05 e0 4b 02 00 00 	movl   $0x0,0x24be0
   132cb:	00 00 00 
   132ce:	be 08 00 00 00       	mov    $0x8,%esi
   132d3:	b9 80 00 00 00       	mov    $0x80,%ecx
   132d8:	b8 00 00 00 00       	mov    $0x0,%eax
   132dd:	bb 20 83 b8 ed       	mov    $0xedb88320,%ebx
   132e2:	eb 0f                	jmp    132f3 <Init_CRC32+0x35>
   132e4:	89 d8                	mov    %ebx,%eax
   132e6:	d1 e8                	shr    %eax
   132e8:	83 e3 01             	and    $0x1,%ebx
   132eb:	f7 db                	neg    %ebx
   132ed:	81 e3 20 83 b8 ed    	and    $0xedb88320,%ebx
   132f3:	31 c3                	xor    %eax,%ebx
   132f5:	b8 00 00 00 00       	mov    $0x0,%eax
   132fa:	8d 14 08             	lea    (%eax,%ecx,1),%edx
   132fd:	89 df                	mov    %ebx,%edi
   132ff:	33 3c 85 e0 4b 02 00 	xor    0x24be0(,%eax,4),%edi
   13306:	89 3c 95 e0 4b 02 00 	mov    %edi,0x24be0(,%edx,4)
   1330d:	8d 04 0a             	lea    (%edx,%ecx,1),%eax
   13310:	3d ff 00 00 00       	cmp    $0xff,%eax
   13315:	76 e3                	jbe    132fa <Init_CRC32+0x3c>
   13317:	d1 e9                	shr    %ecx
   13319:	83 ee 01             	sub    $0x1,%esi
   1331c:	75 c6                	jne    132e4 <Init_CRC32+0x26>
   1331e:	5b                   	pop    %ebx
   1331f:	5e                   	pop    %esi
   13320:	5f                   	pop    %edi
   13321:	5d                   	pop    %ebp
   13322:	c3                   	ret    

00013323 <crc32>:
   13323:	55                   	push   %ebp
   13324:	89 e5                	mov    %esp,%ebp
   13326:	53                   	push   %ebx
   13327:	83 ec 24             	sub    $0x24,%esp
   1332a:	8b 45 0c             	mov    0xc(%ebp),%eax
   1332d:	8b 5d 10             	mov    0x10(%ebp),%ebx
   13330:	83 3d dc 4f 02 00 00 	cmpl   $0x0,0x24fdc
   13337:	75 4a                	jne    13383 <crc32+0x60>
   13339:	c7 04 24 4f 00 00 00 	movl   $0x4f,(%esp)
   13340:	e8 76 de ff ff       	call   111bb <Set_Current_Attr>
   13345:	a1 6c 5e 02 00       	mov    0x25e6c,%eax
   1334a:	89 44 24 18          	mov    %eax,0x18(%esp)
   1334e:	8b 45 04             	mov    0x4(%ebp),%eax
   13351:	89 44 24 14          	mov    %eax,0x14(%esp)
   13355:	c7 44 24 10 2b 00 00 	movl   $0x2b,0x10(%esp)
   1335c:	00 
   1335d:	c7 44 24 0c c6 f8 01 	movl   $0x1f8c6,0xc(%esp)
   13364:	00 
   13365:	c7 44 24 08 dc f8 01 	movl   $0x1f8dc,0x8(%esp)
   1336c:	00 
   1336d:	c7 44 24 04 f0 f8 01 	movl   $0x1f8f0,0x4(%esp)
   13374:	00 
   13375:	c7 04 24 34 ee 01 00 	movl   $0x1ee34,(%esp)
   1337c:	e8 e5 dc ff ff       	call   11066 <Print>
   13381:	eb fe                	jmp    13381 <crc32+0x5e>
   13383:	8b 55 08             	mov    0x8(%ebp),%edx
   13386:	f7 d2                	not    %edx
   13388:	85 db                	test   %ebx,%ebx
   1338a:	74 1d                	je     133a9 <crc32+0x86>
   1338c:	01 c3                	add    %eax,%ebx
   1338e:	89 d1                	mov    %edx,%ecx
   13390:	c1 e9 08             	shr    $0x8,%ecx
   13393:	83 c0 01             	add    $0x1,%eax
   13396:	32 50 ff             	xor    -0x1(%eax),%dl
   13399:	0f b6 d2             	movzbl %dl,%edx
   1339c:	33 0c 95 e0 4b 02 00 	xor    0x24be0(,%edx,4),%ecx
   133a3:	89 ca                	mov    %ecx,%edx
   133a5:	39 d8                	cmp    %ebx,%eax
   133a7:	75 e5                	jne    1338e <crc32+0x6b>
   133a9:	89 d0                	mov    %edx,%eax
   133ab:	f7 d0                	not    %eax
   133ad:	83 c4 24             	add    $0x24,%esp
   133b0:	5b                   	pop    %ebx
   133b1:	5d                   	pop    %ebp
   133b2:	c3                   	ret    
   133b3:	66 90                	xchg   %ax,%ax
   133b5:	66 90                	xchg   %ax,%ax
   133b7:	66 90                	xchg   %ax,%ax
   133b9:	66 90                	xchg   %ax,%ax
   133bb:	66 90                	xchg   %ax,%ax
   133bd:	66 90                	xchg   %ax,%ax
   133bf:	90                   	nop

000133c0 <Allocate_Segment_Descriptor>:
   133c0:	55                   	push   %ebp
   133c1:	89 e5                	mov    %esp,%ebp
   133c3:	56                   	push   %esi
   133c4:	53                   	push   %ebx
   133c5:	83 ec 20             	sub    $0x20,%esp
   133c8:	e8 72 ce ff ff       	call   1023f <Interrupts_Enabled>
   133cd:	89 c6                	mov    %eax,%esi
   133cf:	84 c0                	test   %al,%al
   133d1:	74 54                	je     13427 <Allocate_Segment_Descriptor+0x67>
   133d3:	e8 67 ce ff ff       	call   1023f <Interrupts_Enabled>
   133d8:	84 c0                	test   %al,%al
   133da:	75 4a                	jne    13426 <Allocate_Segment_Descriptor+0x66>
   133dc:	c7 04 24 4f 00 00 00 	movl   $0x4f,(%esp)
   133e3:	e8 d3 dd ff ff       	call   111bb <Set_Current_Attr>
   133e8:	a1 6c 5e 02 00       	mov    0x25e6c,%eax
   133ed:	89 44 24 18          	mov    %eax,0x18(%esp)
   133f1:	8b 45 04             	mov    0x4(%ebp),%eax
   133f4:	89 44 24 14          	mov    %eax,0x14(%esp)
   133f8:	c7 44 24 10 8f 00 00 	movl   $0x8f,0x10(%esp)
   133ff:	00 
   13400:	c7 44 24 0c fe f0 01 	movl   $0x1f0fe,0xc(%esp)
   13407:	00 
   13408:	c7 44 24 08 53 ef 01 	movl   $0x1ef53,0x8(%esp)
   1340f:	00 
   13410:	c7 44 24 04 a7 f9 01 	movl   $0x1f9a7,0x4(%esp)
   13417:	00 
   13418:	c7 04 24 34 ee 01 00 	movl   $0x1ee34,(%esp)
   1341f:	e8 42 dc ff ff       	call   11066 <Print>
   13424:	eb fe                	jmp    13424 <Allocate_Segment_Descriptor+0x64>
   13426:	fa                   	cli    
   13427:	f6 05 0e 50 02 00 10 	testb  $0x10,0x2500e
   1342e:	75 14                	jne    13444 <Allocate_Segment_Descriptor+0x84>
   13430:	ba 10 50 02 00       	mov    $0x25010,%edx
   13435:	b8 80 50 02 00       	mov    $0x25080,%eax
   1343a:	89 d3                	mov    %edx,%ebx
   1343c:	f6 42 06 10          	testb  $0x10,0x6(%edx)
   13440:	74 14                	je     13456 <Allocate_Segment_Descriptor+0x96>
   13442:	eb 05                	jmp    13449 <Allocate_Segment_Descriptor+0x89>
   13444:	bb 08 50 02 00       	mov    $0x25008,%ebx
   13449:	83 05 e0 4f 02 00 01 	addl   $0x1,0x24fe0
   13450:	80 63 06 ef          	andb   $0xef,0x6(%ebx)
   13454:	eb 0c                	jmp    13462 <Allocate_Segment_Descriptor+0xa2>
   13456:	83 c2 08             	add    $0x8,%edx
   13459:	39 c2                	cmp    %eax,%edx
   1345b:	75 dd                	jne    1343a <Allocate_Segment_Descriptor+0x7a>
   1345d:	bb 00 00 00 00       	mov    $0x0,%ebx
   13462:	e8 d8 cd ff ff       	call   1023f <Interrupts_Enabled>
   13467:	84 c0                	test   %al,%al
   13469:	74 4a                	je     134b5 <Allocate_Segment_Descriptor+0xf5>
   1346b:	c7 04 24 4f 00 00 00 	movl   $0x4f,(%esp)
   13472:	e8 44 dd ff ff       	call   111bb <Set_Current_Attr>
   13477:	a1 6c 5e 02 00       	mov    0x25e6c,%eax
   1347c:	89 44 24 18          	mov    %eax,0x18(%esp)
   13480:	8b 45 04             	mov    0x4(%ebp),%eax
   13483:	89 44 24 14          	mov    %eax,0x14(%esp)
   13487:	c7 44 24 10 99 00 00 	movl   $0x99,0x10(%esp)
   1348e:	00 
   1348f:	c7 44 24 0c fe f0 01 	movl   $0x1f0fe,0xc(%esp)
   13496:	00 
   13497:	c7 44 24 08 52 ef 01 	movl   $0x1ef52,0x8(%esp)
   1349e:	00 
   1349f:	c7 44 24 04 98 f9 01 	movl   $0x1f998,0x4(%esp)
   134a6:	00 
   134a7:	c7 04 24 34 ee 01 00 	movl   $0x1ee34,(%esp)
   134ae:	e8 b3 db ff ff       	call   11066 <Print>
   134b3:	eb fe                	jmp    134b3 <Allocate_Segment_Descriptor+0xf3>
   134b5:	89 f0                	mov    %esi,%eax
   134b7:	84 c0                	test   %al,%al
   134b9:	74 59                	je     13514 <Allocate_Segment_Descriptor+0x154>
   134bb:	90                   	nop
   134bc:	8d 74 26 00          	lea    0x0(%esi,%eiz,1),%esi
   134c0:	e8 7a cd ff ff       	call   1023f <Interrupts_Enabled>
   134c5:	84 c0                	test   %al,%al
   134c7:	74 4a                	je     13513 <Allocate_Segment_Descriptor+0x153>
   134c9:	c7 04 24 4f 00 00 00 	movl   $0x4f,(%esp)
   134d0:	e8 e6 dc ff ff       	call   111bb <Set_Current_Attr>
   134d5:	a1 6c 5e 02 00       	mov    0x25e6c,%eax
   134da:	89 44 24 18          	mov    %eax,0x18(%esp)
   134de:	8b 45 04             	mov    0x4(%ebp),%eax
   134e1:	89 44 24 14          	mov    %eax,0x14(%esp)
   134e5:	c7 44 24 10 9c 00 00 	movl   $0x9c,0x10(%esp)
   134ec:	00 
   134ed:	c7 44 24 0c fe f0 01 	movl   $0x1f0fe,0xc(%esp)
   134f4:	00 
   134f5:	c7 44 24 08 52 ef 01 	movl   $0x1ef52,0x8(%esp)
   134fc:	00 
   134fd:	c7 44 24 04 98 f9 01 	movl   $0x1f998,0x4(%esp)
   13504:	00 
   13505:	c7 04 24 34 ee 01 00 	movl   $0x1ee34,(%esp)
   1350c:	e8 55 db ff ff       	call   11066 <Print>
   13511:	eb fe                	jmp    13511 <Allocate_Segment_Descriptor+0x151>
   13513:	fb                   	sti    
   13514:	89 d8                	mov    %ebx,%eax
   13516:	83 c4 20             	add    $0x20,%esp
   13519:	5b                   	pop    %ebx
   1351a:	5e                   	pop    %esi
   1351b:	5d                   	pop    %ebp
   1351c:	c3                   	ret    

0001351d <Free_Segment_Descriptor>:
   1351d:	55                   	push   %ebp
   1351e:	89 e5                	mov    %esp,%ebp
   13520:	56                   	push   %esi
   13521:	53                   	push   %ebx
   13522:	83 ec 20             	sub    $0x20,%esp
   13525:	8b 5d 08             	mov    0x8(%ebp),%ebx
   13528:	e8 12 cd ff ff       	call   1023f <Interrupts_Enabled>
   1352d:	89 c6                	mov    %eax,%esi
   1352f:	84 c0                	test   %al,%al
   13531:	74 54                	je     13587 <Free_Segment_Descriptor+0x6a>
   13533:	e8 07 cd ff ff       	call   1023f <Interrupts_Enabled>
   13538:	84 c0                	test   %al,%al
   1353a:	75 4a                	jne    13586 <Free_Segment_Descriptor+0x69>
   1353c:	c7 04 24 4f 00 00 00 	movl   $0x4f,(%esp)
   13543:	e8 73 dc ff ff       	call   111bb <Set_Current_Attr>
   13548:	a1 6c 5e 02 00       	mov    0x25e6c,%eax
   1354d:	89 44 24 18          	mov    %eax,0x18(%esp)
   13551:	8b 45 04             	mov    0x4(%ebp),%eax
   13554:	89 44 24 14          	mov    %eax,0x14(%esp)
   13558:	c7 44 24 10 8f 00 00 	movl   $0x8f,0x10(%esp)
   1355f:	00 
   13560:	c7 44 24 0c fe f0 01 	movl   $0x1f0fe,0xc(%esp)
   13567:	00 
   13568:	c7 44 24 08 53 ef 01 	movl   $0x1ef53,0x8(%esp)
   1356f:	00 
   13570:	c7 44 24 04 a7 f9 01 	movl   $0x1f9a7,0x4(%esp)
   13577:	00 
   13578:	c7 04 24 34 ee 01 00 	movl   $0x1ee34,(%esp)
   1357f:	e8 e2 da ff ff       	call   11066 <Print>
   13584:	eb fe                	jmp    13584 <Free_Segment_Descriptor+0x67>
   13586:	fa                   	cli    
   13587:	f6 43 06 10          	testb  $0x10,0x6(%ebx)
   1358b:	74 4a                	je     135d7 <Free_Segment_Descriptor+0xba>
   1358d:	c7 04 24 4f 00 00 00 	movl   $0x4f,(%esp)
   13594:	e8 22 dc ff ff       	call   111bb <Set_Current_Attr>
   13599:	a1 6c 5e 02 00       	mov    0x25e6c,%eax
   1359e:	89 44 24 18          	mov    %eax,0x18(%esp)
   135a2:	8b 45 04             	mov    0x4(%ebp),%eax
   135a5:	89 44 24 14          	mov    %eax,0x14(%esp)
   135a9:	c7 44 24 10 4f 00 00 	movl   $0x4f,0x10(%esp)
   135b0:	00 
   135b1:	c7 44 24 0c f6 f8 01 	movl   $0x1f8f6,0xc(%esp)
   135b8:	00 
   135b9:	c7 44 24 08 0a f9 01 	movl   $0x1f90a,0x8(%esp)
   135c0:	00 
   135c1:	c7 44 24 04 80 f9 01 	movl   $0x1f980,0x4(%esp)
   135c8:	00 
   135c9:	c7 04 24 34 ee 01 00 	movl   $0x1ee34,(%esp)
   135d0:	e8 91 da ff ff       	call   11066 <Print>
   135d5:	eb fe                	jmp    135d5 <Free_Segment_Descriptor+0xb8>
   135d7:	89 1c 24             	mov    %ebx,(%esp)
   135da:	e8 01 03 00 00       	call   138e0 <Init_Null_Segment_Descriptor>
   135df:	80 4b 06 10          	orb    $0x10,0x6(%ebx)
   135e3:	83 2d e0 4f 02 00 01 	subl   $0x1,0x24fe0
   135ea:	e8 50 cc ff ff       	call   1023f <Interrupts_Enabled>
   135ef:	84 c0                	test   %al,%al
   135f1:	74 4a                	je     1363d <Free_Segment_Descriptor+0x120>
   135f3:	c7 04 24 4f 00 00 00 	movl   $0x4f,(%esp)
   135fa:	e8 bc db ff ff       	call   111bb <Set_Current_Attr>
   135ff:	a1 6c 5e 02 00       	mov    0x25e6c,%eax
   13604:	89 44 24 18          	mov    %eax,0x18(%esp)
   13608:	8b 45 04             	mov    0x4(%ebp),%eax
   1360b:	89 44 24 14          	mov    %eax,0x14(%esp)
   1360f:	c7 44 24 10 99 00 00 	movl   $0x99,0x10(%esp)
   13616:	00 
   13617:	c7 44 24 0c fe f0 01 	movl   $0x1f0fe,0xc(%esp)
   1361e:	00 
   1361f:	c7 44 24 08 52 ef 01 	movl   $0x1ef52,0x8(%esp)
   13626:	00 
   13627:	c7 44 24 04 98 f9 01 	movl   $0x1f998,0x4(%esp)
   1362e:	00 
   1362f:	c7 04 24 34 ee 01 00 	movl   $0x1ee34,(%esp)
   13636:	e8 2b da ff ff       	call   11066 <Print>
   1363b:	eb fe                	jmp    1363b <Free_Segment_Descriptor+0x11e>
   1363d:	89 f0                	mov    %esi,%eax
   1363f:	84 c0                	test   %al,%al
   13641:	74 54                	je     13697 <Free_Segment_Descriptor+0x17a>
   13643:	e8 f7 cb ff ff       	call   1023f <Interrupts_Enabled>
   13648:	84 c0                	test   %al,%al
   1364a:	74 4a                	je     13696 <Free_Segment_Descriptor+0x179>
   1364c:	c7 04 24 4f 00 00 00 	movl   $0x4f,(%esp)
   13653:	e8 63 db ff ff       	call   111bb <Set_Current_Attr>
   13658:	a1 6c 5e 02 00       	mov    0x25e6c,%eax
   1365d:	89 44 24 18          	mov    %eax,0x18(%esp)
   13661:	8b 45 04             	mov    0x4(%ebp),%eax
   13664:	89 44 24 14          	mov    %eax,0x14(%esp)
   13668:	c7 44 24 10 9c 00 00 	movl   $0x9c,0x10(%esp)
   1366f:	00 
   13670:	c7 44 24 0c fe f0 01 	movl   $0x1f0fe,0xc(%esp)
   13677:	00 
   13678:	c7 44 24 08 52 ef 01 	movl   $0x1ef52,0x8(%esp)
   1367f:	00 
   13680:	c7 44 24 04 98 f9 01 	movl   $0x1f998,0x4(%esp)
   13687:	00 
   13688:	c7 04 24 34 ee 01 00 	movl   $0x1ee34,(%esp)
   1368f:	e8 d2 d9 ff ff       	call   11066 <Print>
   13694:	eb fe                	jmp    13694 <Free_Segment_Descriptor+0x177>
   13696:	fb                   	sti    
   13697:	83 c4 20             	add    $0x20,%esp
   1369a:	5b                   	pop    %ebx
   1369b:	5e                   	pop    %esi
   1369c:	5d                   	pop    %ebp
   1369d:	c3                   	ret    

0001369e <Get_Descriptor_Index>:
   1369e:	55                   	push   %ebp
   1369f:	89 e5                	mov    %esp,%ebp
   136a1:	8b 45 08             	mov    0x8(%ebp),%eax
   136a4:	2d 00 50 02 00       	sub    $0x25000,%eax
   136a9:	c1 f8 03             	sar    $0x3,%eax
   136ac:	5d                   	pop    %ebp
   136ad:	c3                   	ret    

000136ae <Init_GDT>:
   136ae:	55                   	push   %ebp
   136af:	89 e5                	mov    %esp,%ebp
   136b1:	57                   	push   %edi
   136b2:	56                   	push   %esi
   136b3:	53                   	push   %ebx
   136b4:	83 ec 3c             	sub    $0x3c,%esp
   136b7:	be 00 50 02 00       	mov    $0x25000,%esi
   136bc:	bf 80 50 02 00       	mov    $0x25080,%edi
   136c1:	89 f3                	mov    %esi,%ebx
   136c3:	89 1c 24             	mov    %ebx,(%esp)
   136c6:	e8 15 02 00 00       	call   138e0 <Init_Null_Segment_Descriptor>
   136cb:	80 4b 06 10          	orb    $0x10,0x6(%ebx)
   136cf:	83 c3 08             	add    $0x8,%ebx
   136d2:	39 fb                	cmp    %edi,%ebx
   136d4:	75 ed                	jne    136c3 <Init_GDT+0x15>
   136d6:	e8 e5 fc ff ff       	call   133c0 <Allocate_Segment_Descriptor>
   136db:	89 c3                	mov    %eax,%ebx
   136dd:	c7 44 24 0c 00 00 00 	movl   $0x0,0xc(%esp)
   136e4:	00 
   136e5:	c7 44 24 08 00 00 10 	movl   $0x100000,0x8(%esp)
   136ec:	00 
   136ed:	c7 44 24 04 00 00 00 	movl   $0x0,0x4(%esp)
   136f4:	00 
   136f5:	89 04 24             	mov    %eax,(%esp)
   136f8:	e8 f8 01 00 00       	call   138f5 <Init_Code_Segment_Descriptor>
   136fd:	89 d8                	mov    %ebx,%eax
   136ff:	2d 00 50 02 00       	sub    $0x25000,%eax
   13704:	c1 f8 03             	sar    $0x3,%eax
   13707:	83 f8 01             	cmp    $0x1,%eax
   1370a:	74 4a                	je     13756 <Init_GDT+0xa8>
   1370c:	c7 04 24 4f 00 00 00 	movl   $0x4f,(%esp)
   13713:	e8 a3 da ff ff       	call   111bb <Set_Current_Attr>
   13718:	a1 6c 5e 02 00       	mov    0x25e6c,%eax
   1371d:	89 44 24 18          	mov    %eax,0x18(%esp)
   13721:	8b 45 04             	mov    0x4(%ebp),%eax
   13724:	89 44 24 14          	mov    %eax,0x14(%esp)
   13728:	c7 44 24 10 7b 00 00 	movl   $0x7b,0x10(%esp)
   1372f:	00 
   13730:	c7 44 24 0c f6 f8 01 	movl   $0x1f8f6,0xc(%esp)
   13737:	00 
   13738:	c7 44 24 08 18 f9 01 	movl   $0x1f918,0x8(%esp)
   1373f:	00 
   13740:	c7 44 24 04 77 f9 01 	movl   $0x1f977,0x4(%esp)
   13747:	00 
   13748:	c7 04 24 34 ee 01 00 	movl   $0x1ee34,(%esp)
   1374f:	e8 12 d9 ff ff       	call   11066 <Print>
   13754:	eb fe                	jmp    13754 <Init_GDT+0xa6>
   13756:	e8 65 fc ff ff       	call   133c0 <Allocate_Segment_Descriptor>
   1375b:	89 c3                	mov    %eax,%ebx
   1375d:	c7 44 24 0c 00 00 00 	movl   $0x0,0xc(%esp)
   13764:	00 
   13765:	c7 44 24 08 00 00 10 	movl   $0x100000,0x8(%esp)
   1376c:	00 
   1376d:	c7 44 24 04 00 00 00 	movl   $0x0,0x4(%esp)
   13774:	00 
   13775:	89 04 24             	mov    %eax,(%esp)
   13778:	e8 72 02 00 00       	call   139ef <Init_Data_Segment_Descriptor>
   1377d:	89 d8                	mov    %ebx,%eax
   1377f:	2d 00 50 02 00       	sub    $0x25000,%eax
   13784:	c1 f8 03             	sar    $0x3,%eax
   13787:	83 f8 02             	cmp    $0x2,%eax
   1378a:	74 4a                	je     137d6 <Init_GDT+0x128>
   1378c:	c7 04 24 4f 00 00 00 	movl   $0x4f,(%esp)
   13793:	e8 23 da ff ff       	call   111bb <Set_Current_Attr>
   13798:	a1 6c 5e 02 00       	mov    0x25e6c,%eax
   1379d:	89 44 24 18          	mov    %eax,0x18(%esp)
   137a1:	8b 45 04             	mov    0x4(%ebp),%eax
   137a4:	89 44 24 14          	mov    %eax,0x14(%esp)
   137a8:	c7 44 24 10 85 00 00 	movl   $0x85,0x10(%esp)
   137af:	00 
   137b0:	c7 44 24 0c f6 f8 01 	movl   $0x1f8f6,0xc(%esp)
   137b7:	00 
   137b8:	c7 44 24 08 48 f9 01 	movl   $0x1f948,0x8(%esp)
   137bf:	00 
   137c0:	c7 44 24 04 77 f9 01 	movl   $0x1f977,0x4(%esp)
   137c7:	00 
   137c8:	c7 04 24 34 ee 01 00 	movl   $0x1ee34,(%esp)
   137cf:	e8 92 d8 ff ff       	call   11066 <Print>
   137d4:	eb fe                	jmp    137d4 <Init_GDT+0x126>
   137d6:	66 c7 45 e2 80 00    	movw   $0x80,-0x1e(%ebp)
   137dc:	66 89 75 e4          	mov    %si,-0x1c(%ebp)
   137e0:	c1 ee 10             	shr    $0x10,%esi
   137e3:	66 89 75 e6          	mov    %si,-0x1a(%ebp)
   137e7:	8d 45 e2             	lea    -0x1e(%ebp),%eax
   137ea:	89 04 24             	mov    %eax,(%esp)
   137ed:	e8 f6 97 00 00       	call   1cfe8 <Load_GDTR>
   137f2:	83 c4 3c             	add    $0x3c,%esp
   137f5:	5b                   	pop    %ebx
   137f6:	5e                   	pop    %esi
   137f7:	5f                   	pop    %edi
   137f8:	5d                   	pop    %ebp
   137f9:	c3                   	ret    

000137fa <Init_TSS>:
   137fa:	55                   	push   %ebp
   137fb:	89 e5                	mov    %esp,%ebp
   137fd:	57                   	push   %edi
   137fe:	53                   	push   %ebx
   137ff:	83 ec 20             	sub    $0x20,%esp
   13802:	e8 b9 fb ff ff       	call   133c0 <Allocate_Segment_Descriptor>
   13807:	89 c2                	mov    %eax,%edx
   13809:	a3 84 50 02 00       	mov    %eax,0x25084
   1380e:	85 c0                	test   %eax,%eax
   13810:	75 4a                	jne    1385c <Init_TSS+0x62>
   13812:	c7 04 24 4f 00 00 00 	movl   $0x4f,(%esp)
   13819:	e8 9d d9 ff ff       	call   111bb <Set_Current_Attr>
   1381e:	a1 6c 5e 02 00       	mov    0x25e6c,%eax
   13823:	89 44 24 18          	mov    %eax,0x18(%esp)
   13827:	8b 45 04             	mov    0x4(%ebp),%eax
   1382a:	89 44 24 14          	mov    %eax,0x14(%esp)
   1382e:	c7 44 24 10 31 00 00 	movl   $0x31,0x10(%esp)
   13835:	00 
   13836:	c7 44 24 0c b8 f9 01 	movl   $0x1f9b8,0xc(%esp)
   1383d:	00 
   1383e:	c7 44 24 08 cc f9 01 	movl   $0x1f9cc,0x8(%esp)
   13845:	00 
   13846:	c7 44 24 04 db f9 01 	movl   $0x1f9db,0x4(%esp)
   1384d:	00 
   1384e:	c7 04 24 34 ee 01 00 	movl   $0x1ee34,(%esp)
   13855:	e8 0c d8 ff ff       	call   11066 <Print>
   1385a:	eb fe                	jmp    1385a <Init_TSS+0x60>
   1385c:	bb a0 50 02 00       	mov    $0x250a0,%ebx
   13861:	b9 1a 00 00 00       	mov    $0x1a,%ecx
   13866:	b8 00 00 00 00       	mov    $0x0,%eax
   1386b:	89 df                	mov    %ebx,%edi
   1386d:	f3 ab                	rep stos %eax,%es:(%edi)
   1386f:	89 5c 24 04          	mov    %ebx,0x4(%esp)
   13873:	89 14 24             	mov    %edx,(%esp)
   13876:	e8 6e 02 00 00       	call   13ae9 <Init_TSS_Descriptor>
   1387b:	a1 84 50 02 00       	mov    0x25084,%eax
   13880:	89 04 24             	mov    %eax,(%esp)
   13883:	e8 16 fe ff ff       	call   1369e <Get_Descriptor_Index>
   13888:	c1 e0 03             	shl    $0x3,%eax
   1388b:	66 a3 80 50 02 00    	mov    %ax,0x25080
   13891:	8b 15 84 50 02 00    	mov    0x25084,%edx
   13897:	0f b6 4a 05          	movzbl 0x5(%edx),%ecx
   1389b:	83 e1 f0             	and    $0xfffffff0,%ecx
   1389e:	83 c9 09             	or     $0x9,%ecx
   138a1:	88 4a 05             	mov    %cl,0x5(%edx)
   138a4:	0f 00 d8             	ltr    %ax
   138a7:	83 c4 20             	add    $0x20,%esp
   138aa:	5b                   	pop    %ebx
   138ab:	5f                   	pop    %edi
   138ac:	5d                   	pop    %ebp
   138ad:	c3                   	ret    

000138ae <Set_Kernel_Stack_Pointer>:
   138ae:	55                   	push   %ebp
   138af:	89 e5                	mov    %esp,%ebp
   138b1:	66 c7 05 a8 50 02 00 	movw   $0x10,0x250a8
   138b8:	10 00 
   138ba:	8b 45 08             	mov    0x8(%ebp),%eax
   138bd:	a3 a4 50 02 00       	mov    %eax,0x250a4
   138c2:	a1 84 50 02 00       	mov    0x25084,%eax
   138c7:	0f b6 50 05          	movzbl 0x5(%eax),%edx
   138cb:	83 e2 f0             	and    $0xfffffff0,%edx
   138ce:	83 ca 09             	or     $0x9,%edx
   138d1:	88 50 05             	mov    %dl,0x5(%eax)
   138d4:	0f b7 05 80 50 02 00 	movzwl 0x25080,%eax
   138db:	0f 00 d8             	ltr    %ax
   138de:	5d                   	pop    %ebp
   138df:	c3                   	ret    

000138e0 <Init_Null_Segment_Descriptor>:
   138e0:	55                   	push   %ebp
   138e1:	89 e5                	mov    %esp,%ebp
   138e3:	8b 45 08             	mov    0x8(%ebp),%eax
   138e6:	c7 00 00 00 00 00    	movl   $0x0,(%eax)
   138ec:	c7 40 04 00 00 00 00 	movl   $0x0,0x4(%eax)
   138f3:	5d                   	pop    %ebp
   138f4:	c3                   	ret    

000138f5 <Init_Code_Segment_Descriptor>:
   138f5:	55                   	push   %ebp
   138f6:	89 e5                	mov    %esp,%ebp
   138f8:	56                   	push   %esi
   138f9:	53                   	push   %ebx
   138fa:	83 ec 20             	sub    $0x20,%esp
   138fd:	8b 45 08             	mov    0x8(%ebp),%eax
   13900:	8b 55 0c             	mov    0xc(%ebp),%edx
   13903:	8b 5d 10             	mov    0x10(%ebp),%ebx
   13906:	83 7d 14 03          	cmpl   $0x3,0x14(%ebp)
   1390a:	76 4a                	jbe    13956 <Init_Code_Segment_Descriptor+0x61>
   1390c:	c7 04 24 4f 00 00 00 	movl   $0x4f,(%esp)
   13913:	e8 a3 d8 ff ff       	call   111bb <Set_Current_Attr>
   13918:	a1 6c 5e 02 00       	mov    0x25e6c,%eax
   1391d:	89 44 24 18          	mov    %eax,0x18(%esp)
   13921:	8b 45 04             	mov    0x4(%ebp),%eax
   13924:	89 44 24 14          	mov    %eax,0x14(%esp)
   13928:	c7 44 24 10 4a 00 00 	movl   $0x4a,0x10(%esp)
   1392f:	00 
   13930:	c7 44 24 0c e4 f9 01 	movl   $0x1f9e4,0xc(%esp)
   13937:	00 
   13938:	c7 44 24 08 0c fa 01 	movl   $0x1fa0c,0x8(%esp)
   1393f:	00 
   13940:	c7 44 24 04 6c fa 01 	movl   $0x1fa6c,0x4(%esp)
   13947:	00 
   13948:	c7 04 24 34 ee 01 00 	movl   $0x1ee34,(%esp)
   1394f:	e8 12 d7 ff ff       	call   11066 <Print>
   13954:	eb fe                	jmp    13954 <Init_Code_Segment_Descriptor+0x5f>
   13956:	85 db                	test   %ebx,%ebx
   13958:	75 4a                	jne    139a4 <Init_Code_Segment_Descriptor+0xaf>
   1395a:	c7 04 24 4f 00 00 00 	movl   $0x4f,(%esp)
   13961:	e8 55 d8 ff ff       	call   111bb <Set_Current_Attr>
   13966:	a1 6c 5e 02 00       	mov    0x25e6c,%eax
   1396b:	89 44 24 18          	mov    %eax,0x18(%esp)
   1396f:	8b 45 04             	mov    0x4(%ebp),%eax
   13972:	89 44 24 14          	mov    %eax,0x14(%esp)
   13976:	c7 44 24 10 21 00 00 	movl   $0x21,0x10(%esp)
   1397d:	00 
   1397e:	c7 44 24 0c e4 f9 01 	movl   $0x1f9e4,0xc(%esp)
   13985:	00 
   13986:	c7 44 24 08 fc f9 01 	movl   $0x1f9fc,0x8(%esp)
   1398d:	00 
   1398e:	c7 44 24 04 54 fa 01 	movl   $0x1fa54,0x4(%esp)
   13995:	00 
   13996:	c7 04 24 34 ee 01 00 	movl   $0x1ee34,(%esp)
   1399d:	e8 c4 d6 ff ff       	call   11066 <Print>
   139a2:	eb fe                	jmp    139a2 <Init_Code_Segment_Descriptor+0xad>
   139a4:	83 eb 01             	sub    $0x1,%ebx
   139a7:	66 89 18             	mov    %bx,(%eax)
   139aa:	c1 eb 10             	shr    $0x10,%ebx
   139ad:	83 e3 0f             	and    $0xf,%ebx
   139b0:	0f b6 70 06          	movzbl 0x6(%eax),%esi
   139b4:	83 e6 10             	and    $0x10,%esi
   139b7:	88 50 02             	mov    %dl,0x2(%eax)
   139ba:	0f b6 ce             	movzbl %dh,%ecx
   139bd:	88 48 03             	mov    %cl,0x3(%eax)
   139c0:	89 d1                	mov    %edx,%ecx
   139c2:	c1 e9 10             	shr    $0x10,%ecx
   139c5:	88 48 04             	mov    %cl,0x4(%eax)
   139c8:	c1 ea 18             	shr    $0x18,%edx
   139cb:	88 50 07             	mov    %dl,0x7(%eax)
   139ce:	0f b6 55 14          	movzbl 0x14(%ebp),%edx
   139d2:	83 e2 03             	and    $0x3,%edx
   139d5:	c1 e2 05             	shl    $0x5,%edx
   139d8:	83 ca 9a             	or     $0xffffff9a,%edx
   139db:	88 50 05             	mov    %dl,0x5(%eax)
   139de:	89 f2                	mov    %esi,%edx
   139e0:	09 da                	or     %ebx,%edx
   139e2:	83 ca c0             	or     $0xffffffc0,%edx
   139e5:	88 50 06             	mov    %dl,0x6(%eax)
   139e8:	83 c4 20             	add    $0x20,%esp
   139eb:	5b                   	pop    %ebx
   139ec:	5e                   	pop    %esi
   139ed:	5d                   	pop    %ebp
   139ee:	c3                   	ret    

000139ef <Init_Data_Segment_Descriptor>:
   139ef:	55                   	push   %ebp
   139f0:	89 e5                	mov    %esp,%ebp
   139f2:	56                   	push   %esi
   139f3:	53                   	push   %ebx
   139f4:	83 ec 20             	sub    $0x20,%esp
   139f7:	8b 45 08             	mov    0x8(%ebp),%eax
   139fa:	8b 55 0c             	mov    0xc(%ebp),%edx
   139fd:	8b 5d 10             	mov    0x10(%ebp),%ebx
   13a00:	83 7d 14 03          	cmpl   $0x3,0x14(%ebp)
   13a04:	76 4a                	jbe    13a50 <Init_Data_Segment_Descriptor+0x61>
   13a06:	c7 04 24 4f 00 00 00 	movl   $0x4f,(%esp)
   13a0d:	e8 a9 d7 ff ff       	call   111bb <Set_Current_Attr>
   13a12:	a1 6c 5e 02 00       	mov    0x25e6c,%eax
   13a17:	89 44 24 18          	mov    %eax,0x18(%esp)
   13a1b:	8b 45 04             	mov    0x4(%ebp),%eax
   13a1e:	89 44 24 14          	mov    %eax,0x14(%esp)
   13a22:	c7 44 24 10 5f 00 00 	movl   $0x5f,0x10(%esp)
   13a29:	00 
   13a2a:	c7 44 24 0c e4 f9 01 	movl   $0x1f9e4,0xc(%esp)
   13a31:	00 
   13a32:	c7 44 24 08 0c fa 01 	movl   $0x1fa0c,0x8(%esp)
   13a39:	00 
   13a3a:	c7 44 24 04 37 fa 01 	movl   $0x1fa37,0x4(%esp)
   13a41:	00 
   13a42:	c7 04 24 34 ee 01 00 	movl   $0x1ee34,(%esp)
   13a49:	e8 18 d6 ff ff       	call   11066 <Print>
   13a4e:	eb fe                	jmp    13a4e <Init_Data_Segment_Descriptor+0x5f>
   13a50:	85 db                	test   %ebx,%ebx
   13a52:	75 4a                	jne    13a9e <Init_Data_Segment_Descriptor+0xaf>
   13a54:	c7 04 24 4f 00 00 00 	movl   $0x4f,(%esp)
   13a5b:	e8 5b d7 ff ff       	call   111bb <Set_Current_Attr>
   13a60:	a1 6c 5e 02 00       	mov    0x25e6c,%eax
   13a65:	89 44 24 18          	mov    %eax,0x18(%esp)
   13a69:	8b 45 04             	mov    0x4(%ebp),%eax
   13a6c:	89 44 24 14          	mov    %eax,0x14(%esp)
   13a70:	c7 44 24 10 21 00 00 	movl   $0x21,0x10(%esp)
   13a77:	00 
   13a78:	c7 44 24 0c e4 f9 01 	movl   $0x1f9e4,0xc(%esp)
   13a7f:	00 
   13a80:	c7 44 24 08 fc f9 01 	movl   $0x1f9fc,0x8(%esp)
   13a87:	00 
   13a88:	c7 44 24 04 54 fa 01 	movl   $0x1fa54,0x4(%esp)
   13a8f:	00 
   13a90:	c7 04 24 34 ee 01 00 	movl   $0x1ee34,(%esp)
   13a97:	e8 ca d5 ff ff       	call   11066 <Print>
   13a9c:	eb fe                	jmp    13a9c <Init_Data_Segment_Descriptor+0xad>
   13a9e:	83 eb 01             	sub    $0x1,%ebx
   13aa1:	66 89 18             	mov    %bx,(%eax)
   13aa4:	c1 eb 10             	shr    $0x10,%ebx
   13aa7:	83 e3 0f             	and    $0xf,%ebx
   13aaa:	0f b6 70 06          	movzbl 0x6(%eax),%esi
   13aae:	83 e6 10             	and    $0x10,%esi
   13ab1:	88 50 02             	mov    %dl,0x2(%eax)
   13ab4:	0f b6 ce             	movzbl %dh,%ecx
   13ab7:	88 48 03             	mov    %cl,0x3(%eax)
   13aba:	89 d1                	mov    %edx,%ecx
   13abc:	c1 e9 10             	shr    $0x10,%ecx
   13abf:	88 48 04             	mov    %cl,0x4(%eax)
   13ac2:	c1 ea 18             	shr    $0x18,%edx
   13ac5:	88 50 07             	mov    %dl,0x7(%eax)
   13ac8:	0f b6 55 14          	movzbl 0x14(%ebp),%edx
   13acc:	83 e2 03             	and    $0x3,%edx
   13acf:	c1 e2 05             	shl    $0x5,%edx
   13ad2:	83 ca 92             	or     $0xffffff92,%edx
   13ad5:	88 50 05             	mov    %dl,0x5(%eax)
   13ad8:	89 f2                	mov    %esi,%edx
   13ada:	09 da                	or     %ebx,%edx
   13adc:	83 ca c0             	or     $0xffffffc0,%edx
   13adf:	88 50 06             	mov    %dl,0x6(%eax)
   13ae2:	83 c4 20             	add    $0x20,%esp
   13ae5:	5b                   	pop    %ebx
   13ae6:	5e                   	pop    %esi
   13ae7:	5d                   	pop    %ebp
   13ae8:	c3                   	ret    

00013ae9 <Init_TSS_Descriptor>:
   13ae9:	55                   	push   %ebp
   13aea:	89 e5                	mov    %esp,%ebp
   13aec:	8b 45 08             	mov    0x8(%ebp),%eax
   13aef:	8b 55 0c             	mov    0xc(%ebp),%edx
   13af2:	66 c7 00 68 00       	movw   $0x68,(%eax)
   13af7:	88 50 02             	mov    %dl,0x2(%eax)
   13afa:	0f b6 ce             	movzbl %dh,%ecx
   13afd:	88 48 03             	mov    %cl,0x3(%eax)
   13b00:	89 d1                	mov    %edx,%ecx
   13b02:	c1 e9 10             	shr    $0x10,%ecx
   13b05:	88 48 04             	mov    %cl,0x4(%eax)
   13b08:	c1 ea 18             	shr    $0x18,%edx
   13b0b:	88 50 07             	mov    %dl,0x7(%eax)
   13b0e:	c6 40 05 89          	movb   $0x89,0x5(%eax)
   13b12:	0f b6 50 06          	movzbl 0x6(%eax),%edx
   13b16:	83 e2 10             	and    $0x10,%edx
   13b19:	88 50 06             	mov    %dl,0x6(%eax)
   13b1c:	5d                   	pop    %ebp
   13b1d:	c3                   	ret    

00013b1e <Init_LDT_Descriptor>:
   13b1e:	55                   	push   %ebp
   13b1f:	89 e5                	mov    %esp,%ebp
   13b21:	57                   	push   %edi
   13b22:	56                   	push   %esi
   13b23:	53                   	push   %ebx
   13b24:	8b 45 08             	mov    0x8(%ebp),%eax
   13b27:	8b 55 0c             	mov    0xc(%ebp),%edx
   13b2a:	8b 5d 10             	mov    0x10(%ebp),%ebx
   13b2d:	8d 0c dd 00 00 00 00 	lea    0x0(,%ebx,8),%ecx
   13b34:	66 89 08             	mov    %cx,(%eax)
   13b37:	c1 e9 10             	shr    $0x10,%ecx
   13b3a:	89 cf                	mov    %ecx,%edi
   13b3c:	83 e7 0f             	and    $0xf,%edi
   13b3f:	0f b6 58 06          	movzbl 0x6(%eax),%ebx
   13b43:	83 e3 10             	and    $0x10,%ebx
   13b46:	88 50 02             	mov    %dl,0x2(%eax)
   13b49:	0f b6 f6             	movzbl %dh,%esi
   13b4c:	89 f1                	mov    %esi,%ecx
   13b4e:	88 48 03             	mov    %cl,0x3(%eax)
   13b51:	89 d6                	mov    %edx,%esi
   13b53:	c1 ee 10             	shr    $0x10,%esi
   13b56:	89 f1                	mov    %esi,%ecx
   13b58:	88 48 04             	mov    %cl,0x4(%eax)
   13b5b:	c1 ea 18             	shr    $0x18,%edx
   13b5e:	88 50 07             	mov    %dl,0x7(%eax)
   13b61:	c6 40 05 82          	movb   $0x82,0x5(%eax)
   13b65:	89 f9                	mov    %edi,%ecx
   13b67:	09 d9                	or     %ebx,%ecx
   13b69:	88 48 06             	mov    %cl,0x6(%eax)
   13b6c:	5b                   	pop    %ebx
   13b6d:	5e                   	pop    %esi
   13b6e:	5f                   	pop    %edi
   13b6f:	5d                   	pop    %ebp
   13b70:	c3                   	ret    

00013b71 <bget>:
   13b71:	55                   	push   %ebp
   13b72:	89 e5                	mov    %esp,%ebp
   13b74:	57                   	push   %edi
   13b75:	56                   	push   %esi
   13b76:	53                   	push   %ebx
   13b77:	83 ec 2c             	sub    $0x2c,%esp
   13b7a:	8b 45 08             	mov    0x8(%ebp),%eax
   13b7d:	85 c0                	test   %eax,%eax
   13b7f:	7f 4a                	jg     13bcb <bget+0x5a>
   13b81:	c7 04 24 4f 00 00 00 	movl   $0x4f,(%esp)
   13b88:	e8 2e d6 ff ff       	call   111bb <Set_Current_Attr>
   13b8d:	a1 6c 5e 02 00       	mov    0x25e6c,%eax
   13b92:	89 44 24 18          	mov    %eax,0x18(%esp)
   13b96:	8b 45 04             	mov    0x4(%ebp),%eax
   13b99:	89 44 24 14          	mov    %eax,0x14(%esp)
   13b9d:	c7 44 24 10 4d 02 00 	movl   $0x24d,0x10(%esp)
   13ba4:	00 
   13ba5:	c7 44 24 0c 89 fa 01 	movl   $0x1fa89,0xc(%esp)
   13bac:	00 
   13bad:	c7 44 24 08 89 fb 01 	movl   $0x1fb89,0x8(%esp)
   13bb4:	00 
   13bb5:	c7 44 24 04 4b fd 01 	movl   $0x1fd4b,0x4(%esp)
   13bbc:	00 
   13bbd:	c7 04 24 34 ee 01 00 	movl   $0x1ee34,(%esp)
   13bc4:	e8 9d d4 ff ff       	call   11066 <Print>
   13bc9:	eb fe                	jmp    13bc9 <bget+0x58>
   13bcb:	83 f8 07             	cmp    $0x7,%eax
   13bce:	ba 08 00 00 00       	mov    $0x8,%edx
   13bd3:	0f 46 c2             	cmovbe %edx,%eax
   13bd6:	83 c0 03             	add    $0x3,%eax
   13bd9:	83 e0 fc             	and    $0xfffffffc,%eax
   13bdc:	89 c6                	mov    %eax,%esi
   13bde:	83 c6 08             	add    $0x8,%esi
   13be1:	89 f3                	mov    %esi,%ebx
   13be3:	8b 15 18 40 02 00    	mov    0x24018,%edx
   13be9:	81 fa 10 40 02 00    	cmp    $0x24010,%edx
   13bef:	0f 84 e6 01 00 00    	je     13ddb <bget+0x26a>
   13bf5:	b8 10 40 02 00       	mov    $0x24010,%eax
   13bfa:	8b 4a 04             	mov    0x4(%edx),%ecx
   13bfd:	39 cb                	cmp    %ecx,%ebx
   13bff:	7f 11                	jg     13c12 <bget+0xa1>
   13c01:	3d 10 40 02 00       	cmp    $0x24010,%eax
   13c06:	74 08                	je     13c10 <bget+0x9f>
   13c08:	3b 48 04             	cmp    0x4(%eax),%ecx
   13c0b:	0f 4c c2             	cmovl  %edx,%eax
   13c0e:	eb 02                	jmp    13c12 <bget+0xa1>
   13c10:	89 d0                	mov    %edx,%eax
   13c12:	8b 52 08             	mov    0x8(%edx),%edx
   13c15:	81 fa 10 40 02 00    	cmp    $0x24010,%edx
   13c1b:	75 dd                	jne    13bfa <bget+0x89>
   13c1d:	3d 10 40 02 00       	cmp    $0x24010,%eax
   13c22:	0f 84 ba 01 00 00    	je     13de2 <bget+0x271>
   13c28:	8b 50 04             	mov    0x4(%eax),%edx
   13c2b:	39 d6                	cmp    %edx,%esi
   13c2d:	0f 8f 93 01 00 00    	jg     13dc6 <bget+0x255>
   13c33:	eb 0b                	jmp    13c40 <bget+0xcf>
   13c35:	8b 50 04             	mov    0x4(%eax),%edx
   13c38:	39 d3                	cmp    %edx,%ebx
   13c3a:	0f 8f 86 01 00 00    	jg     13dc6 <bget+0x255>
   13c40:	89 d3                	mov    %edx,%ebx
   13c42:	29 f3                	sub    %esi,%ebx
   13c44:	83 fb 10             	cmp    $0x10,%ebx
   13c47:	76 6c                	jbe    13cb5 <bget+0x144>
   13c49:	8d 0c 18             	lea    (%eax,%ebx,1),%ecx
   13c4c:	8d 3c 31             	lea    (%ecx,%esi,1),%edi
   13c4f:	3b 17                	cmp    (%edi),%edx
   13c51:	74 4a                	je     13c9d <bget+0x12c>
   13c53:	c7 04 24 4f 00 00 00 	movl   $0x4f,(%esp)
   13c5a:	e8 5c d5 ff ff       	call   111bb <Set_Current_Attr>
   13c5f:	a1 6c 5e 02 00       	mov    0x25e6c,%eax
   13c64:	89 44 24 18          	mov    %eax,0x18(%esp)
   13c68:	8b 45 04             	mov    0x4(%ebp),%eax
   13c6b:	89 44 24 14          	mov    %eax,0x14(%esp)
   13c6f:	c7 44 24 10 88 02 00 	movl   $0x288,0x10(%esp)
   13c76:	00 
   13c77:	c7 44 24 0c 89 fa 01 	movl   $0x1fa89,0xc(%esp)
   13c7e:	00 
   13c7f:	c7 44 24 08 9e fa 01 	movl   $0x1fa9e,0x8(%esp)
   13c86:	00 
   13c87:	c7 44 24 04 4b fd 01 	movl   $0x1fd4b,0x4(%esp)
   13c8e:	00 
   13c8f:	c7 04 24 34 ee 01 00 	movl   $0x1ee34,(%esp)
   13c96:	e8 cb d3 ff ff       	call   11066 <Print>
   13c9b:	eb fe                	jmp    13c9b <bget+0x12a>
   13c9d:	89 58 04             	mov    %ebx,0x4(%eax)
   13ca0:	89 19                	mov    %ebx,(%ecx)
   13ca2:	f7 de                	neg    %esi
   13ca4:	89 71 04             	mov    %esi,0x4(%ecx)
   13ca7:	c7 07 00 00 00 00    	movl   $0x0,(%edi)
   13cad:	8d 41 08             	lea    0x8(%ecx),%eax
   13cb0:	e9 32 01 00 00       	jmp    13de7 <bget+0x276>
   13cb5:	8d 0c 10             	lea    (%eax,%edx,1),%ecx
   13cb8:	3b 11                	cmp    (%ecx),%edx
   13cba:	74 4a                	je     13d06 <bget+0x195>
   13cbc:	c7 04 24 4f 00 00 00 	movl   $0x4f,(%esp)
   13cc3:	e8 f3 d4 ff ff       	call   111bb <Set_Current_Attr>
   13cc8:	a1 6c 5e 02 00       	mov    0x25e6c,%eax
   13ccd:	89 44 24 18          	mov    %eax,0x18(%esp)
   13cd1:	8b 45 04             	mov    0x4(%ebp),%eax
   13cd4:	89 44 24 14          	mov    %eax,0x14(%esp)
   13cd8:	c7 44 24 10 9c 02 00 	movl   $0x29c,0x10(%esp)
   13cdf:	00 
   13ce0:	c7 44 24 0c 89 fa 01 	movl   $0x1fa89,0xc(%esp)
   13ce7:	00 
   13ce8:	c7 44 24 08 ba fa 01 	movl   $0x1faba,0x8(%esp)
   13cef:	00 
   13cf0:	c7 44 24 04 4b fd 01 	movl   $0x1fd4b,0x4(%esp)
   13cf7:	00 
   13cf8:	c7 04 24 34 ee 01 00 	movl   $0x1ee34,(%esp)
   13cff:	e8 62 d3 ff ff       	call   11066 <Print>
   13d04:	eb fe                	jmp    13d04 <bget+0x193>
   13d06:	8b 58 0c             	mov    0xc(%eax),%ebx
   13d09:	8b 53 08             	mov    0x8(%ebx),%edx
   13d0c:	39 c2                	cmp    %eax,%edx
   13d0e:	74 4a                	je     13d5a <bget+0x1e9>
   13d10:	c7 04 24 4f 00 00 00 	movl   $0x4f,(%esp)
   13d17:	e8 9f d4 ff ff       	call   111bb <Set_Current_Attr>
   13d1c:	a1 6c 5e 02 00       	mov    0x25e6c,%eax
   13d21:	89 44 24 18          	mov    %eax,0x18(%esp)
   13d25:	8b 45 04             	mov    0x4(%ebp),%eax
   13d28:	89 44 24 14          	mov    %eax,0x14(%esp)
   13d2c:	c7 44 24 10 a1 02 00 	movl   $0x2a1,0x10(%esp)
   13d33:	00 
   13d34:	c7 44 24 0c 89 fa 01 	movl   $0x1fa89,0xc(%esp)
   13d3b:	00 
   13d3c:	c7 44 24 08 d6 fa 01 	movl   $0x1fad6,0x8(%esp)
   13d43:	00 
   13d44:	c7 44 24 04 4b fd 01 	movl   $0x1fd4b,0x4(%esp)
   13d4b:	00 
   13d4c:	c7 04 24 34 ee 01 00 	movl   $0x1ee34,(%esp)
   13d53:	e8 0e d3 ff ff       	call   11066 <Print>
   13d58:	eb fe                	jmp    13d58 <bget+0x1e7>
   13d5a:	8b 42 08             	mov    0x8(%edx),%eax
   13d5d:	3b 50 0c             	cmp    0xc(%eax),%edx
   13d60:	74 4a                	je     13dac <bget+0x23b>
   13d62:	c7 04 24 4f 00 00 00 	movl   $0x4f,(%esp)
   13d69:	e8 4d d4 ff ff       	call   111bb <Set_Current_Attr>
   13d6e:	a1 6c 5e 02 00       	mov    0x25e6c,%eax
   13d73:	89 44 24 18          	mov    %eax,0x18(%esp)
   13d77:	8b 45 04             	mov    0x4(%ebp),%eax
   13d7a:	89 44 24 14          	mov    %eax,0x14(%esp)
   13d7e:	c7 44 24 10 a2 02 00 	movl   $0x2a2,0x10(%esp)
   13d85:	00 
   13d86:	c7 44 24 0c 89 fa 01 	movl   $0x1fa89,0xc(%esp)
   13d8d:	00 
   13d8e:	c7 44 24 08 f1 fa 01 	movl   $0x1faf1,0x8(%esp)
   13d95:	00 
   13d96:	c7 44 24 04 4b fd 01 	movl   $0x1fd4b,0x4(%esp)
   13d9d:	00 
   13d9e:	c7 04 24 34 ee 01 00 	movl   $0x1ee34,(%esp)
   13da5:	e8 bc d2 ff ff       	call   11066 <Print>
   13daa:	eb fe                	jmp    13daa <bget+0x239>
   13dac:	89 43 08             	mov    %eax,0x8(%ebx)
   13daf:	8b 42 08             	mov    0x8(%edx),%eax
   13db2:	8b 5a 0c             	mov    0xc(%edx),%ebx
   13db5:	89 58 0c             	mov    %ebx,0xc(%eax)
   13db8:	f7 5a 04             	negl   0x4(%edx)
   13dbb:	c7 01 00 00 00 00    	movl   $0x0,(%ecx)
   13dc1:	8d 42 08             	lea    0x8(%edx),%eax
   13dc4:	eb 21                	jmp    13de7 <bget+0x276>
   13dc6:	8b 40 08             	mov    0x8(%eax),%eax
   13dc9:	3d 10 40 02 00       	cmp    $0x24010,%eax
   13dce:	0f 85 61 fe ff ff    	jne    13c35 <bget+0xc4>
   13dd4:	b8 00 00 00 00       	mov    $0x0,%eax
   13dd9:	eb 0c                	jmp    13de7 <bget+0x276>
   13ddb:	b8 00 00 00 00       	mov    $0x0,%eax
   13de0:	eb 05                	jmp    13de7 <bget+0x276>
   13de2:	b8 00 00 00 00       	mov    $0x0,%eax
   13de7:	83 c4 2c             	add    $0x2c,%esp
   13dea:	5b                   	pop    %ebx
   13deb:	5e                   	pop    %esi
   13dec:	5f                   	pop    %edi
   13ded:	5d                   	pop    %ebp
   13dee:	c3                   	ret    

00013def <bgetz>:
   13def:	55                   	push   %ebp
   13df0:	89 e5                	mov    %esp,%ebp
   13df2:	56                   	push   %esi
   13df3:	53                   	push   %ebx
   13df4:	83 ec 20             	sub    $0x20,%esp
   13df7:	8b 75 08             	mov    0x8(%ebp),%esi
   13dfa:	89 34 24             	mov    %esi,(%esp)
   13dfd:	e8 6f fd ff ff       	call   13b71 <bget>
   13e02:	89 c3                	mov    %eax,%ebx
   13e04:	85 c0                	test   %eax,%eax
   13e06:	74 74                	je     13e7c <bgetz+0x8d>
   13e08:	8b 40 fc             	mov    -0x4(%eax),%eax
   13e0b:	f7 d8                	neg    %eax
   13e0d:	75 08                	jne    13e17 <bgetz+0x28>
   13e0f:	8b 43 f4             	mov    -0xc(%ebx),%eax
   13e12:	83 e8 0c             	sub    $0xc,%eax
   13e15:	eb 03                	jmp    13e1a <bgetz+0x2b>
   13e17:	83 e8 08             	sub    $0x8,%eax
   13e1a:	39 f0                	cmp    %esi,%eax
   13e1c:	7d 4a                	jge    13e68 <bgetz+0x79>
   13e1e:	c7 04 24 4f 00 00 00 	movl   $0x4f,(%esp)
   13e25:	e8 91 d3 ff ff       	call   111bb <Set_Current_Attr>
   13e2a:	a1 6c 5e 02 00       	mov    0x25e6c,%eax
   13e2f:	89 44 24 18          	mov    %eax,0x18(%esp)
   13e33:	8b 45 04             	mov    0x4(%ebp),%eax
   13e36:	89 44 24 14          	mov    %eax,0x14(%esp)
   13e3a:	c7 44 24 10 0d 03 00 	movl   $0x30d,0x10(%esp)
   13e41:	00 
   13e42:	c7 44 24 0c 89 fa 01 	movl   $0x1fa89,0xc(%esp)
   13e49:	00 
   13e4a:	c7 44 24 08 0c fb 01 	movl   $0x1fb0c,0x8(%esp)
   13e51:	00 
   13e52:	c7 44 24 04 45 fd 01 	movl   $0x1fd45,0x4(%esp)
   13e59:	00 
   13e5a:	c7 04 24 34 ee 01 00 	movl   $0x1ee34,(%esp)
   13e61:	e8 00 d2 ff ff       	call   11066 <Print>
   13e66:	eb fe                	jmp    13e66 <bgetz+0x77>
   13e68:	89 44 24 08          	mov    %eax,0x8(%esp)
   13e6c:	c7 44 24 04 00 00 00 	movl   $0x0,0x4(%esp)
   13e73:	00 
   13e74:	89 1c 24             	mov    %ebx,(%esp)
   13e77:	e8 d5 aa 00 00       	call   1e951 <memset>
   13e7c:	89 d8                	mov    %ebx,%eax
   13e7e:	83 c4 20             	add    $0x20,%esp
   13e81:	5b                   	pop    %ebx
   13e82:	5e                   	pop    %esi
   13e83:	5d                   	pop    %ebp
   13e84:	c3                   	ret    

00013e85 <brel>:
   13e85:	55                   	push   %ebp
   13e86:	89 e5                	mov    %esp,%ebp
   13e88:	53                   	push   %ebx
   13e89:	83 ec 24             	sub    $0x24,%esp
   13e8c:	8b 55 08             	mov    0x8(%ebp),%edx
   13e8f:	85 d2                	test   %edx,%edx
   13e91:	75 4a                	jne    13edd <brel+0x58>
   13e93:	c7 04 24 4f 00 00 00 	movl   $0x4f,(%esp)
   13e9a:	e8 1c d3 ff ff       	call   111bb <Set_Current_Attr>
   13e9f:	a1 6c 5e 02 00       	mov    0x25e6c,%eax
   13ea4:	89 44 24 18          	mov    %eax,0x18(%esp)
   13ea8:	8b 45 04             	mov    0x4(%ebp),%eax
   13eab:	89 44 24 14          	mov    %eax,0x14(%esp)
   13eaf:	c7 44 24 10 44 03 00 	movl   $0x344,0x10(%esp)
   13eb6:	00 
   13eb7:	c7 44 24 0c 89 fa 01 	movl   $0x1fa89,0xc(%esp)
   13ebe:	00 
   13ebf:	c7 44 24 08 1a fb 01 	movl   $0x1fb1a,0x8(%esp)
   13ec6:	00 
   13ec7:	c7 44 24 04 3a fd 01 	movl   $0x1fd3a,0x4(%esp)
   13ece:	00 
   13ecf:	c7 04 24 34 ee 01 00 	movl   $0x1ee34,(%esp)
   13ed6:	e8 8b d1 ff ff       	call   11066 <Print>
   13edb:	eb fe                	jmp    13edb <brel+0x56>
   13edd:	8b 5a fc             	mov    -0x4(%edx),%ebx
   13ee0:	85 db                	test   %ebx,%ebx
   13ee2:	78 4a                	js     13f2e <brel+0xa9>
   13ee4:	c7 04 24 4f 00 00 00 	movl   $0x4f,(%esp)
   13eeb:	e8 cb d2 ff ff       	call   111bb <Set_Current_Attr>
   13ef0:	a1 6c 5e 02 00       	mov    0x25e6c,%eax
   13ef5:	89 44 24 18          	mov    %eax,0x18(%esp)
   13ef9:	8b 45 04             	mov    0x4(%ebp),%eax
   13efc:	89 44 24 14          	mov    %eax,0x14(%esp)
   13f00:	c7 44 24 10 61 03 00 	movl   $0x361,0x10(%esp)
   13f07:	00 
   13f08:	c7 44 24 0c 89 fa 01 	movl   $0x1fa89,0xc(%esp)
   13f0f:	00 
   13f10:	c7 44 24 08 2d fb 01 	movl   $0x1fb2d,0x8(%esp)
   13f17:	00 
   13f18:	c7 44 24 04 3a fd 01 	movl   $0x1fd3a,0x4(%esp)
   13f1f:	00 
   13f20:	c7 04 24 34 ee 01 00 	movl   $0x1ee34,(%esp)
   13f27:	e8 3a d1 ff ff       	call   11066 <Print>
   13f2c:	eb fe                	jmp    13f2c <brel+0xa7>
   13f2e:	8d 42 f8             	lea    -0x8(%edx),%eax
   13f31:	89 c1                	mov    %eax,%ecx
   13f33:	29 d9                	sub    %ebx,%ecx
   13f35:	83 39 00             	cmpl   $0x0,(%ecx)
   13f38:	74 4a                	je     13f84 <brel+0xff>
   13f3a:	c7 04 24 4f 00 00 00 	movl   $0x4f,(%esp)
   13f41:	e8 75 d2 ff ff       	call   111bb <Set_Current_Attr>
   13f46:	a1 6c 5e 02 00       	mov    0x25e6c,%eax
   13f4b:	89 44 24 18          	mov    %eax,0x18(%esp)
   13f4f:	8b 45 04             	mov    0x4(%ebp),%eax
   13f52:	89 44 24 14          	mov    %eax,0x14(%esp)
   13f56:	c7 44 24 10 66 03 00 	movl   $0x366,0x10(%esp)
   13f5d:	00 
   13f5e:	c7 44 24 0c 89 fa 01 	movl   $0x1fa89,0xc(%esp)
   13f65:	00 
   13f66:	c7 44 24 08 94 fb 01 	movl   $0x1fb94,0x8(%esp)
   13f6d:	00 
   13f6e:	c7 44 24 04 3a fd 01 	movl   $0x1fd3a,0x4(%esp)
   13f75:	00 
   13f76:	c7 04 24 34 ee 01 00 	movl   $0x1ee34,(%esp)
   13f7d:	e8 e4 d0 ff ff       	call   11066 <Print>
   13f82:	eb fe                	jmp    13f82 <brel+0xfd>
   13f84:	8b 4a f8             	mov    -0x8(%edx),%ecx
   13f87:	85 c9                	test   %ecx,%ecx
   13f89:	74 5b                	je     13fe6 <brel+0x161>
   13f8b:	29 c8                	sub    %ecx,%eax
   13f8d:	3b 48 04             	cmp    0x4(%eax),%ecx
   13f90:	74 4a                	je     13fdc <brel+0x157>
   13f92:	c7 04 24 4f 00 00 00 	movl   $0x4f,(%esp)
   13f99:	e8 1d d2 ff ff       	call   111bb <Set_Current_Attr>
   13f9e:	a1 6c 5e 02 00       	mov    0x25e6c,%eax
   13fa3:	89 44 24 18          	mov    %eax,0x18(%esp)
   13fa7:	8b 45 04             	mov    0x4(%ebp),%eax
   13faa:	89 44 24 14          	mov    %eax,0x14(%esp)
   13fae:	c7 44 24 10 7a 03 00 	movl   $0x37a,0x10(%esp)
   13fb5:	00 
   13fb6:	c7 44 24 0c 89 fa 01 	movl   $0x1fa89,0xc(%esp)
   13fbd:	00 
   13fbe:	c7 44 24 08 d4 fb 01 	movl   $0x1fbd4,0x8(%esp)
   13fc5:	00 
   13fc6:	c7 44 24 04 3a fd 01 	movl   $0x1fd3a,0x4(%esp)
   13fcd:	00 
   13fce:	c7 04 24 34 ee 01 00 	movl   $0x1ee34,(%esp)
   13fd5:	e8 8c d0 ff ff       	call   11066 <Print>
   13fda:	eb fe                	jmp    13fda <brel+0x155>
   13fdc:	29 d9                	sub    %ebx,%ecx
   13fde:	89 48 04             	mov    %ecx,0x4(%eax)
   13fe1:	e9 cf 00 00 00       	jmp    140b5 <brel+0x230>
   13fe6:	8b 0d 1c 40 02 00    	mov    0x2401c,%ecx
   13fec:	81 79 08 10 40 02 00 	cmpl   $0x24010,0x8(%ecx)
   13ff3:	74 4a                	je     1403f <brel+0x1ba>
   13ff5:	c7 04 24 4f 00 00 00 	movl   $0x4f,(%esp)
   13ffc:	e8 ba d1 ff ff       	call   111bb <Set_Current_Attr>
   14001:	a1 6c 5e 02 00       	mov    0x25e6c,%eax
   14006:	89 44 24 18          	mov    %eax,0x18(%esp)
   1400a:	8b 45 04             	mov    0x4(%ebp),%eax
   1400d:	89 44 24 14          	mov    %eax,0x14(%esp)
   14011:	c7 44 24 10 82 03 00 	movl   $0x382,0x10(%esp)
   14018:	00 
   14019:	c7 44 24 0c 89 fa 01 	movl   $0x1fa89,0xc(%esp)
   14020:	00 
   14021:	c7 44 24 08 20 fc 01 	movl   $0x1fc20,0x8(%esp)
   14028:	00 
   14029:	c7 44 24 04 3a fd 01 	movl   $0x1fd3a,0x4(%esp)
   14030:	00 
   14031:	c7 04 24 34 ee 01 00 	movl   $0x1ee34,(%esp)
   14038:	e8 29 d0 ff ff       	call   11066 <Print>
   1403d:	eb fe                	jmp    1403d <brel+0x1b8>
   1403f:	8b 0d 18 40 02 00    	mov    0x24018,%ecx
   14045:	81 79 0c 10 40 02 00 	cmpl   $0x24010,0xc(%ecx)
   1404c:	74 4a                	je     14098 <brel+0x213>
   1404e:	c7 04 24 4f 00 00 00 	movl   $0x4f,(%esp)
   14055:	e8 61 d1 ff ff       	call   111bb <Set_Current_Attr>
   1405a:	a1 6c 5e 02 00       	mov    0x25e6c,%eax
   1405f:	89 44 24 18          	mov    %eax,0x18(%esp)
   14063:	8b 45 04             	mov    0x4(%ebp),%eax
   14066:	89 44 24 14          	mov    %eax,0x14(%esp)
   1406a:	c7 44 24 10 83 03 00 	movl   $0x383,0x10(%esp)
   14071:	00 
   14072:	c7 44 24 0c 89 fa 01 	movl   $0x1fa89,0xc(%esp)
   14079:	00 
   1407a:	c7 44 24 08 4c fc 01 	movl   $0x1fc4c,0x8(%esp)
   14081:	00 
   14082:	c7 44 24 04 3a fd 01 	movl   $0x1fd3a,0x4(%esp)
   14089:	00 
   1408a:	c7 04 24 34 ee 01 00 	movl   $0x1ee34,(%esp)
   14091:	e8 d0 cf ff ff       	call   11066 <Print>
   14096:	eb fe                	jmp    14096 <brel+0x211>
   14098:	c7 02 10 40 02 00    	movl   $0x24010,(%edx)
   1409e:	8b 0d 1c 40 02 00    	mov    0x2401c,%ecx
   140a4:	89 4a 04             	mov    %ecx,0x4(%edx)
   140a7:	a3 1c 40 02 00       	mov    %eax,0x2401c
   140ac:	8b 4a 04             	mov    0x4(%edx),%ecx
   140af:	89 41 08             	mov    %eax,0x8(%ecx)
   140b2:	f7 5a fc             	negl   -0x4(%edx)
   140b5:	89 c2                	mov    %eax,%edx
   140b7:	03 50 04             	add    0x4(%eax),%edx
   140ba:	8b 4a 04             	mov    0x4(%edx),%ecx
   140bd:	85 c9                	test   %ecx,%ecx
   140bf:	0f 8e 0c 01 00 00    	jle    141d1 <brel+0x34c>
   140c5:	3b 0c 0a             	cmp    (%edx,%ecx,1),%ecx
   140c8:	74 4a                	je     14114 <brel+0x28f>
   140ca:	c7 04 24 4f 00 00 00 	movl   $0x4f,(%esp)
   140d1:	e8 e5 d0 ff ff       	call   111bb <Set_Current_Attr>
   140d6:	a1 6c 5e 02 00       	mov    0x25e6c,%eax
   140db:	89 44 24 18          	mov    %eax,0x18(%esp)
   140df:	8b 45 04             	mov    0x4(%ebp),%eax
   140e2:	89 44 24 14          	mov    %eax,0x14(%esp)
   140e6:	c7 44 24 10 96 03 00 	movl   $0x396,0x10(%esp)
   140ed:	00 
   140ee:	c7 44 24 0c 89 fa 01 	movl   $0x1fa89,0xc(%esp)
   140f5:	00 
   140f6:	c7 44 24 08 78 fc 01 	movl   $0x1fc78,0x8(%esp)
   140fd:	00 
   140fe:	c7 44 24 04 3a fd 01 	movl   $0x1fd3a,0x4(%esp)
   14105:	00 
   14106:	c7 04 24 34 ee 01 00 	movl   $0x1ee34,(%esp)
   1410d:	e8 54 cf ff ff       	call   11066 <Print>
   14112:	eb fe                	jmp    14112 <brel+0x28d>
   14114:	8b 5a 0c             	mov    0xc(%edx),%ebx
   14117:	8b 4b 08             	mov    0x8(%ebx),%ecx
   1411a:	39 d1                	cmp    %edx,%ecx
   1411c:	74 4a                	je     14168 <brel+0x2e3>
   1411e:	c7 04 24 4f 00 00 00 	movl   $0x4f,(%esp)
   14125:	e8 91 d0 ff ff       	call   111bb <Set_Current_Attr>
   1412a:	a1 6c 5e 02 00       	mov    0x25e6c,%eax
   1412f:	89 44 24 18          	mov    %eax,0x18(%esp)
   14133:	8b 45 04             	mov    0x4(%ebp),%eax
   14136:	89 44 24 14          	mov    %eax,0x14(%esp)
   1413a:	c7 44 24 10 97 03 00 	movl   $0x397,0x10(%esp)
   14141:	00 
   14142:	c7 44 24 0c 89 fa 01 	movl   $0x1fa89,0xc(%esp)
   14149:	00 
   1414a:	c7 44 24 08 3d fb 01 	movl   $0x1fb3d,0x8(%esp)
   14151:	00 
   14152:	c7 44 24 04 3a fd 01 	movl   $0x1fd3a,0x4(%esp)
   14159:	00 
   1415a:	c7 04 24 34 ee 01 00 	movl   $0x1ee34,(%esp)
   14161:	e8 00 cf ff ff       	call   11066 <Print>
   14166:	eb fe                	jmp    14166 <brel+0x2e1>
   14168:	8b 51 08             	mov    0x8(%ecx),%edx
   1416b:	3b 4a 0c             	cmp    0xc(%edx),%ecx
   1416e:	74 4a                	je     141ba <brel+0x335>
   14170:	c7 04 24 4f 00 00 00 	movl   $0x4f,(%esp)
   14177:	e8 3f d0 ff ff       	call   111bb <Set_Current_Attr>
   1417c:	a1 6c 5e 02 00       	mov    0x25e6c,%eax
   14181:	89 44 24 18          	mov    %eax,0x18(%esp)
   14185:	8b 45 04             	mov    0x4(%ebp),%eax
   14188:	89 44 24 14          	mov    %eax,0x14(%esp)
   1418c:	c7 44 24 10 98 03 00 	movl   $0x398,0x10(%esp)
   14193:	00 
   14194:	c7 44 24 0c 89 fa 01 	movl   $0x1fa89,0xc(%esp)
   1419b:	00 
   1419c:	c7 44 24 08 5a fb 01 	movl   $0x1fb5a,0x8(%esp)
   141a3:	00 
   141a4:	c7 44 24 04 3a fd 01 	movl   $0x1fd3a,0x4(%esp)
   141ab:	00 
   141ac:	c7 04 24 34 ee 01 00 	movl   $0x1ee34,(%esp)
   141b3:	e8 ae ce ff ff       	call   11066 <Print>
   141b8:	eb fe                	jmp    141b8 <brel+0x333>
   141ba:	89 53 08             	mov    %edx,0x8(%ebx)
   141bd:	8b 51 08             	mov    0x8(%ecx),%edx
   141c0:	8b 59 0c             	mov    0xc(%ecx),%ebx
   141c3:	89 5a 0c             	mov    %ebx,0xc(%edx)
   141c6:	8b 50 04             	mov    0x4(%eax),%edx
   141c9:	03 51 04             	add    0x4(%ecx),%edx
   141cc:	89 50 04             	mov    %edx,0x4(%eax)
   141cf:	01 c2                	add    %eax,%edx
   141d1:	83 7a 04 00          	cmpl   $0x0,0x4(%edx)
   141d5:	78 4a                	js     14221 <brel+0x39c>
   141d7:	c7 04 24 4f 00 00 00 	movl   $0x4f,(%esp)
   141de:	e8 d8 cf ff ff       	call   111bb <Set_Current_Attr>
   141e3:	a1 6c 5e 02 00       	mov    0x25e6c,%eax
   141e8:	89 44 24 18          	mov    %eax,0x18(%esp)
   141ec:	8b 45 04             	mov    0x4(%ebp),%eax
   141ef:	89 44 24 14          	mov    %eax,0x14(%esp)
   141f3:	c7 44 24 10 aa 03 00 	movl   $0x3aa,0x10(%esp)
   141fa:	00 
   141fb:	c7 44 24 0c 89 fa 01 	movl   $0x1fa89,0xc(%esp)
   14202:	00 
   14203:	c7 44 24 08 77 fb 01 	movl   $0x1fb77,0x8(%esp)
   1420a:	00 
   1420b:	c7 44 24 04 3a fd 01 	movl   $0x1fd3a,0x4(%esp)
   14212:	00 
   14213:	c7 04 24 34 ee 01 00 	movl   $0x1ee34,(%esp)
   1421a:	e8 47 ce ff ff       	call   11066 <Print>
   1421f:	eb fe                	jmp    1421f <brel+0x39a>
   14221:	8b 40 04             	mov    0x4(%eax),%eax
   14224:	89 02                	mov    %eax,(%edx)
   14226:	83 c4 24             	add    $0x24,%esp
   14229:	5b                   	pop    %ebx
   1422a:	5d                   	pop    %ebp
   1422b:	c3                   	ret    

0001422c <bgetr>:
   1422c:	55                   	push   %ebp
   1422d:	89 e5                	mov    %esp,%ebp
   1422f:	57                   	push   %edi
   14230:	56                   	push   %esi
   14231:	53                   	push   %ebx
   14232:	83 ec 2c             	sub    $0x2c,%esp
   14235:	8b 75 08             	mov    0x8(%ebp),%esi
   14238:	8b 7d 0c             	mov    0xc(%ebp),%edi
   1423b:	89 3c 24             	mov    %edi,(%esp)
   1423e:	e8 2e f9 ff ff       	call   13b71 <bget>
   14243:	89 c3                	mov    %eax,%ebx
   14245:	85 c0                	test   %eax,%eax
   14247:	74 7b                	je     142c4 <bgetr+0x98>
   14249:	85 f6                	test   %esi,%esi
   1424b:	74 7e                	je     142cb <bgetr+0x9f>
   1424d:	b8 f8 ff ff ff       	mov    $0xfffffff8,%eax
   14252:	2b 46 fc             	sub    -0x4(%esi),%eax
   14255:	85 c0                	test   %eax,%eax
   14257:	7f 4a                	jg     142a3 <bgetr+0x77>
   14259:	c7 04 24 4f 00 00 00 	movl   $0x4f,(%esp)
   14260:	e8 56 cf ff ff       	call   111bb <Set_Current_Attr>
   14265:	a1 6c 5e 02 00       	mov    0x25e6c,%eax
   1426a:	89 44 24 18          	mov    %eax,0x18(%esp)
   1426e:	8b 45 04             	mov    0x4(%ebp),%eax
   14271:	89 44 24 14          	mov    %eax,0x14(%esp)
   14275:	c7 44 24 10 32 03 00 	movl   $0x332,0x10(%esp)
   1427c:	00 
   1427d:	c7 44 24 0c 89 fa 01 	movl   $0x1fa89,0xc(%esp)
   14284:	00 
   14285:	c7 44 24 08 88 fb 01 	movl   $0x1fb88,0x8(%esp)
   1428c:	00 
   1428d:	c7 44 24 04 3f fd 01 	movl   $0x1fd3f,0x4(%esp)
   14294:	00 
   14295:	c7 04 24 34 ee 01 00 	movl   $0x1ee34,(%esp)
   1429c:	e8 c5 cd ff ff       	call   11066 <Print>
   142a1:	eb fe                	jmp    142a1 <bgetr+0x75>
   142a3:	39 f8                	cmp    %edi,%eax
   142a5:	0f 4f c7             	cmovg  %edi,%eax
   142a8:	89 44 24 08          	mov    %eax,0x8(%esp)
   142ac:	89 74 24 04          	mov    %esi,0x4(%esp)
   142b0:	89 1c 24             	mov    %ebx,(%esp)
   142b3:	e8 bb a6 00 00       	call   1e973 <memcpy>
   142b8:	89 34 24             	mov    %esi,(%esp)
   142bb:	e8 c5 fb ff ff       	call   13e85 <brel>
   142c0:	89 d8                	mov    %ebx,%eax
   142c2:	eb 07                	jmp    142cb <bgetr+0x9f>
   142c4:	b8 00 00 00 00       	mov    $0x0,%eax
   142c9:	eb 00                	jmp    142cb <bgetr+0x9f>
   142cb:	83 c4 2c             	add    $0x2c,%esp
   142ce:	5b                   	pop    %ebx
   142cf:	5e                   	pop    %esi
   142d0:	5f                   	pop    %edi
   142d1:	5d                   	pop    %ebp
   142d2:	c3                   	ret    

000142d3 <bpool>:
   142d3:	55                   	push   %ebp
   142d4:	89 e5                	mov    %esp,%ebp
   142d6:	83 ec 28             	sub    $0x28,%esp
   142d9:	8b 45 08             	mov    0x8(%ebp),%eax
   142dc:	8b 55 0c             	mov    0xc(%ebp),%edx
   142df:	83 e2 fc             	and    $0xfffffffc,%edx
   142e2:	83 ea 08             	sub    $0x8,%edx
   142e5:	79 4a                	jns    14331 <bpool+0x5e>
   142e7:	c7 04 24 4f 00 00 00 	movl   $0x4f,(%esp)
   142ee:	e8 c8 ce ff ff       	call   111bb <Set_Current_Attr>
   142f3:	a1 6c 5e 02 00       	mov    0x25e6c,%eax
   142f8:	89 44 24 18          	mov    %eax,0x18(%esp)
   142fc:	8b 45 04             	mov    0x4(%ebp),%eax
   142ff:	89 44 24 14          	mov    %eax,0x14(%esp)
   14303:	c7 44 24 10 fa 03 00 	movl   $0x3fa,0x10(%esp)
   1430a:	00 
   1430b:	c7 44 24 0c 89 fa 01 	movl   $0x1fa89,0xc(%esp)
   14312:	00 
   14313:	c7 44 24 08 c4 fc 01 	movl   $0x1fcc4,0x8(%esp)
   1431a:	00 
   1431b:	c7 44 24 04 34 fd 01 	movl   $0x1fd34,0x4(%esp)
   14322:	00 
   14323:	c7 04 24 34 ee 01 00 	movl   $0x1ee34,(%esp)
   1432a:	e8 37 cd ff ff       	call   11066 <Print>
   1432f:	eb fe                	jmp    1432f <bpool+0x5c>
   14331:	c7 00 00 00 00 00    	movl   $0x0,(%eax)
   14337:	8b 0d 1c 40 02 00    	mov    0x2401c,%ecx
   1433d:	81 79 08 10 40 02 00 	cmpl   $0x24010,0x8(%ecx)
   14344:	74 4a                	je     14390 <bpool+0xbd>
   14346:	c7 04 24 4f 00 00 00 	movl   $0x4f,(%esp)
   1434d:	e8 69 ce ff ff       	call   111bb <Set_Current_Attr>
   14352:	a1 6c 5e 02 00       	mov    0x25e6c,%eax
   14357:	89 44 24 18          	mov    %eax,0x18(%esp)
   1435b:	8b 45 04             	mov    0x4(%ebp),%eax
   1435e:	89 44 24 14          	mov    %eax,0x14(%esp)
   14362:	c7 44 24 10 04 04 00 	movl   $0x404,0x10(%esp)
   14369:	00 
   1436a:	c7 44 24 0c 89 fa 01 	movl   $0x1fa89,0xc(%esp)
   14371:	00 
   14372:	c7 44 24 08 20 fc 01 	movl   $0x1fc20,0x8(%esp)
   14379:	00 
   1437a:	c7 44 24 04 34 fd 01 	movl   $0x1fd34,0x4(%esp)
   14381:	00 
   14382:	c7 04 24 34 ee 01 00 	movl   $0x1ee34,(%esp)
   14389:	e8 d8 cc ff ff       	call   11066 <Print>
   1438e:	eb fe                	jmp    1438e <bpool+0xbb>
   14390:	8b 0d 18 40 02 00    	mov    0x24018,%ecx
   14396:	81 79 0c 10 40 02 00 	cmpl   $0x24010,0xc(%ecx)
   1439d:	74 4a                	je     143e9 <bpool+0x116>
   1439f:	c7 04 24 4f 00 00 00 	movl   $0x4f,(%esp)
   143a6:	e8 10 ce ff ff       	call   111bb <Set_Current_Attr>
   143ab:	a1 6c 5e 02 00       	mov    0x25e6c,%eax
   143b0:	89 44 24 18          	mov    %eax,0x18(%esp)
   143b4:	8b 45 04             	mov    0x4(%ebp),%eax
   143b7:	89 44 24 14          	mov    %eax,0x14(%esp)
   143bb:	c7 44 24 10 05 04 00 	movl   $0x405,0x10(%esp)
   143c2:	00 
   143c3:	c7 44 24 0c 89 fa 01 	movl   $0x1fa89,0xc(%esp)
   143ca:	00 
   143cb:	c7 44 24 08 4c fc 01 	movl   $0x1fc4c,0x8(%esp)
   143d2:	00 
   143d3:	c7 44 24 04 34 fd 01 	movl   $0x1fd34,0x4(%esp)
   143da:	00 
   143db:	c7 04 24 34 ee 01 00 	movl   $0x1ee34,(%esp)
   143e2:	e8 7f cc ff ff       	call   11066 <Print>
   143e7:	eb fe                	jmp    143e7 <bpool+0x114>
   143e9:	c7 40 08 10 40 02 00 	movl   $0x24010,0x8(%eax)
   143f0:	8b 0d 1c 40 02 00    	mov    0x2401c,%ecx
   143f6:	89 48 0c             	mov    %ecx,0xc(%eax)
   143f9:	a3 1c 40 02 00       	mov    %eax,0x2401c
   143fe:	8b 48 0c             	mov    0xc(%eax),%ecx
   14401:	89 41 08             	mov    %eax,0x8(%ecx)
   14404:	89 50 04             	mov    %edx,0x4(%eax)
   14407:	01 d0                	add    %edx,%eax
   14409:	89 10                	mov    %edx,(%eax)
   1440b:	c7 40 04 00 00 00 80 	movl   $0x80000000,0x4(%eax)
   14412:	c9                   	leave  
   14413:	c3                   	ret    
   14414:	66 90                	xchg   %ax,%ax
   14416:	66 90                	xchg   %ax,%ax
   14418:	66 90                	xchg   %ax,%ax
   1441a:	66 90                	xchg   %ax,%ax
   1441c:	66 90                	xchg   %ax,%ax
   1441e:	66 90                	xchg   %ax,%ax

00014420 <Init_Heap>:
   14420:	55                   	push   %ebp
   14421:	89 e5                	mov    %esp,%ebp
   14423:	83 ec 18             	sub    $0x18,%esp
   14426:	8b 45 0c             	mov    0xc(%ebp),%eax
   14429:	89 44 24 04          	mov    %eax,0x4(%esp)
   1442d:	8b 45 08             	mov    0x8(%ebp),%eax
   14430:	89 04 24             	mov    %eax,(%esp)
   14433:	e8 9b fe ff ff       	call   142d3 <bpool>
   14438:	c9                   	leave  
   14439:	c3                   	ret    

0001443a <Malloc>:
   1443a:	55                   	push   %ebp
   1443b:	89 e5                	mov    %esp,%ebp
   1443d:	53                   	push   %ebx
   1443e:	83 ec 24             	sub    $0x24,%esp
   14441:	8b 5d 08             	mov    0x8(%ebp),%ebx
   14444:	85 db                	test   %ebx,%ebx
   14446:	75 4a                	jne    14492 <Malloc+0x58>
   14448:	c7 04 24 4f 00 00 00 	movl   $0x4f,(%esp)
   1444f:	e8 67 cd ff ff       	call   111bb <Set_Current_Attr>
   14454:	a1 6c 5e 02 00       	mov    0x25e6c,%eax
   14459:	89 44 24 18          	mov    %eax,0x18(%esp)
   1445d:	8b 45 04             	mov    0x4(%ebp),%eax
   14460:	89 44 24 14          	mov    %eax,0x14(%esp)
   14464:	c7 44 24 10 24 00 00 	movl   $0x24,0x10(%esp)
   1446b:	00 
   1446c:	c7 44 24 0c 50 fd 01 	movl   $0x1fd50,0xc(%esp)
   14473:	00 
   14474:	c7 44 24 08 89 fb 01 	movl   $0x1fb89,0x8(%esp)
   1447b:	00 
   1447c:	c7 44 24 04 87 fd 01 	movl   $0x1fd87,0x4(%esp)
   14483:	00 
   14484:	c7 04 24 34 ee 01 00 	movl   $0x1ee34,(%esp)
   1448b:	e8 d6 cb ff ff       	call   11066 <Print>
   14490:	eb fe                	jmp    14490 <Malloc+0x56>
   14492:	e8 a8 bd ff ff       	call   1023f <Interrupts_Enabled>
   14497:	84 c0                	test   %al,%al
   14499:	0f 84 08 01 00 00    	je     145a7 <Malloc+0x16d>
   1449f:	90                   	nop
   144a0:	e8 9a bd ff ff       	call   1023f <Interrupts_Enabled>
   144a5:	84 c0                	test   %al,%al
   144a7:	75 4a                	jne    144f3 <Malloc+0xb9>
   144a9:	c7 04 24 4f 00 00 00 	movl   $0x4f,(%esp)
   144b0:	e8 06 cd ff ff       	call   111bb <Set_Current_Attr>
   144b5:	a1 6c 5e 02 00       	mov    0x25e6c,%eax
   144ba:	89 44 24 18          	mov    %eax,0x18(%esp)
   144be:	8b 45 04             	mov    0x4(%ebp),%eax
   144c1:	89 44 24 14          	mov    %eax,0x14(%esp)
   144c5:	c7 44 24 10 8f 00 00 	movl   $0x8f,0x10(%esp)
   144cc:	00 
   144cd:	c7 44 24 0c fe f0 01 	movl   $0x1f0fe,0xc(%esp)
   144d4:	00 
   144d5:	c7 44 24 08 53 ef 01 	movl   $0x1ef53,0x8(%esp)
   144dc:	00 
   144dd:	c7 44 24 04 76 fd 01 	movl   $0x1fd76,0x4(%esp)
   144e4:	00 
   144e5:	c7 04 24 34 ee 01 00 	movl   $0x1ee34,(%esp)
   144ec:	e8 75 cb ff ff       	call   11066 <Print>
   144f1:	eb fe                	jmp    144f1 <Malloc+0xb7>
   144f3:	fa                   	cli    
   144f4:	89 1c 24             	mov    %ebx,(%esp)
   144f7:	e8 75 f6 ff ff       	call   13b71 <bget>
   144fc:	89 c3                	mov    %eax,%ebx
   144fe:	e8 3c bd ff ff       	call   1023f <Interrupts_Enabled>
   14503:	84 c0                	test   %al,%al
   14505:	74 4a                	je     14551 <Malloc+0x117>
   14507:	c7 04 24 4f 00 00 00 	movl   $0x4f,(%esp)
   1450e:	e8 a8 cc ff ff       	call   111bb <Set_Current_Attr>
   14513:	a1 6c 5e 02 00       	mov    0x25e6c,%eax
   14518:	89 44 24 18          	mov    %eax,0x18(%esp)
   1451c:	8b 45 04             	mov    0x4(%ebp),%eax
   1451f:	89 44 24 14          	mov    %eax,0x14(%esp)
   14523:	c7 44 24 10 99 00 00 	movl   $0x99,0x10(%esp)
   1452a:	00 
   1452b:	c7 44 24 0c fe f0 01 	movl   $0x1f0fe,0xc(%esp)
   14532:	00 
   14533:	c7 44 24 08 52 ef 01 	movl   $0x1ef52,0x8(%esp)
   1453a:	00 
   1453b:	c7 44 24 04 67 fd 01 	movl   $0x1fd67,0x4(%esp)
   14542:	00 
   14543:	c7 04 24 34 ee 01 00 	movl   $0x1ee34,(%esp)
   1454a:	e8 17 cb ff ff       	call   11066 <Print>
   1454f:	eb fe                	jmp    1454f <Malloc+0x115>
   14551:	e8 e9 bc ff ff       	call   1023f <Interrupts_Enabled>
   14556:	84 c0                	test   %al,%al
   14558:	74 4a                	je     145a4 <Malloc+0x16a>
   1455a:	c7 04 24 4f 00 00 00 	movl   $0x4f,(%esp)
   14561:	e8 55 cc ff ff       	call   111bb <Set_Current_Attr>
   14566:	a1 6c 5e 02 00       	mov    0x25e6c,%eax
   1456b:	89 44 24 18          	mov    %eax,0x18(%esp)
   1456f:	8b 45 04             	mov    0x4(%ebp),%eax
   14572:	89 44 24 14          	mov    %eax,0x14(%esp)
   14576:	c7 44 24 10 9c 00 00 	movl   $0x9c,0x10(%esp)
   1457d:	00 
   1457e:	c7 44 24 0c fe f0 01 	movl   $0x1f0fe,0xc(%esp)
   14585:	00 
   14586:	c7 44 24 08 52 ef 01 	movl   $0x1ef52,0x8(%esp)
   1458d:	00 
   1458e:	c7 44 24 04 67 fd 01 	movl   $0x1fd67,0x4(%esp)
   14595:	00 
   14596:	c7 04 24 34 ee 01 00 	movl   $0x1ee34,(%esp)
   1459d:	e8 c4 ca ff ff       	call   11066 <Print>
   145a2:	eb fe                	jmp    145a2 <Malloc+0x168>
   145a4:	fb                   	sti    
   145a5:	eb 1d                	jmp    145c4 <Malloc+0x18a>
   145a7:	89 1c 24             	mov    %ebx,(%esp)
   145aa:	8d b6 00 00 00 00    	lea    0x0(%esi),%esi
   145b0:	e8 bc f5 ff ff       	call   13b71 <bget>
   145b5:	89 c3                	mov    %eax,%ebx
   145b7:	e8 83 bc ff ff       	call   1023f <Interrupts_Enabled>
   145bc:	84 c0                	test   %al,%al
   145be:	0f 85 43 ff ff ff    	jne    14507 <Malloc+0xcd>
   145c4:	89 d8                	mov    %ebx,%eax
   145c6:	83 c4 24             	add    $0x24,%esp
   145c9:	5b                   	pop    %ebx
   145ca:	5d                   	pop    %ebp
   145cb:	c3                   	ret    

000145cc <Free>:
   145cc:	55                   	push   %ebp
   145cd:	89 e5                	mov    %esp,%ebp
   145cf:	53                   	push   %ebx
   145d0:	83 ec 24             	sub    $0x24,%esp
   145d3:	8b 5d 08             	mov    0x8(%ebp),%ebx
   145d6:	e8 64 bc ff ff       	call   1023f <Interrupts_Enabled>
   145db:	84 c0                	test   %al,%al
   145dd:	0f 84 0c 01 00 00    	je     146ef <Free+0x123>
   145e3:	e8 57 bc ff ff       	call   1023f <Interrupts_Enabled>
   145e8:	84 c0                	test   %al,%al
   145ea:	75 4a                	jne    14636 <Free+0x6a>
   145ec:	c7 04 24 4f 00 00 00 	movl   $0x4f,(%esp)
   145f3:	e8 c3 cb ff ff       	call   111bb <Set_Current_Attr>
   145f8:	a1 6c 5e 02 00       	mov    0x25e6c,%eax
   145fd:	89 44 24 18          	mov    %eax,0x18(%esp)
   14601:	8b 45 04             	mov    0x4(%ebp),%eax
   14604:	89 44 24 14          	mov    %eax,0x14(%esp)
   14608:	c7 44 24 10 8f 00 00 	movl   $0x8f,0x10(%esp)
   1460f:	00 
   14610:	c7 44 24 0c fe f0 01 	movl   $0x1f0fe,0xc(%esp)
   14617:	00 
   14618:	c7 44 24 08 53 ef 01 	movl   $0x1ef53,0x8(%esp)
   1461f:	00 
   14620:	c7 44 24 04 76 fd 01 	movl   $0x1fd76,0x4(%esp)
   14627:	00 
   14628:	c7 04 24 34 ee 01 00 	movl   $0x1ee34,(%esp)
   1462f:	e8 32 ca ff ff       	call   11066 <Print>
   14634:	eb fe                	jmp    14634 <Free+0x68>
   14636:	fa                   	cli    
   14637:	89 1c 24             	mov    %ebx,(%esp)
   1463a:	e8 46 f8 ff ff       	call   13e85 <brel>
   1463f:	90                   	nop
   14640:	e8 fa bb ff ff       	call   1023f <Interrupts_Enabled>
   14645:	84 c0                	test   %al,%al
   14647:	74 4a                	je     14693 <Free+0xc7>
   14649:	c7 04 24 4f 00 00 00 	movl   $0x4f,(%esp)
   14650:	e8 66 cb ff ff       	call   111bb <Set_Current_Attr>
   14655:	a1 6c 5e 02 00       	mov    0x25e6c,%eax
   1465a:	89 44 24 18          	mov    %eax,0x18(%esp)
   1465e:	8b 45 04             	mov    0x4(%ebp),%eax
   14661:	89 44 24 14          	mov    %eax,0x14(%esp)
   14665:	c7 44 24 10 99 00 00 	movl   $0x99,0x10(%esp)
   1466c:	00 
   1466d:	c7 44 24 0c fe f0 01 	movl   $0x1f0fe,0xc(%esp)
   14674:	00 
   14675:	c7 44 24 08 52 ef 01 	movl   $0x1ef52,0x8(%esp)
   1467c:	00 
   1467d:	c7 44 24 04 67 fd 01 	movl   $0x1fd67,0x4(%esp)
   14684:	00 
   14685:	c7 04 24 34 ee 01 00 	movl   $0x1ee34,(%esp)
   1468c:	e8 d5 c9 ff ff       	call   11066 <Print>
   14691:	eb fe                	jmp    14691 <Free+0xc5>
   14693:	e8 a7 bb ff ff       	call   1023f <Interrupts_Enabled>
   14698:	84 c0                	test   %al,%al
   1469a:	8d b6 00 00 00 00    	lea    0x0(%esi),%esi
   146a0:	74 4a                	je     146ec <Free+0x120>
   146a2:	c7 04 24 4f 00 00 00 	movl   $0x4f,(%esp)
   146a9:	e8 0d cb ff ff       	call   111bb <Set_Current_Attr>
   146ae:	a1 6c 5e 02 00       	mov    0x25e6c,%eax
   146b3:	89 44 24 18          	mov    %eax,0x18(%esp)
   146b7:	8b 45 04             	mov    0x4(%ebp),%eax
   146ba:	89 44 24 14          	mov    %eax,0x14(%esp)
   146be:	c7 44 24 10 9c 00 00 	movl   $0x9c,0x10(%esp)
   146c5:	00 
   146c6:	c7 44 24 0c fe f0 01 	movl   $0x1f0fe,0xc(%esp)
   146cd:	00 
   146ce:	c7 44 24 08 52 ef 01 	movl   $0x1ef52,0x8(%esp)
   146d5:	00 
   146d6:	c7 44 24 04 67 fd 01 	movl   $0x1fd67,0x4(%esp)
   146dd:	00 
   146de:	c7 04 24 34 ee 01 00 	movl   $0x1ee34,(%esp)
   146e5:	e8 7c c9 ff ff       	call   11066 <Print>
   146ea:	eb fe                	jmp    146ea <Free+0x11e>
   146ec:	fb                   	sti    
   146ed:	eb 15                	jmp    14704 <Free+0x138>
   146ef:	89 1c 24             	mov    %ebx,(%esp)
