
kernel.exe:     file format elf32-i386


Disassembly of section .text:

00010000 <Init_Interrupt_Gate>:
   10000:	55                   	push   %ebp
   10001:	89 e5                	mov    %esp,%ebp
   10003:	53                   	push   %ebx
   10004:	8b 45 08             	mov    0x8(%ebp),%eax
   10007:	8b 55 0c             	mov    0xc(%ebp),%edx
   1000a:	66 89 10             	mov    %dx,(%eax)
   1000d:	66 c7 40 02 08 00    	movw   $0x8,0x2(%eax)
   10013:	80 60 04 e0          	andb   $0xe0,0x4(%eax)
   10017:	0f b7 48 04          	movzwl 0x4(%eax),%ecx
   1001b:	66 81 e1 1f e0       	and    $0xe01f,%cx
   10020:	80 cd 0e             	or     $0xe,%ch
   10023:	66 89 48 04          	mov    %cx,0x4(%eax)
   10027:	0f b6 5d 10          	movzbl 0x10(%ebp),%ebx
   1002b:	83 e3 03             	and    $0x3,%ebx
   1002e:	c1 e3 05             	shl    $0x5,%ebx
   10031:	66 c1 e9 08          	shr    $0x8,%cx
   10035:	83 e1 9f             	and    $0xffffff9f,%ecx
   10038:	09 d9                	or     %ebx,%ecx
   1003a:	83 c9 80             	or     $0xffffff80,%ecx
   1003d:	88 48 05             	mov    %cl,0x5(%eax)
   10040:	c1 ea 10             	shr    $0x10,%edx
   10043:	66 89 50 06          	mov    %dx,0x6(%eax)
   10047:	5b                   	pop    %ebx
   10048:	5d                   	pop    %ebp
   10049:	c3                   	ret    

0001004a <Init_IDT>:
   1004a:	55                   	push   %ebp
   1004b:	89 e5                	mov    %esp,%ebp
   1004d:	57                   	push   %edi
   1004e:	56                   	push   %esi
   1004f:	53                   	push   %ebx
   10050:	83 ec 3c             	sub    $0x3c,%esp
   10053:	c7 04 24 60 ee 01 00 	movl   $0x1ee60,(%esp)
   1005a:	e8 07 10 00 00       	call   11066 <Print>
   1005f:	a1 34 41 02 00       	mov    0x24134,%eax
   10064:	3b 05 38 41 02 00    	cmp    0x24138,%eax
   1006a:	74 4a                	je     100b6 <Init_IDT+0x6c>
   1006c:	c7 04 24 4f 00 00 00 	movl   $0x4f,(%esp)
   10073:	e8 43 11 00 00       	call   111bb <Set_Current_Attr>
   10078:	a1 6c 5e 02 00       	mov    0x25e6c,%eax
   1007d:	89 44 24 18          	mov    %eax,0x18(%esp)
   10081:	8b 45 04             	mov    0x4(%ebp),%eax
   10084:	89 44 24 14          	mov    %eax,0x14(%esp)
   10088:	c7 44 24 10 3d 00 00 	movl   $0x3d,0x10(%esp)
   1008f:	00 
   10090:	c7 44 24 0c 75 ee 01 	movl   $0x1ee75,0xc(%esp)
   10097:	00 
   10098:	c7 44 24 08 8c ee 01 	movl   $0x1ee8c,0x8(%esp)
   1009f:	00 
   100a0:	c7 44 24 04 98 ef 01 	movl   $0x1ef98,0x4(%esp)
   100a7:	00 
   100a8:	c7 04 24 b4 ee 01 00 	movl   $0x1eeb4,(%esp)
   100af:	e8 b2 0f 00 00       	call   11066 <Print>
   100b4:	eb fe                	jmp    100b4 <Init_IDT+0x6a>
   100b6:	c1 e0 08             	shl    $0x8,%eax
   100b9:	ba f8 e1 01 00       	mov    $0x1e1f8,%edx
   100be:	81 ea f8 d1 01 00    	sub    $0x1d1f8,%edx
   100c4:	39 d0                	cmp    %edx,%eax
   100c6:	74 4a                	je     10112 <Init_IDT+0xc8>
   100c8:	c7 04 24 4f 00 00 00 	movl   $0x4f,(%esp)
   100cf:	e8 e7 10 00 00       	call   111bb <Set_Current_Attr>
   100d4:	a1 6c 5e 02 00       	mov    0x25e6c,%eax
   100d9:	89 44 24 18          	mov    %eax,0x18(%esp)
   100dd:	8b 45 04             	mov    0x4(%ebp),%eax
   100e0:	89 44 24 14          	mov    %eax,0x14(%esp)
   100e4:	c7 44 24 10 3f 00 00 	movl   $0x3f,0x10(%esp)
   100eb:	00 
   100ec:	c7 44 24 0c 75 ee 01 	movl   $0x1ee75,0xc(%esp)
   100f3:	00 
   100f4:	c7 44 24 08 f4 ee 01 	movl   $0x1eef4,0x8(%esp)
   100fb:	00 
   100fc:	c7 44 24 04 98 ef 01 	movl   $0x1ef98,0x4(%esp)
   10103:	00 
   10104:	c7 04 24 b4 ee 01 00 	movl   $0x1eeb4,(%esp)
   1010b:	e8 56 0f 00 00       	call   11066 <Print>
   10110:	eb fe                	jmp    10110 <Init_IDT+0xc6>
   10112:	be f8 d1 01 00       	mov    $0x1d1f8,%esi
   10117:	bf 40 41 02 00       	mov    $0x24140,%edi
   1011c:	bb 01 00 00 00       	mov    $0x1,%ebx
   10121:	eb 06                	jmp    10129 <Init_IDT+0xdf>
   10123:	83 c3 01             	add    $0x1,%ebx
   10126:	83 c7 08             	add    $0x8,%edi
   10129:	81 fb 91 00 00 00    	cmp    $0x91,%ebx
   1012f:	74 50                	je     10181 <Init_IDT+0x137>
   10131:	c7 44 24 08 00 00 00 	movl   $0x0,0x8(%esp)
   10138:	00 
   10139:	89 74 24 04          	mov    %esi,0x4(%esp)
   1013d:	89 3c 24             	mov    %edi,(%esp)
   10140:	e8 bb fe ff ff       	call   10000 <Init_Interrupt_Gate>
   10145:	03 35 34 41 02 00    	add    0x24134,%esi
   1014b:	81 fb ff 00 00 00    	cmp    $0xff,%ebx
   10151:	7e d0                	jle    10123 <Init_IDT+0xd9>
   10153:	66 c7 45 e2 00 08    	movw   $0x800,-0x1e(%ebp)
   10159:	c7 45 d4 40 41 02 00 	movl   $0x24140,-0x2c(%ebp)
   10160:	0f b7 45 d4          	movzwl -0x2c(%ebp),%eax
   10164:	66 89 45 e4          	mov    %ax,-0x1c(%ebp)
   10168:	b8 40 41 02 00       	mov    $0x24140,%eax
   1016d:	c1 e8 10             	shr    $0x10,%eax
   10170:	66 89 45 e6          	mov    %ax,-0x1a(%ebp)
   10174:	8d 45 e2             	lea    -0x1e(%ebp),%eax
   10177:	89 04 24             	mov    %eax,(%esp)
   1017a:	e8 e1 ce 00 00       	call   1d060 <Load_IDTR>
   1017f:	eb 1c                	jmp    1019d <Init_IDT+0x153>
   10181:	c7 44 24 08 03 00 00 	movl   $0x3,0x8(%esp)
   10188:	00 
   10189:	89 74 24 04          	mov    %esi,0x4(%esp)
   1018d:	89 3c 24             	mov    %edi,(%esp)
   10190:	e8 6b fe ff ff       	call   10000 <Init_Interrupt_Gate>
   10195:	03 35 34 41 02 00    	add    0x24134,%esi
   1019b:	eb 86                	jmp    10123 <Init_IDT+0xd9>
   1019d:	83 c4 3c             	add    $0x3c,%esp
   101a0:	5b                   	pop    %ebx
   101a1:	5e                   	pop    %esi
   101a2:	5f                   	pop    %edi
   101a3:	5d                   	pop    %ebp
   101a4:	c3                   	ret    

000101a5 <Install_Interrupt_Handler>:
   101a5:	55                   	push   %ebp
   101a6:	89 e5                	mov    %esp,%ebp
   101a8:	83 ec 28             	sub    $0x28,%esp
   101ab:	8b 45 08             	mov    0x8(%ebp),%eax
   101ae:	3d ff 00 00 00       	cmp    $0xff,%eax
   101b3:	76 4a                	jbe    101ff <Install_Interrupt_Handler+0x5a>
   101b5:	c7 04 24 4f 00 00 00 	movl   $0x4f,(%esp)
   101bc:	e8 fa 0f 00 00       	call   111bb <Set_Current_Attr>
   101c1:	a1 6c 5e 02 00       	mov    0x25e6c,%eax
   101c6:	89 44 24 18          	mov    %eax,0x18(%esp)
   101ca:	8b 45 04             	mov    0x4(%ebp),%eax
   101cd:	89 44 24 14          	mov    %eax,0x14(%esp)
   101d1:	c7 44 24 10 75 00 00 	movl   $0x75,0x10(%esp)
   101d8:	00 
   101d9:	c7 44 24 0c 75 ee 01 	movl   $0x1ee75,0xc(%esp)
   101e0:	00 
   101e1:	c7 44 24 08 50 ef 01 	movl   $0x1ef50,0x8(%esp)
   101e8:	00 
   101e9:	c7 44 24 04 7e ef 01 	movl   $0x1ef7e,0x4(%esp)
   101f0:	00 
   101f1:	c7 04 24 b4 ee 01 00 	movl   $0x1eeb4,(%esp)
   101f8:	e8 69 0e 00 00       	call   11066 <Print>
   101fd:	eb fe                	jmp    101fd <Install_Interrupt_Handler+0x58>
   101ff:	8b 55 0c             	mov    0xc(%ebp),%edx
   10202:	89 14 85 00 54 02 00 	mov    %edx,0x25400(,%eax,4)
   10209:	c9                   	leave  
   1020a:	c3                   	ret    

0001020b <Print_Selector>:
   1020b:	55                   	push   %ebp
   1020c:	89 e5                	mov    %esp,%ebp
   1020e:	83 ec 28             	sub    $0x28,%esp
   10211:	89 d1                	mov    %edx,%ecx
   10213:	83 e1 03             	and    $0x3,%ecx
   10216:	89 4c 24 10          	mov    %ecx,0x10(%esp)
   1021a:	89 d1                	mov    %edx,%ecx
   1021c:	c1 e9 02             	shr    $0x2,%ecx
   1021f:	83 e1 01             	and    $0x1,%ecx
   10222:	89 4c 24 0c          	mov    %ecx,0xc(%esp)
   10226:	c1 ea 03             	shr    $0x3,%edx
   10229:	89 54 24 08          	mov    %edx,0x8(%esp)
   1022d:	89 44 24 04          	mov    %eax,0x4(%esp)
   10231:	c7 04 24 a1 ef 01 00 	movl   $0x1efa1,(%esp)
   10238:	e8 29 0e 00 00       	call   11066 <Print>
   1023d:	c9                   	leave  
   1023e:	c3                   	ret    

0001023f <Interrupts_Enabled>:
   1023f:	55                   	push   %ebp
   10240:	89 e5                	mov    %esp,%ebp
   10242:	83 ec 08             	sub    $0x8,%esp
   10245:	e8 a6 cf 00 00       	call   1d1f0 <Get_Current_EFLAGS>
   1024a:	c1 e8 09             	shr    $0x9,%eax
   1024d:	83 e0 01             	and    $0x1,%eax
   10250:	c9                   	leave  
   10251:	c3                   	ret    

00010252 <Init_Interrupts>:
   10252:	55                   	push   %ebp
   10253:	89 e5                	mov    %esp,%ebp
   10255:	53                   	push   %ebx
   10256:	83 ec 24             	sub    $0x24,%esp
   10259:	e8 ec fd ff ff       	call   1004a <Init_IDT>
   1025e:	bb 00 00 00 00       	mov    $0x0,%ebx
   10263:	c7 44 24 04 47 04 01 	movl   $0x10447,0x4(%esp)
   1026a:	00 
   1026b:	89 1c 24             	mov    %ebx,(%esp)
   1026e:	e8 32 ff ff ff       	call   101a5 <Install_Interrupt_Handler>
   10273:	83 c3 01             	add    $0x1,%ebx
   10276:	81 fb 00 01 00 00    	cmp    $0x100,%ebx
   1027c:	75 e5                	jne    10263 <Init_Interrupts+0x11>
   1027e:	e8 bc ff ff ff       	call   1023f <Interrupts_Enabled>
   10283:	84 c0                	test   %al,%al
   10285:	74 4a                	je     102d1 <Init_Interrupts+0x7f>
   10287:	c7 04 24 4f 00 00 00 	movl   $0x4f,(%esp)
   1028e:	e8 28 0f 00 00       	call   111bb <Set_Current_Attr>
   10293:	a1 6c 5e 02 00       	mov    0x25e6c,%eax
   10298:	89 44 24 18          	mov    %eax,0x18(%esp)
   1029c:	8b 45 04             	mov    0x4(%ebp),%eax
   1029f:	89 44 24 14          	mov    %eax,0x14(%esp)
   102a3:	c7 44 24 10 42 00 00 	movl   $0x42,0x10(%esp)
   102aa:	00 
   102ab:	c7 44 24 0c be ef 01 	movl   $0x1efbe,0xc(%esp)
   102b2:	00 
   102b3:	c7 44 24 08 d2 ef 01 	movl   $0x1efd2,0x8(%esp)
   102ba:	00 
   102bb:	c7 44 24 04 1b f1 01 	movl   $0x1f11b,0x4(%esp)
   102c2:	00 
   102c3:	c7 04 24 b4 ee 01 00 	movl   $0x1eeb4,(%esp)
   102ca:	e8 97 0d 00 00       	call   11066 <Print>
   102cf:	eb fe                	jmp    102cf <Init_Interrupts+0x7d>
   102d1:	fb                   	sti    
   102d2:	83 c4 24             	add    $0x24,%esp
   102d5:	5b                   	pop    %ebx
   102d6:	5d                   	pop    %ebp
   102d7:	c3                   	ret    

000102d8 <Dump_Interrupt_State>:
   102d8:	55                   	push   %ebp
   102d9:	89 e5                	mov    %esp,%ebp
   102db:	56                   	push   %esi
   102dc:	53                   	push   %ebx
   102dd:	83 ec 50             	sub    $0x50,%esp
   102e0:	8b 5d 08             	mov    0x8(%ebp),%ebx
   102e3:	8b 73 30             	mov    0x30(%ebx),%esi
   102e6:	89 f0                	mov    %esi,%eax
   102e8:	83 e0 01             	and    $0x1,%eax
   102eb:	89 44 24 40          	mov    %eax,0x40(%esp)
   102ef:	89 f0                	mov    %esi,%eax
   102f1:	d1 e8                	shr    %eax
   102f3:	83 e0 01             	and    $0x1,%eax
   102f6:	89 44 24 3c          	mov    %eax,0x3c(%esp)
   102fa:	89 f0                	mov    %esi,%eax
   102fc:	c1 e8 02             	shr    $0x2,%eax
   102ff:	83 e0 01             	and    $0x1,%eax
   10302:	89 44 24 38          	mov    %eax,0x38(%esp)
   10306:	89 f0                	mov    %esi,%eax
   10308:	c1 e8 03             	shr    $0x3,%eax
   1030b:	89 44 24 34          	mov    %eax,0x34(%esp)
   1030f:	89 74 24 30          	mov    %esi,0x30(%esp)
   10313:	8b 43 2c             	mov    0x2c(%ebx),%eax
   10316:	89 44 24 2c          	mov    %eax,0x2c(%esp)
   1031a:	8b 43 3c             	mov    0x3c(%ebx),%eax
   1031d:	89 44 24 28          	mov    %eax,0x28(%esp)
   10321:	8b 43 38             	mov    0x38(%ebx),%eax
   10324:	89 44 24 24          	mov    %eax,0x24(%esp)
   10328:	8b 43 34             	mov    0x34(%ebx),%eax
   1032b:	89 44 24 20          	mov    %eax,0x20(%esp)
   1032f:	8b 43 10             	mov    0x10(%ebx),%eax
   10332:	89 44 24 1c          	mov    %eax,0x1c(%esp)
   10336:	8b 43 14             	mov    0x14(%ebx),%eax
   10339:	89 44 24 18          	mov    %eax,0x18(%esp)
   1033d:	8b 43 18             	mov    0x18(%ebx),%eax
   10340:	89 44 24 14          	mov    %eax,0x14(%esp)
   10344:	8b 43 1c             	mov    0x1c(%ebx),%eax
   10347:	89 44 24 10          	mov    %eax,0x10(%esp)
   1034b:	8b 43 20             	mov    0x20(%ebx),%eax
   1034e:	89 44 24 0c          	mov    %eax,0xc(%esp)
   10352:	8b 43 24             	mov    0x24(%ebx),%eax
   10355:	89 44 24 08          	mov    %eax,0x8(%esp)
   10359:	8b 43 28             	mov    0x28(%ebx),%eax
   1035c:	89 44 24 04          	mov    %eax,0x4(%esp)
   10360:	c7 04 24 5c f0 01 00 	movl   $0x1f05c,(%esp)
   10367:	e8 fa 0c 00 00       	call   11066 <Print>
   1036c:	8b 43 38             	mov    0x38(%ebx),%eax
   1036f:	83 e0 03             	and    $0x3,%eax
   10372:	83 f8 03             	cmp    $0x3,%eax
   10375:	75 1a                	jne    10391 <Dump_Interrupt_State+0xb9>
   10377:	8b 43 44             	mov    0x44(%ebx),%eax
   1037a:	89 44 24 08          	mov    %eax,0x8(%esp)
   1037e:	8b 43 40             	mov    0x40(%ebx),%eax
   10381:	89 44 24 04          	mov    %eax,0x4(%esp)
   10385:	c7 04 24 f3 ef 01 00 	movl   $0x1eff3,(%esp)
   1038c:	e8 d5 0c 00 00       	call   11066 <Print>
   10391:	83 7b 2c 0e          	cmpl   $0xe,0x2c(%ebx)
   10395:	75 69                	jne    10400 <Dump_Interrupt_State+0x128>
   10397:	c7 04 24 10 f0 01 00 	movl   $0x1f010,(%esp)
   1039e:	e8 c3 0c 00 00       	call   11066 <Print>
   103a3:	f7 c6 01 00 00 00    	test   $0x1,%esi
   103a9:	74 0c                	je     103b7 <Dump_Interrupt_State+0xdf>
   103ab:	c7 04 24 1d f0 01 00 	movl   $0x1f01d,(%esp)
   103b2:	e8 af 0c 00 00       	call   11066 <Print>
   103b7:	89 f0                	mov    %esi,%eax
   103b9:	83 e0 02             	and    $0x2,%eax
   103bc:	b8 e8 ef 01 00       	mov    $0x1efe8,%eax
   103c1:	ba ee ef 01 00       	mov    $0x1efee,%edx
   103c6:	0f 44 c2             	cmove  %edx,%eax
   103c9:	89 44 24 04          	mov    %eax,0x4(%esp)
   103cd:	c7 04 24 2a f0 01 00 	movl   $0x1f02a,(%esp)
   103d4:	e8 8d 0c 00 00       	call   11066 <Print>
   103d9:	f7 c6 04 00 00 00    	test   $0x4,%esi
   103df:	74 0c                	je     103ed <Dump_Interrupt_State+0x115>
   103e1:	c7 04 24 2f f0 01 00 	movl   $0x1f02f,(%esp)
   103e8:	e8 79 0c 00 00       	call   11066 <Print>
   103ed:	0f 20 d0             	mov    %cr2,%eax
   103f0:	89 44 24 04          	mov    %eax,0x4(%esp)
   103f4:	c7 04 24 3b f0 01 00 	movl   $0x1f03b,(%esp)
   103fb:	e8 66 0c 00 00       	call   11066 <Print>
   10400:	8b 53 38             	mov    0x38(%ebx),%edx
   10403:	b8 4a f0 01 00       	mov    $0x1f04a,%eax
   10408:	e8 fe fd ff ff       	call   1020b <Print_Selector>
   1040d:	8b 53 0c             	mov    0xc(%ebx),%edx
   10410:	b8 4d f0 01 00       	mov    $0x1f04d,%eax
   10415:	e8 f1 fd ff ff       	call   1020b <Print_Selector>
   1041a:	8b 53 08             	mov    0x8(%ebx),%edx
   1041d:	b8 50 f0 01 00       	mov    $0x1f050,%eax
   10422:	e8 e4 fd ff ff       	call   1020b <Print_Selector>
   10427:	8b 53 04             	mov    0x4(%ebx),%edx
   1042a:	b8 53 f0 01 00       	mov    $0x1f053,%eax
   1042f:	e8 d7 fd ff ff       	call   1020b <Print_Selector>
   10434:	8b 13                	mov    (%ebx),%edx
   10436:	b8 56 f0 01 00       	mov    $0x1f056,%eax
   1043b:	e8 cb fd ff ff       	call   1020b <Print_Selector>
   10440:	83 c4 50             	add    $0x50,%esp
   10443:	5b                   	pop    %ebx
   10444:	5e                   	pop    %esi
   10445:	5d                   	pop    %ebp
   10446:	c3                   	ret    

00010447 <Dummy_Interrupt_Handler>:
   10447:	55                   	push   %ebp
   10448:	89 e5                	mov    %esp,%ebp
   1044a:	83 ec 18             	sub    $0x18,%esp
   1044d:	c7 04 24 fc f0 01 00 	movl   $0x1f0fc,(%esp)
   10454:	e8 0d 0c 00 00       	call   11066 <Print>
   10459:	8b 45 08             	mov    0x8(%ebp),%eax
   1045c:	89 04 24             	mov    %eax,(%esp)
   1045f:	e8 74 fe ff ff       	call   102d8 <Dump_Interrupt_State>
   10464:	eb fe                	jmp    10464 <Dummy_Interrupt_Handler+0x1d>

00010466 <Syscall_Handler>:
   10466:	55                   	push   %ebp
   10467:	89 e5                	mov    %esp,%ebp
   10469:	53                   	push   %ebx
   1046a:	83 ec 14             	sub    $0x14,%esp
   1046d:	8b 5d 08             	mov    0x8(%ebp),%ebx
   10470:	8b 43 28             	mov    0x28(%ebx),%eax
   10473:	3b 05 d4 05 02 00    	cmp    0x205d4,%eax
   10479:	72 29                	jb     104a4 <Syscall_Handler+0x3e>
   1047b:	8b 15 6c 5e 02 00    	mov    0x25e6c,%edx
   10481:	8b 52 34             	mov    0x34(%edx),%edx
   10484:	89 54 24 08          	mov    %edx,0x8(%esp)
   10488:	89 44 24 04          	mov    %eax,0x4(%esp)
   1048c:	c7 04 24 2c f1 01 00 	movl   $0x1f12c,(%esp)
   10493:	e8 ce 0b 00 00       	call   11066 <Print>
   10498:	c7 04 24 ff ff ff ff 	movl   $0xffffffff,(%esp)
   1049f:	e8 9a 62 00 00       	call   1673e <Exit>
   104a4:	89 1c 24             	mov    %ebx,(%esp)
   104a7:	ff 14 85 e0 05 02 00 	call   *0x205e0(,%eax,4)
   104ae:	89 43 28             	mov    %eax,0x28(%ebx)
   104b1:	83 c4 14             	add    $0x14,%esp
   104b4:	5b                   	pop    %ebx
   104b5:	5d                   	pop    %ebp
   104b6:	c3                   	ret    

000104b7 <GPF_Handler>:
   104b7:	55                   	push   %ebp
   104b8:	89 e5                	mov    %esp,%ebp
   104ba:	53                   	push   %ebx
   104bb:	83 ec 14             	sub    $0x14,%esp
   104be:	8b 5d 08             	mov    0x8(%ebp),%ebx
   104c1:	a1 6c 5e 02 00       	mov    0x25e6c,%eax
   104c6:	89 44 24 08          	mov    %eax,0x8(%esp)
   104ca:	8b 43 2c             	mov    0x2c(%ebx),%eax
   104cd:	89 44 24 04          	mov    %eax,0x4(%esp)
   104d1:	c7 04 24 54 f1 01 00 	movl   $0x1f154,(%esp)
   104d8:	e8 89 0b 00 00       	call   11066 <Print>
   104dd:	89 1c 24             	mov    %ebx,(%esp)
   104e0:	e8 f3 fd ff ff       	call   102d8 <Dump_Interrupt_State>
   104e5:	c7 04 24 ff ff ff ff 	movl   $0xffffffff,(%esp)
   104ec:	e8 4d 62 00 00       	call   1673e <Exit>

000104f1 <Init_Traps>:
   104f1:	55                   	push   %ebp
   104f2:	89 e5                	mov    %esp,%ebp
   104f4:	83 ec 18             	sub    $0x18,%esp
   104f7:	c7 44 24 04 b7 04 01 	movl   $0x104b7,0x4(%esp)
   104fe:	00 
   104ff:	c7 04 24 0c 00 00 00 	movl   $0xc,(%esp)
   10506:	e8 9a fc ff ff       	call   101a5 <Install_Interrupt_Handler>
   1050b:	c7 44 24 04 b7 04 01 	movl   $0x104b7,0x4(%esp)
   10512:	00 
   10513:	c7 04 24 0d 00 00 00 	movl   $0xd,(%esp)
   1051a:	e8 86 fc ff ff       	call   101a5 <Install_Interrupt_Handler>
   1051f:	c7 44 24 04 66 04 01 	movl   $0x10466,0x4(%esp)
   10526:	00 
   10527:	c7 04 24 90 00 00 00 	movl   $0x90,(%esp)
   1052e:	e8 72 fc ff ff       	call   101a5 <Install_Interrupt_Handler>
   10533:	c9                   	leave  
   10534:	c3                   	ret    
   10535:	66 90                	xchg   %ax,%ax
   10537:	66 90                	xchg   %ax,%ax
   10539:	66 90                	xchg   %ax,%ax
   1053b:	66 90                	xchg   %ax,%ax
   1053d:	66 90                	xchg   %ax,%ax
   1053f:	90                   	nop

00010540 <Install_IRQ>:
   10540:	55                   	push   %ebp
   10541:	89 e5                	mov    %esp,%ebp
   10543:	83 ec 18             	sub    $0x18,%esp
   10546:	8b 45 0c             	mov    0xc(%ebp),%eax
   10549:	89 44 24 04          	mov    %eax,0x4(%esp)
   1054d:	8b 45 08             	mov    0x8(%ebp),%eax
   10550:	83 c0 20             	add    $0x20,%eax
   10553:	89 04 24             	mov    %eax,(%esp)
   10556:	e8 4a fc ff ff       	call   101a5 <Install_Interrupt_Handler>
   1055b:	c9                   	leave  
   1055c:	c3                   	ret    

0001055d <Get_IRQ_Mask>:
   1055d:	55                   	push   %ebp
   1055e:	89 e5                	mov    %esp,%ebp
   10560:	0f b7 05 00 40 02 00 	movzwl 0x24000,%eax
   10567:	5d                   	pop    %ebp
   10568:	c3                   	ret    

00010569 <Set_IRQ_Mask>:
   10569:	55                   	push   %ebp
   1056a:	89 e5                	mov    %esp,%ebp
   1056c:	53                   	push   %ebx
   1056d:	83 ec 14             	sub    $0x14,%esp
   10570:	8b 5d 08             	mov    0x8(%ebp),%ebx
   10573:	38 1d 00 40 02 00    	cmp    %bl,0x24000
   10579:	74 13                	je     1058e <Set_IRQ_Mask+0x25>
   1057b:	0f b6 c3             	movzbl %bl,%eax
   1057e:	89 44 24 04          	mov    %eax,0x4(%esp)
   10582:	c7 04 24 21 00 00 00 	movl   $0x21,(%esp)
   10589:	e8 a5 03 00 00       	call   10933 <Out_Byte>
   1058e:	89 d8                	mov    %ebx,%eax
   10590:	66 c1 e8 08          	shr    $0x8,%ax
   10594:	3a 05 01 40 02 00    	cmp    0x24001,%al
   1059a:	74 13                	je     105af <Set_IRQ_Mask+0x46>
   1059c:	0f b6 c0             	movzbl %al,%eax
   1059f:	89 44 24 04          	mov    %eax,0x4(%esp)
   105a3:	c7 04 24 a1 00 00 00 	movl   $0xa1,(%esp)
   105aa:	e8 84 03 00 00       	call   10933 <Out_Byte>
   105af:	66 89 1d 00 40 02 00 	mov    %bx,0x24000
   105b6:	83 c4 14             	add    $0x14,%esp
   105b9:	5b                   	pop    %ebx
   105ba:	5d                   	pop    %ebp
   105bb:	c3                   	ret    

000105bc <Enable_IRQ>:
   105bc:	55                   	push   %ebp
   105bd:	89 e5                	mov    %esp,%ebp
   105bf:	56                   	push   %esi
   105c0:	53                   	push   %ebx
   105c1:	83 ec 20             	sub    $0x20,%esp
   105c4:	8b 75 08             	mov    0x8(%ebp),%esi
   105c7:	e8 73 fc ff ff       	call   1023f <Interrupts_Enabled>
   105cc:	89 c3                	mov    %eax,%ebx
   105ce:	84 c0                	test   %al,%al
   105d0:	74 54                	je     10626 <Enable_IRQ+0x6a>
   105d2:	e8 68 fc ff ff       	call   1023f <Interrupts_Enabled>
   105d7:	84 c0                	test   %al,%al
   105d9:	75 4a                	jne    10625 <Enable_IRQ+0x69>
   105db:	c7 04 24 4f 00 00 00 	movl   $0x4f,(%esp)
   105e2:	e8 d4 0b 00 00       	call   111bb <Set_Current_Attr>
   105e7:	a1 6c 5e 02 00       	mov    0x25e6c,%eax
   105ec:	89 44 24 18          	mov    %eax,0x18(%esp)
   105f0:	8b 45 04             	mov    0x4(%ebp),%eax
   105f3:	89 44 24 14          	mov    %eax,0x14(%esp)
   105f7:	c7 44 24 10 8f 00 00 	movl   $0x8f,0x10(%esp)
   105fe:	00 
   105ff:	c7 44 24 0c 7e f1 01 	movl   $0x1f17e,0xc(%esp)
   10606:	00 
   10607:	c7 44 24 08 d3 ef 01 	movl   $0x1efd3,0x8(%esp)
   1060e:	00 
   1060f:	c7 44 24 04 da f1 01 	movl   $0x1f1da,0x4(%esp)
   10616:	00 
   10617:	c7 04 24 b4 ee 01 00 	movl   $0x1eeb4,(%esp)
   1061e:	e8 43 0a 00 00       	call   11066 <Print>
   10623:	eb fe                	jmp    10623 <Enable_IRQ+0x67>
   10625:	fa                   	cli    
   10626:	83 fe 0f             	cmp    $0xf,%esi
   10629:	76 4a                	jbe    10675 <Enable_IRQ+0xb9>
   1062b:	c7 04 24 4f 00 00 00 	movl   $0x4f,(%esp)
   10632:	e8 84 0b 00 00       	call   111bb <Set_Current_Attr>
   10637:	a1 6c 5e 02 00       	mov    0x25e6c,%eax
   1063c:	89 44 24 18          	mov    %eax,0x18(%esp)
   10640:	8b 45 04             	mov    0x4(%ebp),%eax
   10643:	89 44 24 14          	mov    %eax,0x14(%esp)
   10647:	c7 44 24 10 54 00 00 	movl   $0x54,0x10(%esp)
   1064e:	00 
   1064f:	c7 44 24 0c 96 f1 01 	movl   $0x1f196,0xc(%esp)
   10656:	00 
   10657:	c7 44 24 08 aa f1 01 	movl   $0x1f1aa,0x8(%esp)
   1065e:	00 
   1065f:	c7 44 24 04 eb f1 01 	movl   $0x1f1eb,0x4(%esp)
   10666:	00 
   10667:	c7 04 24 b4 ee 01 00 	movl   $0x1eeb4,(%esp)
   1066e:	e8 f3 09 00 00       	call   11066 <Print>
   10673:	eb fe                	jmp    10673 <Enable_IRQ+0xb7>
   10675:	b8 fe ff ff ff       	mov    $0xfffffffe,%eax
   1067a:	89 f1                	mov    %esi,%ecx
   1067c:	d3 c0                	rol    %cl,%eax
   1067e:	66 23 05 00 40 02 00 	and    0x24000,%ax
   10685:	0f b7 c0             	movzwl %ax,%eax
   10688:	89 04 24             	mov    %eax,(%esp)
   1068b:	e8 d9 fe ff ff       	call   10569 <Set_IRQ_Mask>
   10690:	e8 aa fb ff ff       	call   1023f <Interrupts_Enabled>
   10695:	84 c0                	test   %al,%al
   10697:	74 4a                	je     106e3 <Enable_IRQ+0x127>
   10699:	c7 04 24 4f 00 00 00 	movl   $0x4f,(%esp)
   106a0:	e8 16 0b 00 00       	call   111bb <Set_Current_Attr>
   106a5:	a1 6c 5e 02 00       	mov    0x25e6c,%eax
   106aa:	89 44 24 18          	mov    %eax,0x18(%esp)
   106ae:	8b 45 04             	mov    0x4(%ebp),%eax
   106b1:	89 44 24 14          	mov    %eax,0x14(%esp)
   106b5:	c7 44 24 10 99 00 00 	movl   $0x99,0x10(%esp)
   106bc:	00 
   106bd:	c7 44 24 0c 7e f1 01 	movl   $0x1f17e,0xc(%esp)
   106c4:	00 
   106c5:	c7 44 24 08 d2 ef 01 	movl   $0x1efd2,0x8(%esp)
   106cc:	00 
   106cd:	c7 44 24 04 cb f1 01 	movl   $0x1f1cb,0x4(%esp)
   106d4:	00 
   106d5:	c7 04 24 b4 ee 01 00 	movl   $0x1eeb4,(%esp)
   106dc:	e8 85 09 00 00       	call   11066 <Print>
   106e1:	eb fe                	jmp    106e1 <Enable_IRQ+0x125>
   106e3:	84 db                	test   %bl,%bl
   106e5:	74 5d                	je     10744 <Enable_IRQ+0x188>
   106e7:	89 f6                	mov    %esi,%esi
   106e9:	8d bc 27 00 00 00 00 	lea    0x0(%edi,%eiz,1),%edi
   106f0:	e8 4a fb ff ff       	call   1023f <Interrupts_Enabled>
   106f5:	84 c0                	test   %al,%al
   106f7:	74 4a                	je     10743 <Enable_IRQ+0x187>
   106f9:	c7 04 24 4f 00 00 00 	movl   $0x4f,(%esp)
   10700:	e8 b6 0a 00 00       	call   111bb <Set_Current_Attr>
   10705:	a1 6c 5e 02 00       	mov    0x25e6c,%eax
   1070a:	89 44 24 18          	mov    %eax,0x18(%esp)
   1070e:	8b 45 04             	mov    0x4(%ebp),%eax
   10711:	89 44 24 14          	mov    %eax,0x14(%esp)
   10715:	c7 44 24 10 9c 00 00 	movl   $0x9c,0x10(%esp)
   1071c:	00 
   1071d:	c7 44 24 0c 7e f1 01 	movl   $0x1f17e,0xc(%esp)
   10724:	00 
   10725:	c7 44 24 08 d2 ef 01 	movl   $0x1efd2,0x8(%esp)
   1072c:	00 
   1072d:	c7 44 24 04 cb f1 01 	movl   $0x1f1cb,0x4(%esp)
   10734:	00 
   10735:	c7 04 24 b4 ee 01 00 	movl   $0x1eeb4,(%esp)
   1073c:	e8 25 09 00 00       	call   11066 <Print>
   10741:	eb fe                	jmp    10741 <Enable_IRQ+0x185>
   10743:	fb                   	sti    
   10744:	83 c4 20             	add    $0x20,%esp
   10747:	5b                   	pop    %ebx
   10748:	5e                   	pop    %esi
   10749:	5d                   	pop    %ebp
   1074a:	c3                   	ret    

0001074b <Disable_IRQ>:
   1074b:	55                   	push   %ebp
   1074c:	89 e5                	mov    %esp,%ebp
   1074e:	56                   	push   %esi
   1074f:	53                   	push   %ebx
   10750:	83 ec 20             	sub    $0x20,%esp
   10753:	8b 75 08             	mov    0x8(%ebp),%esi
   10756:	e8 e4 fa ff ff       	call   1023f <Interrupts_Enabled>
   1075b:	89 c3                	mov    %eax,%ebx
   1075d:	84 c0                	test   %al,%al
   1075f:	74 54                	je     107b5 <Disable_IRQ+0x6a>
   10761:	e8 d9 fa ff ff       	call   1023f <Interrupts_Enabled>
   10766:	84 c0                	test   %al,%al
   10768:	75 4a                	jne    107b4 <Disable_IRQ+0x69>
   1076a:	c7 04 24 4f 00 00 00 	movl   $0x4f,(%esp)
   10771:	e8 45 0a 00 00       	call   111bb <Set_Current_Attr>
   10776:	a1 6c 5e 02 00       	mov    0x25e6c,%eax
   1077b:	89 44 24 18          	mov    %eax,0x18(%esp)
   1077f:	8b 45 04             	mov    0x4(%ebp),%eax
   10782:	89 44 24 14          	mov    %eax,0x14(%esp)
   10786:	c7 44 24 10 8f 00 00 	movl   $0x8f,0x10(%esp)
   1078d:	00 
   1078e:	c7 44 24 0c 7e f1 01 	movl   $0x1f17e,0xc(%esp)
   10795:	00 
   10796:	c7 44 24 08 d3 ef 01 	movl   $0x1efd3,0x8(%esp)
   1079d:	00 
   1079e:	c7 44 24 04 da f1 01 	movl   $0x1f1da,0x4(%esp)
   107a5:	00 
   107a6:	c7 04 24 b4 ee 01 00 	movl   $0x1eeb4,(%esp)
   107ad:	e8 b4 08 00 00       	call   11066 <Print>
   107b2:	eb fe                	jmp    107b2 <Disable_IRQ+0x67>
   107b4:	fa                   	cli    
   107b5:	83 fe 0f             	cmp    $0xf,%esi
   107b8:	76 4a                	jbe    10804 <Disable_IRQ+0xb9>
   107ba:	c7 04 24 4f 00 00 00 	movl   $0x4f,(%esp)
   107c1:	e8 f5 09 00 00       	call   111bb <Set_Current_Attr>
   107c6:	a1 6c 5e 02 00       	mov    0x25e6c,%eax
   107cb:	89 44 24 18          	mov    %eax,0x18(%esp)
   107cf:	8b 45 04             	mov    0x4(%ebp),%eax
   107d2:	89 44 24 14          	mov    %eax,0x14(%esp)
   107d6:	c7 44 24 10 63 00 00 	movl   $0x63,0x10(%esp)
   107dd:	00 
   107de:	c7 44 24 0c 96 f1 01 	movl   $0x1f196,0xc(%esp)
   107e5:	00 
   107e6:	c7 44 24 08 aa f1 01 	movl   $0x1f1aa,0x8(%esp)
   107ed:	00 
   107ee:	c7 44 24 04 bf f1 01 	movl   $0x1f1bf,0x4(%esp)
   107f5:	00 
   107f6:	c7 04 24 b4 ee 01 00 	movl   $0x1eeb4,(%esp)
   107fd:	e8 64 08 00 00       	call   11066 <Print>
   10802:	eb fe                	jmp    10802 <Disable_IRQ+0xb7>
   10804:	b8 01 00 00 00       	mov    $0x1,%eax
   10809:	89 f1                	mov    %esi,%ecx
   1080b:	d3 e0                	shl    %cl,%eax
   1080d:	66 0b 05 00 40 02 00 	or     0x24000,%ax
   10814:	0f b7 c0             	movzwl %ax,%eax
   10817:	89 04 24             	mov    %eax,(%esp)
   1081a:	e8 4a fd ff ff       	call   10569 <Set_IRQ_Mask>
   1081f:	e8 1b fa ff ff       	call   1023f <Interrupts_Enabled>
   10824:	84 c0                	test   %al,%al
   10826:	74 4a                	je     10872 <Disable_IRQ+0x127>
   10828:	c7 04 24 4f 00 00 00 	movl   $0x4f,(%esp)
   1082f:	e8 87 09 00 00       	call   111bb <Set_Current_Attr>
   10834:	a1 6c 5e 02 00       	mov    0x25e6c,%eax
   10839:	89 44 24 18          	mov    %eax,0x18(%esp)
   1083d:	8b 45 04             	mov    0x4(%ebp),%eax
   10840:	89 44 24 14          	mov    %eax,0x14(%esp)
   10844:	c7 44 24 10 99 00 00 	movl   $0x99,0x10(%esp)
   1084b:	00 
   1084c:	c7 44 24 0c 7e f1 01 	movl   $0x1f17e,0xc(%esp)
   10853:	00 
   10854:	c7 44 24 08 d2 ef 01 	movl   $0x1efd2,0x8(%esp)
   1085b:	00 
   1085c:	c7 44 24 04 cb f1 01 	movl   $0x1f1cb,0x4(%esp)
   10863:	00 
   10864:	c7 04 24 b4 ee 01 00 	movl   $0x1eeb4,(%esp)
   1086b:	e8 f6 07 00 00       	call   11066 <Print>
   10870:	eb fe                	jmp    10870 <Disable_IRQ+0x125>
   10872:	84 db                	test   %bl,%bl
   10874:	74 57                	je     108cd <Disable_IRQ+0x182>
   10876:	e8 c4 f9 ff ff       	call   1023f <Interrupts_Enabled>
   1087b:	84 c0                	test   %al,%al
   1087d:	8d 76 00             	lea    0x0(%esi),%esi
   10880:	74 4a                	je     108cc <Disable_IRQ+0x181>
   10882:	c7 04 24 4f 00 00 00 	movl   $0x4f,(%esp)
   10889:	e8 2d 09 00 00       	call   111bb <Set_Current_Attr>
   1088e:	a1 6c 5e 02 00       	mov    0x25e6c,%eax
   10893:	89 44 24 18          	mov    %eax,0x18(%esp)
   10897:	8b 45 04             	mov    0x4(%ebp),%eax
   1089a:	89 44 24 14          	mov    %eax,0x14(%esp)
   1089e:	c7 44 24 10 9c 00 00 	movl   $0x9c,0x10(%esp)
   108a5:	00 
   108a6:	c7 44 24 0c 7e f1 01 	movl   $0x1f17e,0xc(%esp)
   108ad:	00 
   108ae:	c7 44 24 08 d2 ef 01 	movl   $0x1efd2,0x8(%esp)
   108b5:	00 
   108b6:	c7 44 24 04 cb f1 01 	movl   $0x1f1cb,0x4(%esp)
   108bd:	00 
   108be:	c7 04 24 b4 ee 01 00 	movl   $0x1eeb4,(%esp)
   108c5:	e8 9c 07 00 00       	call   11066 <Print>
   108ca:	eb fe                	jmp    108ca <Disable_IRQ+0x17f>
   108cc:	fb                   	sti    
   108cd:	83 c4 20             	add    $0x20,%esp
   108d0:	5b                   	pop    %ebx
   108d1:	5e                   	pop    %esi
   108d2:	5d                   	pop    %ebp
   108d3:	c3                   	ret    

000108d4 <Begin_IRQ>:
   108d4:	55                   	push   %ebp
   108d5:	89 e5                	mov    %esp,%ebp
   108d7:	5d                   	pop    %ebp
   108d8:	c3                   	ret    

000108d9 <End_IRQ>:
   108d9:	55                   	push   %ebp
   108da:	89 e5                	mov    %esp,%ebp
   108dc:	83 ec 18             	sub    $0x18,%esp
   108df:	8b 45 08             	mov    0x8(%ebp),%eax
   108e2:	8b 40 2c             	mov    0x2c(%eax),%eax
   108e5:	83 e8 20             	sub    $0x20,%eax
   108e8:	89 c2                	mov    %eax,%edx
   108ea:	83 e2 07             	and    $0x7,%edx
   108ed:	83 ca 60             	or     $0x60,%edx
   108f0:	83 f8 07             	cmp    $0x7,%eax
   108f3:	7f 15                	jg     1090a <End_IRQ+0x31>
   108f5:	0f b6 d2             	movzbl %dl,%edx
   108f8:	89 54 24 04          	mov    %edx,0x4(%esp)
   108fc:	c7 04 24 20 00 00 00 	movl   $0x20,(%esp)
   10903:	e8 2b 00 00 00       	call   10933 <Out_Byte>
   10908:	eb 27                	jmp    10931 <End_IRQ+0x58>
   1090a:	0f b6 d2             	movzbl %dl,%edx
   1090d:	89 54 24 04          	mov    %edx,0x4(%esp)
   10911:	c7 04 24 a0 00 00 00 	movl   $0xa0,(%esp)
   10918:	e8 16 00 00 00       	call   10933 <Out_Byte>
   1091d:	c7 44 24 04 62 00 00 	movl   $0x62,0x4(%esp)
   10924:	00 
   10925:	c7 04 24 20 00 00 00 	movl   $0x20,(%esp)
   1092c:	e8 02 00 00 00       	call   10933 <Out_Byte>
   10931:	c9                   	leave  
   10932:	c3                   	ret    

00010933 <Out_Byte>:
   10933:	55                   	push   %ebp
   10934:	89 e5                	mov    %esp,%ebp
   10936:	8b 45 0c             	mov    0xc(%ebp),%eax
   10939:	8b 55 08             	mov    0x8(%ebp),%edx
   1093c:	ee                   	out    %al,(%dx)
   1093d:	5d                   	pop    %ebp
   1093e:	c3                   	ret    

0001093f <In_Byte>:
   1093f:	55                   	push   %ebp
   10940:	89 e5                	mov    %esp,%ebp
   10942:	8b 55 08             	mov    0x8(%ebp),%edx
   10945:	ec                   	in     (%dx),%al
   10946:	5d                   	pop    %ebp
   10947:	c3                   	ret    

00010948 <Out_Word>:
   10948:	55                   	push   %ebp
   10949:	89 e5                	mov    %esp,%ebp
   1094b:	8b 45 0c             	mov    0xc(%ebp),%eax
   1094e:	8b 55 08             	mov    0x8(%ebp),%edx
   10951:	66 ef                	out    %ax,(%dx)
   10953:	5d                   	pop    %ebp
   10954:	c3                   	ret    

00010955 <In_Word>:
   10955:	55                   	push   %ebp
   10956:	89 e5                	mov    %esp,%ebp
   10958:	8b 55 08             	mov    0x8(%ebp),%edx
   1095b:	66 ed                	in     (%dx),%ax
   1095d:	5d                   	pop    %ebp
   1095e:	c3                   	ret    

0001095f <IO_Delay>:
   1095f:	55                   	push   %ebp
   10960:	89 e5                	mov    %esp,%ebp
   10962:	b8 00 00 00 00       	mov    $0x0,%eax
   10967:	e6 80                	out    %al,$0x80
   10969:	5d                   	pop    %ebp
   1096a:	c3                   	ret    
   1096b:	66 90                	xchg   %ax,%ax
   1096d:	66 90                	xchg   %ax,%ax
   1096f:	90                   	nop

00010970 <Keyboard_Interrupt_Handler>:
   10970:	55                   	push   %ebp
   10971:	89 e5                	mov    %esp,%ebp
   10973:	57                   	push   %edi
   10974:	56                   	push   %esi
   10975:	53                   	push   %ebx
   10976:	83 ec 1c             	sub    $0x1c,%esp
   10979:	8b 5d 08             	mov    0x8(%ebp),%ebx
   1097c:	89 1c 24             	mov    %ebx,(%esp)
   1097f:	e8 50 ff ff ff       	call   108d4 <Begin_IRQ>
   10984:	c7 04 24 64 00 00 00 	movl   $0x64,(%esp)
   1098b:	e8 af ff ff ff       	call   1093f <In_Byte>
   10990:	89 c6                	mov    %eax,%esi
   10992:	e8 c8 ff ff ff       	call   1095f <IO_Delay>
   10997:	f7 c6 01 00 00 00    	test   $0x1,%esi
   1099d:	0f 84 3c 01 00 00    	je     10adf <Keyboard_Interrupt_Handler+0x16f>
   109a3:	c7 04 24 60 00 00 00 	movl   $0x60,(%esp)
   109aa:	e8 90 ff ff ff       	call   1093f <In_Byte>
   109af:	89 c6                	mov    %eax,%esi
   109b1:	e8 a9 ff ff ff       	call   1095f <IO_Delay>
   109b6:	c6 45 e7 00          	movb   $0x0,-0x19(%ebp)
   109ba:	89 f0                	mov    %esi,%eax
   109bc:	84 c0                	test   %al,%al
   109be:	79 07                	jns    109c7 <Keyboard_Interrupt_Handler+0x57>
   109c0:	83 e6 7f             	and    $0x7f,%esi
   109c3:	c6 45 e7 01          	movb   $0x1,-0x19(%ebp)
   109c7:	89 f0                	mov    %esi,%eax
   109c9:	3c 57                	cmp    $0x57,%al
   109cb:	76 18                	jbe    109e5 <Keyboard_Interrupt_Handler+0x75>
   109cd:	0f b6 f0             	movzbl %al,%esi
   109d0:	89 74 24 04          	mov    %esi,0x4(%esp)
   109d4:	c7 04 24 f6 f1 01 00 	movl   $0x1f1f6,(%esp)
   109db:	e8 86 06 00 00       	call   11066 <Print>
   109e0:	e9 fa 00 00 00       	jmp    10adf <Keyboard_Interrupt_Handler+0x16f>
   109e5:	8b 15 60 4b 02 00    	mov    0x24b60,%edx
   109eb:	f6 c2 03             	test   $0x3,%dl
   109ee:	0f 95 c0             	setne  %al
   109f1:	89 c7                	mov    %eax,%edi
   109f3:	74 0f                	je     10a04 <Keyboard_Interrupt_Handler+0x94>
   109f5:	89 f0                	mov    %esi,%eax
   109f7:	0f b6 f0             	movzbl %al,%esi
   109fa:	0f b7 84 36 c0 f2 01 	movzwl 0x1f2c0(%esi,%esi,1),%eax
   10a01:	00 
   10a02:	eb 0d                	jmp    10a11 <Keyboard_Interrupt_Handler+0xa1>
   10a04:	89 f0                	mov    %esi,%eax
   10a06:	0f b6 f0             	movzbl %al,%esi
   10a09:	0f b7 84 36 80 f3 01 	movzwl 0x1f380(%esi,%esi,1),%eax
   10a10:	00 
   10a11:	8d b0 f3 fe ff ff    	lea    -0x10d(%eax),%esi
   10a17:	66 83 fe 05          	cmp    $0x5,%si
   10a1b:	77 4e                	ja     10a6b <Keyboard_Interrupt_Handler+0xfb>
   10a1d:	0f b7 f6             	movzwl %si,%esi
   10a20:	ff 24 b5 60 f2 01 00 	jmp    *0x1f260(,%esi,4)
   10a27:	b8 01 00 00 00       	mov    $0x1,%eax
   10a2c:	eb 21                	jmp    10a4f <Keyboard_Interrupt_Handler+0xdf>
   10a2e:	b8 04 00 00 00       	mov    $0x4,%eax
   10a33:	eb 1a                	jmp    10a4f <Keyboard_Interrupt_Handler+0xdf>
   10a35:	b8 08 00 00 00       	mov    $0x8,%eax
   10a3a:	eb 13                	jmp    10a4f <Keyboard_Interrupt_Handler+0xdf>
   10a3c:	b8 10 00 00 00       	mov    $0x10,%eax
   10a41:	eb 0c                	jmp    10a4f <Keyboard_Interrupt_Handler+0xdf>
   10a43:	b8 20 00 00 00       	mov    $0x20,%eax
   10a48:	eb 05                	jmp    10a4f <Keyboard_Interrupt_Handler+0xdf>
   10a4a:	b8 02 00 00 00       	mov    $0x2,%eax
   10a4f:	80 7d e7 00          	cmpb   $0x0,-0x19(%ebp)
   10a53:	74 0c                	je     10a61 <Keyboard_Interrupt_Handler+0xf1>
   10a55:	f7 d0                	not    %eax
   10a57:	21 c2                	and    %eax,%edx
   10a59:	89 15 60 4b 02 00    	mov    %edx,0x24b60
   10a5f:	eb 7e                	jmp    10adf <Keyboard_Interrupt_Handler+0x16f>
   10a61:	09 c2                	or     %eax,%edx
   10a63:	89 15 60 4b 02 00    	mov    %edx,0x24b60
   10a69:	eb 74                	jmp    10adf <Keyboard_Interrupt_Handler+0x16f>
   10a6b:	89 c6                	mov    %eax,%esi
   10a6d:	66 81 ce 00 10       	or     $0x1000,%si
   10a72:	89 f9                	mov    %edi,%ecx
   10a74:	84 c9                	test   %cl,%cl
   10a76:	0f 45 c6             	cmovne %esi,%eax
   10a79:	89 d7                	mov    %edx,%edi
   10a7b:	83 e7 0c             	and    $0xc,%edi
   10a7e:	89 c6                	mov    %eax,%esi
   10a80:	66 81 ce 00 40       	or     $0x4000,%si
   10a85:	85 ff                	test   %edi,%edi
   10a87:	0f 45 c6             	cmovne %esi,%eax
   10a8a:	83 e2 30             	and    $0x30,%edx
   10a8d:	89 c6                	mov    %eax,%esi
   10a8f:	66 81 ce 00 20       	or     $0x2000,%si
   10a94:	85 d2                	test   %edx,%edx
   10a96:	0f 45 c6             	cmovne %esi,%eax
   10a99:	89 c2                	mov    %eax,%edx
   10a9b:	66 81 ca 00 80       	or     $0x8000,%dx
   10aa0:	80 7d e7 00          	cmpb   $0x0,-0x19(%ebp)
   10aa4:	0f 45 c2             	cmovne %edx,%eax
   10aa7:	8b 0d 48 49 02 00    	mov    0x24948,%ecx
   10aad:	8d 51 01             	lea    0x1(%ecx),%edx
   10ab0:	0f b6 d2             	movzbl %dl,%edx
   10ab3:	3b 15 4c 49 02 00    	cmp    0x2494c,%edx
   10ab9:	74 0e                	je     10ac9 <Keyboard_Interrupt_Handler+0x159>
   10abb:	66 89 84 09 60 49 02 	mov    %ax,0x24960(%ecx,%ecx,1)
   10ac2:	00 
   10ac3:	89 15 48 49 02 00    	mov    %edx,0x24948
   10ac9:	c7 04 24 40 49 02 00 	movl   $0x24940,(%esp)
   10ad0:	e8 90 58 00 00       	call   16365 <Wake_Up>
   10ad5:	c7 05 70 5e 02 00 01 	movl   $0x1,0x25e70
   10adc:	00 00 00 
   10adf:	89 1c 24             	mov    %ebx,(%esp)
   10ae2:	e8 f2 fd ff ff       	call   108d9 <End_IRQ>
   10ae7:	83 c4 1c             	add    $0x1c,%esp
   10aea:	5b                   	pop    %ebx
   10aeb:	5e                   	pop    %esi
   10aec:	5f                   	pop    %edi
   10aed:	5d                   	pop    %ebp
   10aee:	c3                   	ret    

00010aef <Init_Keyboard>:
   10aef:	55                   	push   %ebp
   10af0:	89 e5                	mov    %esp,%ebp
   10af2:	83 ec 18             	sub    $0x18,%esp
   10af5:	c7 04 24 0d f2 01 00 	movl   $0x1f20d,(%esp)
   10afc:	e8 65 05 00 00       	call   11066 <Print>
   10b01:	c7 05 60 4b 02 00 00 	movl   $0x0,0x24b60
   10b08:	00 00 00 
   10b0b:	c7 05 48 49 02 00 00 	movl   $0x0,0x24948
   10b12:	00 00 00 
   10b15:	c7 05 4c 49 02 00 00 	movl   $0x0,0x2494c
   10b1c:	00 00 00 
   10b1f:	c7 44 24 04 70 09 01 	movl   $0x10970,0x4(%esp)
   10b26:	00 
   10b27:	c7 04 24 01 00 00 00 	movl   $0x1,(%esp)
   10b2e:	e8 0d fa ff ff       	call   10540 <Install_IRQ>
   10b33:	e8 25 fa ff ff       	call   1055d <Get_IRQ_Mask>
   10b38:	25 fd ff 00 00       	and    $0xfffd,%eax
   10b3d:	89 04 24             	mov    %eax,(%esp)
   10b40:	e8 24 fa ff ff       	call   10569 <Set_IRQ_Mask>
   10b45:	c9                   	leave  
   10b46:	c3                   	ret    

00010b47 <Read_Key>:
   10b47:	55                   	push   %ebp
   10b48:	89 e5                	mov    %esp,%ebp
   10b4a:	56                   	push   %esi
   10b4b:	53                   	push   %ebx
   10b4c:	83 ec 20             	sub    $0x20,%esp
   10b4f:	e8 eb f6 ff ff       	call   1023f <Interrupts_Enabled>
   10b54:	89 c3                	mov    %eax,%ebx
   10b56:	84 c0                	test   %al,%al
   10b58:	74 54                	je     10bae <Read_Key+0x67>
   10b5a:	e8 e0 f6 ff ff       	call   1023f <Interrupts_Enabled>
   10b5f:	84 c0                	test   %al,%al
   10b61:	75 4a                	jne    10bad <Read_Key+0x66>
   10b63:	c7 04 24 4f 00 00 00 	movl   $0x4f,(%esp)
   10b6a:	e8 4c 06 00 00       	call   111bb <Set_Current_Attr>
   10b6f:	a1 6c 5e 02 00       	mov    0x25e6c,%eax
   10b74:	89 44 24 18          	mov    %eax,0x18(%esp)
   10b78:	8b 45 04             	mov    0x4(%ebp),%eax
   10b7b:	89 44 24 14          	mov    %eax,0x14(%esp)
   10b7f:	c7 44 24 10 8f 00 00 	movl   $0x8f,0x10(%esp)
   10b86:	00 
   10b87:	c7 44 24 0c 7e f1 01 	movl   $0x1f17e,0xc(%esp)
   10b8e:	00 
   10b8f:	c7 44 24 08 d3 ef 01 	movl   $0x1efd3,0x8(%esp)
   10b96:	00 
   10b97:	c7 44 24 04 97 f2 01 	movl   $0x1f297,0x4(%esp)
   10b9e:	00 
   10b9f:	c7 04 24 b4 ee 01 00 	movl   $0x1eeb4,(%esp)
   10ba6:	e8 bb 04 00 00       	call   11066 <Print>
   10bab:	eb fe                	jmp    10bab <Read_Key+0x64>
   10bad:	fa                   	cli    
   10bae:	8b 15 4c 49 02 00    	mov    0x2494c,%edx
   10bb4:	a1 48 49 02 00       	mov    0x24948,%eax
   10bb9:	39 c2                	cmp    %eax,%edx
   10bbb:	0f 95 c1             	setne  %cl
   10bbe:	89 ce                	mov    %ecx,%esi
   10bc0:	74 67                	je     10c29 <Read_Key+0xe2>
   10bc2:	75 4a                	jne    10c0e <Read_Key+0xc7>
   10bc4:	c7 04 24 4f 00 00 00 	movl   $0x4f,(%esp)
   10bcb:	e8 eb 05 00 00       	call   111bb <Set_Current_Attr>
   10bd0:	a1 6c 5e 02 00       	mov    0x25e6c,%eax
   10bd5:	89 44 24 18          	mov    %eax,0x18(%esp)
   10bd9:	8b 45 04             	mov    0x4(%ebp),%eax
   10bdc:	89 44 24 14          	mov    %eax,0x14(%esp)
   10be0:	c7 44 24 10 97 00 00 	movl   $0x97,0x10(%esp)
   10be7:	00 
   10be8:	c7 44 24 0c 27 f2 01 	movl   $0x1f227,0xc(%esp)
   10bef:	00 
   10bf0:	c7 44 24 08 40 f2 01 	movl   $0x1f240,0x8(%esp)
   10bf7:	00 
   10bf8:	c7 44 24 04 87 f2 01 	movl   $0x1f287,0x4(%esp)
   10bff:	00 
   10c00:	c7 04 24 b4 ee 01 00 	movl   $0x1eeb4,(%esp)
   10c07:	e8 5a 04 00 00       	call   11066 <Print>
   10c0c:	eb fe                	jmp    10c0c <Read_Key+0xc5>
   10c0e:	0f b7 8c 12 60 49 02 	movzwl 0x24960(%edx,%edx,1),%ecx
   10c15:	00 
   10c16:	8d 42 01             	lea    0x1(%edx),%eax
   10c19:	25 ff 00 00 00       	and    $0xff,%eax
   10c1e:	a3 4c 49 02 00       	mov    %eax,0x2494c
   10c23:	8b 45 08             	mov    0x8(%ebp),%eax
   10c26:	66 89 08             	mov    %cx,(%eax)
   10c29:	e8 11 f6 ff ff       	call   1023f <Interrupts_Enabled>
   10c2e:	84 c0                	test   %al,%al
   10c30:	74 4a                	je     10c7c <Read_Key+0x135>
   10c32:	c7 04 24 4f 00 00 00 	movl   $0x4f,(%esp)
   10c39:	e8 7d 05 00 00       	call   111bb <Set_Current_Attr>
   10c3e:	a1 6c 5e 02 00       	mov    0x25e6c,%eax
   10c43:	89 44 24 18          	mov    %eax,0x18(%esp)
   10c47:	8b 45 04             	mov    0x4(%ebp),%eax
   10c4a:	89 44 24 14          	mov    %eax,0x14(%esp)
   10c4e:	c7 44 24 10 99 00 00 	movl   $0x99,0x10(%esp)
   10c55:	00 
   10c56:	c7 44 24 0c 7e f1 01 	movl   $0x1f17e,0xc(%esp)
   10c5d:	00 
   10c5e:	c7 44 24 08 d2 ef 01 	movl   $0x1efd2,0x8(%esp)
   10c65:	00 
   10c66:	c7 44 24 04 78 f2 01 	movl   $0x1f278,0x4(%esp)
   10c6d:	00 
   10c6e:	c7 04 24 b4 ee 01 00 	movl   $0x1eeb4,(%esp)
   10c75:	e8 ec 03 00 00       	call   11066 <Print>
   10c7a:	eb fe                	jmp    10c7a <Read_Key+0x133>
   10c7c:	84 db                	test   %bl,%bl
   10c7e:	74 54                	je     10cd4 <Read_Key+0x18d>
   10c80:	e8 ba f5 ff ff       	call   1023f <Interrupts_Enabled>
   10c85:	84 c0                	test   %al,%al
   10c87:	74 4a                	je     10cd3 <Read_Key+0x18c>
   10c89:	c7 04 24 4f 00 00 00 	movl   $0x4f,(%esp)
   10c90:	e8 26 05 00 00       	call   111bb <Set_Current_Attr>
   10c95:	a1 6c 5e 02 00       	mov    0x25e6c,%eax
   10c9a:	89 44 24 18          	mov    %eax,0x18(%esp)
   10c9e:	8b 45 04             	mov    0x4(%ebp),%eax
   10ca1:	89 44 24 14          	mov    %eax,0x14(%esp)
   10ca5:	c7 44 24 10 9c 00 00 	movl   $0x9c,0x10(%esp)
   10cac:	00 
   10cad:	c7 44 24 0c 7e f1 01 	movl   $0x1f17e,0xc(%esp)
   10cb4:	00 
   10cb5:	c7 44 24 08 d2 ef 01 	movl   $0x1efd2,0x8(%esp)
   10cbc:	00 
   10cbd:	c7 44 24 04 78 f2 01 	movl   $0x1f278,0x4(%esp)
   10cc4:	00 
   10cc5:	c7 04 24 b4 ee 01 00 	movl   $0x1eeb4,(%esp)
   10ccc:	e8 95 03 00 00       	call   11066 <Print>
   10cd1:	eb fe                	jmp    10cd1 <Read_Key+0x18a>
   10cd3:	fb                   	sti    
   10cd4:	89 f0                	mov    %esi,%eax
   10cd6:	83 c4 20             	add    $0x20,%esp
   10cd9:	5b                   	pop    %ebx
   10cda:	5e                   	pop    %esi
   10cdb:	5d                   	pop    %ebp
   10cdc:	c3                   	ret    

00010cdd <Wait_For_Key>:
   10cdd:	55                   	push   %ebp
   10cde:	89 e5                	mov    %esp,%ebp
   10ce0:	56                   	push   %esi
   10ce1:	53                   	push   %ebx
   10ce2:	83 ec 20             	sub    $0x20,%esp
   10ce5:	e8 55 f5 ff ff       	call   1023f <Interrupts_Enabled>
   10cea:	89 c3                	mov    %eax,%ebx
   10cec:	84 c0                	test   %al,%al
   10cee:	74 54                	je     10d44 <Wait_For_Key+0x67>
   10cf0:	e8 4a f5 ff ff       	call   1023f <Interrupts_Enabled>
   10cf5:	84 c0                	test   %al,%al
   10cf7:	75 4a                	jne    10d43 <Wait_For_Key+0x66>
   10cf9:	c7 04 24 4f 00 00 00 	movl   $0x4f,(%esp)
   10d00:	e8 b6 04 00 00       	call   111bb <Set_Current_Attr>
   10d05:	a1 6c 5e 02 00       	mov    0x25e6c,%eax
   10d0a:	89 44 24 18          	mov    %eax,0x18(%esp)
   10d0e:	8b 45 04             	mov    0x4(%ebp),%eax
   10d11:	89 44 24 14          	mov    %eax,0x14(%esp)
   10d15:	c7 44 24 10 8f 00 00 	movl   $0x8f,0x10(%esp)
   10d1c:	00 
   10d1d:	c7 44 24 0c 7e f1 01 	movl   $0x1f17e,0xc(%esp)
   10d24:	00 
   10d25:	c7 44 24 08 d3 ef 01 	movl   $0x1efd3,0x8(%esp)
   10d2c:	00 
   10d2d:	c7 44 24 04 97 f2 01 	movl   $0x1f297,0x4(%esp)
   10d34:	00 
   10d35:	c7 04 24 b4 ee 01 00 	movl   $0x1eeb4,(%esp)
   10d3c:	e8 25 03 00 00       	call   11066 <Print>
   10d41:	eb fe                	jmp    10d41 <Wait_For_Key+0x64>
   10d43:	fa                   	cli    
   10d44:	8b 15 4c 49 02 00    	mov    0x2494c,%edx
   10d4a:	a1 48 49 02 00       	mov    0x24948,%eax
   10d4f:	39 c2                	cmp    %eax,%edx
   10d51:	74 6c                	je     10dbf <Wait_For_Key+0xe2>
   10d53:	75 4a                	jne    10d9f <Wait_For_Key+0xc2>
   10d55:	c7 04 24 4f 00 00 00 	movl   $0x4f,(%esp)
   10d5c:	e8 5a 04 00 00       	call   111bb <Set_Current_Attr>
   10d61:	a1 6c 5e 02 00       	mov    0x25e6c,%eax
   10d66:	89 44 24 18          	mov    %eax,0x18(%esp)
   10d6a:	8b 45 04             	mov    0x4(%ebp),%eax
   10d6d:	89 44 24 14          	mov    %eax,0x14(%esp)
   10d71:	c7 44 24 10 97 00 00 	movl   $0x97,0x10(%esp)
   10d78:	00 
   10d79:	c7 44 24 0c 27 f2 01 	movl   $0x1f227,0xc(%esp)
   10d80:	00 
   10d81:	c7 44 24 08 40 f2 01 	movl   $0x1f240,0x8(%esp)
   10d88:	00 
   10d89:	c7 44 24 04 87 f2 01 	movl   $0x1f287,0x4(%esp)
   10d90:	00 
   10d91:	c7 04 24 b4 ee 01 00 	movl   $0x1eeb4,(%esp)
   10d98:	e8 c9 02 00 00       	call   11066 <Print>
   10d9d:	eb fe                	jmp    10d9d <Wait_For_Key+0xc0>
   10d9f:	0f b7 b4 12 60 49 02 	movzwl 0x24960(%edx,%edx,1),%esi
   10da6:	00 
   10da7:	8d 42 01             	lea    0x1(%edx),%eax
   10daa:	25 ff 00 00 00       	and    $0xff,%eax
   10daf:	a3 4c 49 02 00       	mov    %eax,0x2494c
   10db4:	e8 86 f4 ff ff       	call   1023f <Interrupts_Enabled>
   10db9:	84 c0                	test   %al,%al
   10dbb:	74 5d                	je     10e1a <Wait_For_Key+0x13d>
   10dbd:	eb 11                	jmp    10dd0 <Wait_For_Key+0xf3>
   10dbf:	c7 04 24 40 49 02 00 	movl   $0x24940,(%esp)
   10dc6:	e8 b9 51 00 00       	call   15f84 <Wait>
   10dcb:	e9 74 ff ff ff       	jmp    10d44 <Wait_For_Key+0x67>
   10dd0:	c7 04 24 4f 00 00 00 	movl   $0x4f,(%esp)
   10dd7:	e8 df 03 00 00       	call   111bb <Set_Current_Attr>
   10ddc:	a1 6c 5e 02 00       	mov    0x25e6c,%eax
   10de1:	89 44 24 18          	mov    %eax,0x18(%esp)
   10de5:	8b 45 04             	mov    0x4(%ebp),%eax
   10de8:	89 44 24 14          	mov    %eax,0x14(%esp)
   10dec:	c7 44 24 10 99 00 00 	movl   $0x99,0x10(%esp)
   10df3:	00 
   10df4:	c7 44 24 0c 7e f1 01 	movl   $0x1f17e,0xc(%esp)
   10dfb:	00 
   10dfc:	c7 44 24 08 d2 ef 01 	movl   $0x1efd2,0x8(%esp)
   10e03:	00 
   10e04:	c7 44 24 04 78 f2 01 	movl   $0x1f278,0x4(%esp)
   10e0b:	00 
   10e0c:	c7 04 24 b4 ee 01 00 	movl   $0x1eeb4,(%esp)
   10e13:	e8 4e 02 00 00       	call   11066 <Print>
   10e18:	eb fe                	jmp    10e18 <Wait_For_Key+0x13b>
   10e1a:	84 db                	test   %bl,%bl
   10e1c:	74 56                	je     10e74 <Wait_For_Key+0x197>
   10e1e:	66 90                	xchg   %ax,%ax
   10e20:	e8 1a f4 ff ff       	call   1023f <Interrupts_Enabled>
   10e25:	84 c0                	test   %al,%al
   10e27:	74 4a                	je     10e73 <Wait_For_Key+0x196>
   10e29:	c7 04 24 4f 00 00 00 	movl   $0x4f,(%esp)
   10e30:	e8 86 03 00 00       	call   111bb <Set_Current_Attr>
   10e35:	a1 6c 5e 02 00       	mov    0x25e6c,%eax
   10e3a:	89 44 24 18          	mov    %eax,0x18(%esp)
   10e3e:	8b 45 04             	mov    0x4(%ebp),%eax
   10e41:	89 44 24 14          	mov    %eax,0x14(%esp)
   10e45:	c7 44 24 10 9c 00 00 	movl   $0x9c,0x10(%esp)
   10e4c:	00 
   10e4d:	c7 44 24 0c 7e f1 01 	movl   $0x1f17e,0xc(%esp)
   10e54:	00 
   10e55:	c7 44 24 08 d2 ef 01 	movl   $0x1efd2,0x8(%esp)
   10e5c:	00 
   10e5d:	c7 44 24 04 78 f2 01 	movl   $0x1f278,0x4(%esp)
   10e64:	00 
   10e65:	c7 04 24 b4 ee 01 00 	movl   $0x1eeb4,(%esp)
   10e6c:	e8 f5 01 00 00       	call   11066 <Print>
   10e71:	eb fe                	jmp    10e71 <Wait_For_Key+0x194>
   10e73:	fb                   	sti    
   10e74:	89 f0                	mov    %esi,%eax
   10e76:	83 c4 20             	add    $0x20,%esp
   10e79:	5b                   	pop    %ebx
   10e7a:	5e                   	pop    %esi
   10e7b:	5d                   	pop    %ebp
   10e7c:	c3                   	ret    
   10e7d:	66 90                	xchg   %ax,%ax
   10e7f:	90                   	nop

00010e80 <Clear_To_EOL>:
   10e80:	55                   	push   %ebp
   10e81:	89 e5                	mov    %esp,%ebp
   10e83:	53                   	push   %ebx
   10e84:	8b 0d 84 4b 02 00    	mov    0x24b84,%ecx
   10e8a:	a1 80 4b 02 00       	mov    0x24b80,%eax
   10e8f:	8d 04 80             	lea    (%eax,%eax,4),%eax
   10e92:	c1 e0 05             	shl    $0x5,%eax
   10e95:	8d 94 48 00 80 0b 00 	lea    0xb8000(%eax,%ecx,2),%edx
   10e9c:	b8 4f 00 00 00       	mov    $0x4f,%eax
   10ea1:	29 c8                	sub    %ecx,%eax
   10ea3:	bb 50 00 00 00       	mov    $0x50,%ebx
   10ea8:	29 cb                	sub    %ecx,%ebx
   10eaa:	85 db                	test   %ebx,%ebx
   10eac:	7e 1c                	jle    10eca <Clear_To_EOL+0x4a>
   10eae:	0f b6 1d 90 4b 02 00 	movzbl 0x24b90,%ebx
   10eb5:	c6 02 20             	movb   $0x20,(%edx)
   10eb8:	8d 4a 02             	lea    0x2(%edx),%ecx
   10ebb:	89 ca                	mov    %ecx,%edx
   10ebd:	88 59 ff             	mov    %bl,-0x1(%ecx)
   10ec0:	83 e8 01             	sub    $0x1,%eax
   10ec3:	8d 48 01             	lea    0x1(%eax),%ecx
   10ec6:	85 c9                	test   %ecx,%ecx
   10ec8:	7f eb                	jg     10eb5 <Clear_To_EOL+0x35>
   10eca:	5b                   	pop    %ebx
   10ecb:	5d                   	pop    %ebp
   10ecc:	c3                   	ret    

00010ecd <Newline>:
   10ecd:	55                   	push   %ebp
   10ece:	89 e5                	mov    %esp,%ebp
   10ed0:	a1 80 4b 02 00       	mov    0x24b80,%eax
   10ed5:	83 c0 01             	add    $0x1,%eax
   10ed8:	a3 80 4b 02 00       	mov    %eax,0x24b80
   10edd:	c7 05 84 4b 02 00 00 	movl   $0x0,0x24b84
   10ee4:	00 00 00 
   10ee7:	83 f8 19             	cmp    $0x19,%eax
   10eea:	75 45                	jne    10f31 <Newline+0x64>
   10eec:	0f b6 05 90 4b 02 00 	movzbl 0x24b90,%eax
   10ef3:	89 c1                	mov    %eax,%ecx
   10ef5:	c1 e1 18             	shl    $0x18,%ecx
   10ef8:	c1 e0 08             	shl    $0x8,%eax
   10efb:	09 c1                	or     %eax,%ecx
   10efd:	81 c9 20 00 20 00    	or     $0x200020,%ecx
   10f03:	b8 00 80 0b 00       	mov    $0xb8000,%eax
   10f08:	8b 90 a0 00 00 00    	mov    0xa0(%eax),%edx
   10f0e:	89 10                	mov    %edx,(%eax)
   10f10:	83 c0 04             	add    $0x4,%eax
   10f13:	3d 00 8f 0b 00       	cmp    $0xb8f00,%eax
   10f18:	75 ee                	jne    10f08 <Newline+0x3b>
   10f1a:	83 c0 04             	add    $0x4,%eax
   10f1d:	89 48 fc             	mov    %ecx,-0x4(%eax)
   10f20:	3d a0 8f 0b 00       	cmp    $0xb8fa0,%eax
   10f25:	75 f3                	jne    10f1a <Newline+0x4d>
   10f27:	c7 05 80 4b 02 00 18 	movl   $0x18,0x24b80
   10f2e:	00 00 00 
   10f31:	5d                   	pop    %ebp
   10f32:	c3                   	ret    

00010f33 <Put_Graphic_Char>:
   10f33:	8b 15 84 4b 02 00    	mov    0x24b84,%edx
   10f39:	8b 0d 80 4b 02 00    	mov    0x24b80,%ecx
   10f3f:	8d 0c 89             	lea    (%ecx,%ecx,4),%ecx
   10f42:	c1 e1 05             	shl    $0x5,%ecx
   10f45:	8d 0c 51             	lea    (%ecx,%edx,2),%ecx
   10f48:	88 81 00 80 0b 00    	mov    %al,0xb8000(%ecx)
   10f4e:	0f b6 05 90 4b 02 00 	movzbl 0x24b90,%eax
   10f55:	88 81 01 80 0b 00    	mov    %al,0xb8001(%ecx)
   10f5b:	83 fa 4e             	cmp    $0x4e,%edx
   10f5e:	7f 0a                	jg     10f6a <Put_Graphic_Char+0x37>
   10f60:	83 c2 01             	add    $0x1,%edx
   10f63:	89 15 84 4b 02 00    	mov    %edx,0x24b84
   10f69:	c3                   	ret    
   10f6a:	55                   	push   %ebp
   10f6b:	89 e5                	mov    %esp,%ebp
   10f6d:	e8 5b ff ff ff       	call   10ecd <Newline>
   10f72:	5d                   	pop    %ebp
   10f73:	c3                   	ret    

00010f74 <Move_Cursor>:
   10f74:	55                   	push   %ebp
   10f75:	89 e5                	mov    %esp,%ebp
   10f77:	83 f8 18             	cmp    $0x18,%eax
   10f7a:	b9 18 00 00 00       	mov    $0x18,%ecx
   10f7f:	0f 4f c1             	cmovg  %ecx,%eax
   10f82:	83 fa 4f             	cmp    $0x4f,%edx
   10f85:	b1 4f                	mov    $0x4f,%cl
   10f87:	0f 4f d1             	cmovg  %ecx,%edx
   10f8a:	b1 00                	mov    $0x0,%cl
   10f8c:	85 c0                	test   %eax,%eax
   10f8e:	0f 48 c1             	cmovs  %ecx,%eax
   10f91:	a3 80 4b 02 00       	mov    %eax,0x24b80
   10f96:	85 d2                	test   %edx,%edx
   10f98:	0f 49 ca             	cmovns %edx,%ecx
   10f9b:	89 0d 84 4b 02 00    	mov    %ecx,0x24b84
   10fa1:	5d                   	pop    %ebp
   10fa2:	c3                   	ret    

00010fa3 <Update_Cursor>:
   10fa3:	55                   	push   %ebp
   10fa4:	89 e5                	mov    %esp,%ebp
   10fa6:	56                   	push   %esi
   10fa7:	53                   	push   %ebx
   10fa8:	83 ec 10             	sub    $0x10,%esp
   10fab:	a1 80 4b 02 00       	mov    0x24b80,%eax
   10fb0:	8d 1c 80             	lea    (%eax,%eax,4),%ebx
   10fb3:	c1 e3 04             	shl    $0x4,%ebx
   10fb6:	03 1d 84 4b 02 00    	add    0x24b84,%ebx
   10fbc:	c7 04 24 d4 03 00 00 	movl   $0x3d4,(%esp)
   10fc3:	e8 77 f9 ff ff       	call   1093f <In_Byte>
   10fc8:	89 c6                	mov    %eax,%esi
   10fca:	e8 90 f9 ff ff       	call   1095f <IO_Delay>
   10fcf:	c7 44 24 04 0e 00 00 	movl   $0xe,0x4(%esp)
   10fd6:	00 
   10fd7:	c7 04 24 d4 03 00 00 	movl   $0x3d4,(%esp)
   10fde:	e8 50 f9 ff ff       	call   10933 <Out_Byte>
   10fe3:	e8 77 f9 ff ff       	call   1095f <IO_Delay>
   10fe8:	0f b6 c7             	movzbl %bh,%eax
   10feb:	89 44 24 04          	mov    %eax,0x4(%esp)
   10fef:	c7 04 24 d5 03 00 00 	movl   $0x3d5,(%esp)
   10ff6:	e8 38 f9 ff ff       	call   10933 <Out_Byte>
   10ffb:	e8 5f f9 ff ff       	call   1095f <IO_Delay>
   11000:	c7 44 24 04 0f 00 00 	movl   $0xf,0x4(%esp)
   11007:	00 
   11008:	c7 04 24 d4 03 00 00 	movl   $0x3d4,(%esp)
   1100f:	e8 1f f9 ff ff       	call   10933 <Out_Byte>
   11014:	e8 46 f9 ff ff       	call   1095f <IO_Delay>
   11019:	0f b6 db             	movzbl %bl,%ebx
   1101c:	89 5c 24 04          	mov    %ebx,0x4(%esp)
   11020:	c7 04 24 d5 03 00 00 	movl   $0x3d5,(%esp)
   11027:	e8 07 f9 ff ff       	call   10933 <Out_Byte>
   1102c:	e8 2e f9 ff ff       	call   1095f <IO_Delay>
   11031:	89 f0                	mov    %esi,%eax
   11033:	0f b6 f0             	movzbl %al,%esi
   11036:	89 74 24 04          	mov    %esi,0x4(%esp)
   1103a:	c7 04 24 d4 03 00 00 	movl   $0x3d4,(%esp)
   11041:	e8 ed f8 ff ff       	call   10933 <Out_Byte>
   11046:	83 c4 10             	add    $0x10,%esp
   11049:	5b                   	pop    %ebx
   1104a:	5e                   	pop    %esi
   1104b:	5d                   	pop    %ebp
   1104c:	c3                   	ret    

0001104d <Print_Finish>:
   1104d:	55                   	push   %ebp
   1104e:	89 e5                	mov    %esp,%ebp
   11050:	83 ec 08             	sub    $0x8,%esp
   11053:	e8 4b ff ff ff       	call   10fa3 <Update_Cursor>
   11058:	c9                   	leave  
   11059:	c3                   	ret    

0001105a <Get_Current_Attr>:
   1105a:	55                   	push   %ebp
   1105b:	89 e5                	mov    %esp,%ebp
   1105d:	0f b6 05 90 4b 02 00 	movzbl 0x24b90,%eax
   11064:	5d                   	pop    %ebp
   11065:	c3                   	ret    

00011066 <Print>:
   11066:	55                   	push   %ebp
   11067:	89 e5                	mov    %esp,%ebp
   11069:	53                   	push   %ebx
   1106a:	83 ec 24             	sub    $0x24,%esp
   1106d:	8b 5d 08             	mov    0x8(%ebp),%ebx
   11070:	e8 ca f1 ff ff       	call   1023f <Interrupts_Enabled>
   11075:	84 c0                	test   %al,%al
   11077:	0f 84 14 01 00 00    	je     11191 <Print+0x12b>
   1107d:	e8 bd f1 ff ff       	call   1023f <Interrupts_Enabled>
   11082:	84 c0                	test   %al,%al
   11084:	75 4a                	jne    110d0 <Print+0x6a>
   11086:	c7 04 24 4f 00 00 00 	movl   $0x4f,(%esp)
   1108d:	e8 29 01 00 00       	call   111bb <Set_Current_Attr>
   11092:	a1 6c 5e 02 00       	mov    0x25e6c,%eax
   11097:	89 44 24 18          	mov    %eax,0x18(%esp)
   1109b:	8b 45 04             	mov    0x4(%ebp),%eax
   1109e:	89 44 24 14          	mov    %eax,0x14(%esp)
   110a2:	c7 44 24 10 8f 00 00 	movl   $0x8f,0x10(%esp)
   110a9:	00 
   110aa:	c7 44 24 0c 7e f1 01 	movl   $0x1f17e,0xc(%esp)
   110b1:	00 
   110b2:	c7 44 24 08 d3 ef 01 	movl   $0x1efd3,0x8(%esp)
   110b9:	00 
   110ba:	c7 44 24 04 8c f5 01 	movl   $0x1f58c,0x4(%esp)
   110c1:	00 
   110c2:	c7 04 24 b4 ee 01 00 	movl   $0x1eeb4,(%esp)
   110c9:	e8 98 ff ff ff       	call   11066 <Print>
   110ce:	eb fe                	jmp    110ce <Print+0x68>
   110d0:	fa                   	cli    
   110d1:	8d 45 0c             	lea    0xc(%ebp),%eax
   110d4:	89 44 24 08          	mov    %eax,0x8(%esp)
   110d8:	89 5c 24 04          	mov    %ebx,0x4(%esp)
   110dc:	c7 04 24 04 40 02 00 	movl   $0x24004,(%esp)
   110e3:	e8 18 d1 00 00       	call   1e200 <Format_Output>
   110e8:	e8 52 f1 ff ff       	call   1023f <Interrupts_Enabled>
   110ed:	84 c0                	test   %al,%al
   110ef:	74 4a                	je     1113b <Print+0xd5>
   110f1:	c7 04 24 4f 00 00 00 	movl   $0x4f,(%esp)
   110f8:	e8 be 00 00 00       	call   111bb <Set_Current_Attr>
   110fd:	a1 6c 5e 02 00       	mov    0x25e6c,%eax
   11102:	89 44 24 18          	mov    %eax,0x18(%esp)
   11106:	8b 45 04             	mov    0x4(%ebp),%eax
   11109:	89 44 24 14          	mov    %eax,0x14(%esp)
   1110d:	c7 44 24 10 99 00 00 	movl   $0x99,0x10(%esp)
   11114:	00 
   11115:	c7 44 24 0c 7e f1 01 	movl   $0x1f17e,0xc(%esp)
   1111c:	00 
   1111d:	c7 44 24 08 d2 ef 01 	movl   $0x1efd2,0x8(%esp)
   11124:	00 
   11125:	c7 44 24 04 7d f5 01 	movl   $0x1f57d,0x4(%esp)
   1112c:	00 
   1112d:	c7 04 24 b4 ee 01 00 	movl   $0x1eeb4,(%esp)
   11134:	e8 2d ff ff ff       	call   11066 <Print>
   11139:	eb fe                	jmp    11139 <Print+0xd3>
   1113b:	e8 ff f0 ff ff       	call   1023f <Interrupts_Enabled>
   11140:	84 c0                	test   %al,%al
   11142:	74 4a                	je     1118e <Print+0x128>
   11144:	c7 04 24 4f 00 00 00 	movl   $0x4f,(%esp)
   1114b:	e8 6b 00 00 00       	call   111bb <Set_Current_Attr>
   11150:	a1 6c 5e 02 00       	mov    0x25e6c,%eax
   11155:	89 44 24 18          	mov    %eax,0x18(%esp)
   11159:	8b 45 04             	mov    0x4(%ebp),%eax
   1115c:	89 44 24 14          	mov    %eax,0x14(%esp)
   11160:	c7 44 24 10 9c 00 00 	movl   $0x9c,0x10(%esp)
   11167:	00 
   11168:	c7 44 24 0c 7e f1 01 	movl   $0x1f17e,0xc(%esp)
   1116f:	00 
   11170:	c7 44 24 08 d2 ef 01 	movl   $0x1efd2,0x8(%esp)
   11177:	00 
   11178:	c7 44 24 04 7d f5 01 	movl   $0x1f57d,0x4(%esp)
   1117f:	00 
   11180:	c7 04 24 b4 ee 01 00 	movl   $0x1eeb4,(%esp)
   11187:	e8 da fe ff ff       	call   11066 <Print>
   1118c:	eb fe                	jmp    1118c <Print+0x126>
   1118e:	fb                   	sti    
   1118f:	eb 24                	jmp    111b5 <Print+0x14f>
   11191:	8d 45 0c             	lea    0xc(%ebp),%eax
   11194:	89 44 24 08          	mov    %eax,0x8(%esp)
   11198:	89 5c 24 04          	mov    %ebx,0x4(%esp)
   1119c:	c7 04 24 04 40 02 00 	movl   $0x24004,(%esp)
   111a3:	e8 58 d0 00 00       	call   1e200 <Format_Output>
   111a8:	e8 92 f0 ff ff       	call   1023f <Interrupts_Enabled>
   111ad:	84 c0                	test   %al,%al
   111af:	0f 85 3c ff ff ff    	jne    110f1 <Print+0x8b>
   111b5:	83 c4 24             	add    $0x24,%esp
   111b8:	5b                   	pop    %ebx
   111b9:	5d                   	pop    %ebp
   111ba:	c3                   	ret    

000111bb <Set_Current_Attr>:
   111bb:	55                   	push   %ebp
   111bc:	89 e5                	mov    %esp,%ebp
   111be:	53                   	push   %ebx
   111bf:	83 ec 24             	sub    $0x24,%esp
   111c2:	8b 5d 08             	mov    0x8(%ebp),%ebx
   111c5:	e8 75 f0 ff ff       	call   1023f <Interrupts_Enabled>
   111ca:	84 c0                	test   %al,%al
   111cc:	0f 84 03 01 00 00    	je     112d5 <Set_Current_Attr+0x11a>
   111d2:	e8 68 f0 ff ff       	call   1023f <Interrupts_Enabled>
   111d7:	84 c0                	test   %al,%al
   111d9:	75 4a                	jne    11225 <Set_Current_Attr+0x6a>
   111db:	c7 04 24 4f 00 00 00 	movl   $0x4f,(%esp)
   111e2:	e8 d4 ff ff ff       	call   111bb <Set_Current_Attr>
   111e7:	a1 6c 5e 02 00       	mov    0x25e6c,%eax
   111ec:	89 44 24 18          	mov    %eax,0x18(%esp)
   111f0:	8b 45 04             	mov    0x4(%ebp),%eax
   111f3:	89 44 24 14          	mov    %eax,0x14(%esp)
   111f7:	c7 44 24 10 8f 00 00 	movl   $0x8f,0x10(%esp)
   111fe:	00 
   111ff:	c7 44 24 0c 7e f1 01 	movl   $0x1f17e,0xc(%esp)
   11206:	00 
   11207:	c7 44 24 08 d3 ef 01 	movl   $0x1efd3,0x8(%esp)
   1120e:	00 
   1120f:	c7 44 24 04 8c f5 01 	movl   $0x1f58c,0x4(%esp)
   11216:	00 
   11217:	c7 04 24 b4 ee 01 00 	movl   $0x1eeb4,(%esp)
   1121e:	e8 43 fe ff ff       	call   11066 <Print>
   11223:	eb fe                	jmp    11223 <Set_Current_Attr+0x68>
   11225:	fa                   	cli    
   11226:	88 1d 90 4b 02 00    	mov    %bl,0x24b90
   1122c:	e8 0e f0 ff ff       	call   1023f <Interrupts_Enabled>
   11231:	84 c0                	test   %al,%al
   11233:	74 4a                	je     1127f <Set_Current_Attr+0xc4>
   11235:	c7 04 24 4f 00 00 00 	movl   $0x4f,(%esp)
   1123c:	e8 7a ff ff ff       	call   111bb <Set_Current_Attr>
   11241:	a1 6c 5e 02 00       	mov    0x25e6c,%eax
   11246:	89 44 24 18          	mov    %eax,0x18(%esp)
   1124a:	8b 45 04             	mov    0x4(%ebp),%eax
   1124d:	89 44 24 14          	mov    %eax,0x14(%esp)
   11251:	c7 44 24 10 99 00 00 	movl   $0x99,0x10(%esp)
   11258:	00 
   11259:	c7 44 24 0c 7e f1 01 	movl   $0x1f17e,0xc(%esp)
   11260:	00 
   11261:	c7 44 24 08 d2 ef 01 	movl   $0x1efd2,0x8(%esp)
   11268:	00 
   11269:	c7 44 24 04 7d f5 01 	movl   $0x1f57d,0x4(%esp)
   11270:	00 
   11271:	c7 04 24 b4 ee 01 00 	movl   $0x1eeb4,(%esp)
   11278:	e8 e9 fd ff ff       	call   11066 <Print>
   1127d:	eb fe                	jmp    1127d <Set_Current_Attr+0xc2>
   1127f:	e8 bb ef ff ff       	call   1023f <Interrupts_Enabled>
   11284:	84 c0                	test   %al,%al
   11286:	74 4a                	je     112d2 <Set_Current_Attr+0x117>
   11288:	c7 04 24 4f 00 00 00 	movl   $0x4f,(%esp)
   1128f:	e8 27 ff ff ff       	call   111bb <Set_Current_Attr>
   11294:	a1 6c 5e 02 00       	mov    0x25e6c,%eax
   11299:	89 44 24 18          	mov    %eax,0x18(%esp)
   1129d:	8b 45 04             	mov    0x4(%ebp),%eax
   112a0:	89 44 24 14          	mov    %eax,0x14(%esp)
   112a4:	c7 44 24 10 9c 00 00 	movl   $0x9c,0x10(%esp)
   112ab:	00 
   112ac:	c7 44 24 0c 7e f1 01 	movl   $0x1f17e,0xc(%esp)
   112b3:	00 
   112b4:	c7 44 24 08 d2 ef 01 	movl   $0x1efd2,0x8(%esp)
   112bb:	00 
   112bc:	c7 44 24 04 7d f5 01 	movl   $0x1f57d,0x4(%esp)
   112c3:	00 
   112c4:	c7 04 24 b4 ee 01 00 	movl   $0x1eeb4,(%esp)
   112cb:	e8 96 fd ff ff       	call   11066 <Print>
   112d0:	eb fe                	jmp    112d0 <Set_Current_Attr+0x115>
   112d2:	fb                   	sti    
   112d3:	eb 18                	jmp    112ed <Set_Current_Attr+0x132>
   112d5:	88 1d 90 4b 02 00    	mov    %bl,0x24b90
   112db:	90                   	nop
   112dc:	8d 74 26 00          	lea    0x0(%esi,%eiz,1),%esi
   112e0:	e8 5a ef ff ff       	call   1023f <Interrupts_Enabled>
   112e5:	84 c0                	test   %al,%al
   112e7:	0f 85 48 ff ff ff    	jne    11235 <Set_Current_Attr+0x7a>
   112ed:	83 c4 24             	add    $0x24,%esp
   112f0:	5b                   	pop    %ebx
   112f1:	5d                   	pop    %ebp
   112f2:	c3                   	ret    

000112f3 <Clear_Screen>:
   112f3:	55                   	push   %ebp
   112f4:	89 e5                	mov    %esp,%ebp
   112f6:	56                   	push   %esi
   112f7:	53                   	push   %ebx
   112f8:	83 ec 20             	sub    $0x20,%esp
   112fb:	0f b6 05 90 4b 02 00 	movzbl 0x24b90,%eax
   11302:	89 c3                	mov    %eax,%ebx
   11304:	c1 e3 18             	shl    $0x18,%ebx
   11307:	c1 e0 08             	shl    $0x8,%eax
   1130a:	09 c3                	or     %eax,%ebx
   1130c:	81 cb 20 00 20 00    	or     $0x200020,%ebx
   11312:	e8 28 ef ff ff       	call   1023f <Interrupts_Enabled>
   11317:	89 c6                	mov    %eax,%esi
   11319:	84 c0                	test   %al,%al
   1131b:	0f 84 16 01 00 00    	je     11437 <Clear_Screen+0x144>
   11321:	e8 19 ef ff ff       	call   1023f <Interrupts_Enabled>
   11326:	84 c0                	test   %al,%al
   11328:	75 4a                	jne    11374 <Clear_Screen+0x81>
   1132a:	c7 04 24 4f 00 00 00 	movl   $0x4f,(%esp)
   11331:	e8 85 fe ff ff       	call   111bb <Set_Current_Attr>
   11336:	a1 6c 5e 02 00       	mov    0x25e6c,%eax
   1133b:	89 44 24 18          	mov    %eax,0x18(%esp)
   1133f:	8b 45 04             	mov    0x4(%ebp),%eax
   11342:	89 44 24 14          	mov    %eax,0x14(%esp)
   11346:	c7 44 24 10 8f 00 00 	movl   $0x8f,0x10(%esp)
   1134d:	00 
   1134e:	c7 44 24 0c 7e f1 01 	movl   $0x1f17e,0xc(%esp)
   11355:	00 
   11356:	c7 44 24 08 d3 ef 01 	movl   $0x1efd3,0x8(%esp)
   1135d:	00 
   1135e:	c7 44 24 04 8c f5 01 	movl   $0x1f58c,0x4(%esp)
   11365:	00 
   11366:	c7 04 24 b4 ee 01 00 	movl   $0x1eeb4,(%esp)
   1136d:	e8 f4 fc ff ff       	call   11066 <Print>
   11372:	eb fe                	jmp    11372 <Clear_Screen+0x7f>
   11374:	fa                   	cli    
   11375:	e9 bd 00 00 00       	jmp    11437 <Clear_Screen+0x144>
   1137a:	83 c2 04             	add    $0x4,%edx
   1137d:	89 5a fc             	mov    %ebx,-0x4(%edx)
   11380:	81 fa a0 8f 0b 00    	cmp    $0xb8fa0,%edx
   11386:	75 f2                	jne    1137a <Clear_Screen+0x87>
   11388:	e8 b2 ee ff ff       	call   1023f <Interrupts_Enabled>
   1138d:	84 c0                	test   %al,%al
   1138f:	74 4a                	je     113db <Clear_Screen+0xe8>
   11391:	c7 04 24 4f 00 00 00 	movl   $0x4f,(%esp)
   11398:	e8 1e fe ff ff       	call   111bb <Set_Current_Attr>
   1139d:	a1 6c 5e 02 00       	mov    0x25e6c,%eax
   113a2:	89 44 24 18          	mov    %eax,0x18(%esp)
   113a6:	8b 45 04             	mov    0x4(%ebp),%eax
   113a9:	89 44 24 14          	mov    %eax,0x14(%esp)
   113ad:	c7 44 24 10 99 00 00 	movl   $0x99,0x10(%esp)
   113b4:	00 
   113b5:	c7 44 24 0c 7e f1 01 	movl   $0x1f17e,0xc(%esp)
   113bc:	00 
   113bd:	c7 44 24 08 d2 ef 01 	movl   $0x1efd2,0x8(%esp)
   113c4:	00 
   113c5:	c7 44 24 04 7d f5 01 	movl   $0x1f57d,0x4(%esp)
   113cc:	00 
   113cd:	c7 04 24 b4 ee 01 00 	movl   $0x1eeb4,(%esp)
   113d4:	e8 8d fc ff ff       	call   11066 <Print>
   113d9:	eb fe                	jmp    113d9 <Clear_Screen+0xe6>
   113db:	89 f0                	mov    %esi,%eax
   113dd:	84 c0                	test   %al,%al
   113df:	74 64                	je     11445 <Clear_Screen+0x152>
   113e1:	e8 59 ee ff ff       	call   1023f <Interrupts_Enabled>
   113e6:	84 c0                	test   %al,%al
   113e8:	74 4a                	je     11434 <Clear_Screen+0x141>
   113ea:	c7 04 24 4f 00 00 00 	movl   $0x4f,(%esp)
   113f1:	e8 c5 fd ff ff       	call   111bb <Set_Current_Attr>
   113f6:	a1 6c 5e 02 00       	mov    0x25e6c,%eax
   113fb:	89 44 24 18          	mov    %eax,0x18(%esp)
   113ff:	8b 45 04             	mov    0x4(%ebp),%eax
   11402:	89 44 24 14          	mov    %eax,0x14(%esp)
   11406:	c7 44 24 10 9c 00 00 	movl   $0x9c,0x10(%esp)
   1140d:	00 
   1140e:	c7 44 24 0c 7e f1 01 	movl   $0x1f17e,0xc(%esp)
   11415:	00 
   11416:	c7 44 24 08 d2 ef 01 	movl   $0x1efd2,0x8(%esp)
   1141d:	00 
   1141e:	c7 44 24 04 7d f5 01 	movl   $0x1f57d,0x4(%esp)
   11425:	00 
   11426:	c7 04 24 b4 ee 01 00 	movl   $0x1eeb4,(%esp)
   1142d:	e8 34 fc ff ff       	call   11066 <Print>
   11432:	eb fe                	jmp    11432 <Clear_Screen+0x13f>
   11434:	fb                   	sti    
   11435:	eb 0e                	jmp    11445 <Clear_Screen+0x152>
   11437:	ba 00 80 0b 00       	mov    $0xb8000,%edx
   1143c:	8d 74 26 00          	lea    0x0(%esi,%eiz,1),%esi
   11440:	e9 35 ff ff ff       	jmp    1137a <Clear_Screen+0x87>
   11445:	83 c4 20             	add    $0x20,%esp
   11448:	5b                   	pop    %ebx
   11449:	5e                   	pop    %esi
   1144a:	5d                   	pop    %ebp
   1144b:	c3                   	ret    

0001144c <Add_Digit>:
   1144c:	8d 50 d0             	lea    -0x30(%eax),%edx
   1144f:	83 fa 09             	cmp    $0x9,%edx
   11452:	76 50                	jbe    114a4 <Add_Digit+0x58>
   11454:	55                   	push   %ebp
   11455:	89 e5                	mov    %esp,%ebp
   11457:	83 ec 28             	sub    $0x28,%esp
   1145a:	c7 04 24 4f 00 00 00 	movl   $0x4f,(%esp)
   11461:	e8 55 fd ff ff       	call   111bb <Set_Current_Attr>
   11466:	a1 6c 5e 02 00       	mov    0x25e6c,%eax
   1146b:	89 44 24 18          	mov    %eax,0x18(%esp)
   1146f:	8b 45 04             	mov    0x4(%ebp),%eax
   11472:	89 44 24 14          	mov    %eax,0x14(%esp)
   11476:	c7 44 24 10 ff 00 00 	movl   $0xff,0x10(%esp)
   1147d:	00 
   1147e:	c7 44 24 0c 30 f4 01 	movl   $0x1f430,0xc(%esp)
   11485:	00 
   11486:	c7 44 24 08 47 f4 01 	movl   $0x1f447,0x8(%esp)
   1148d:	00 
   1148e:	c7 44 24 04 66 f5 01 	movl   $0x1f566,0x4(%esp)
   11495:	00 
   11496:	c7 04 24 b4 ee 01 00 	movl   $0x1eeb4,(%esp)
   1149d:	e8 c4 fb ff ff       	call   11066 <Print>
   114a2:	eb fe                	jmp    114a2 <Add_Digit+0x56>
   114a4:	8b 15 b8 4b 02 00    	mov    0x24bb8,%edx
   114aa:	83 fa 07             	cmp    $0x7,%edx
   114ad:	7f 16                	jg     114c5 <Add_Digit+0x79>
   114af:	83 c2 03             	add    $0x3,%edx
   114b2:	6b 0c 95 88 4b 02 00 	imul   $0xa,0x24b88(,%edx,4),%ecx
   114b9:	0a 
   114ba:	8d 44 08 d0          	lea    -0x30(%eax,%ecx,1),%eax
   114be:	89 04 95 88 4b 02 00 	mov    %eax,0x24b88(,%edx,4)
   114c5:	c3                   	ret    

000114c6 <Start_Arg>:
   114c6:	8b 15 b8 4b 02 00    	mov    0x24bb8,%edx
   114cc:	39 c2                	cmp    %eax,%edx
   114ce:	74 50                	je     11520 <Start_Arg+0x5a>
   114d0:	55                   	push   %ebp
   114d1:	89 e5                	mov    %esp,%ebp
   114d3:	83 ec 28             	sub    $0x28,%esp
   114d6:	c7 04 24 4f 00 00 00 	movl   $0x4f,(%esp)
   114dd:	e8 d9 fc ff ff       	call   111bb <Set_Current_Attr>
   114e2:	a1 6c 5e 02 00       	mov    0x25e6c,%eax
   114e7:	89 44 24 18          	mov    %eax,0x18(%esp)
   114eb:	8b 45 04             	mov    0x4(%ebp),%eax
   114ee:	89 44 24 14          	mov    %eax,0x14(%esp)
   114f2:	c7 44 24 10 e7 00 00 	movl   $0xe7,0x10(%esp)
   114f9:	00 
   114fa:	c7 44 24 0c 30 f4 01 	movl   $0x1f430,0xc(%esp)
   11501:	00 
   11502:	c7 44 24 08 52 f4 01 	movl   $0x1f452,0x8(%esp)
   11509:	00 
   1150a:	c7 44 24 04 5c f5 01 	movl   $0x1f55c,0x4(%esp)
   11511:	00 
   11512:	c7 04 24 b4 ee 01 00 	movl   $0x1eeb4,(%esp)
   11519:	e8 48 fb ff ff       	call   11066 <Print>
   1151e:	eb fe                	jmp    1151e <Start_Arg+0x58>
   11520:	8d 42 01             	lea    0x1(%edx),%eax
   11523:	a3 b8 4b 02 00       	mov    %eax,0x24bb8
   11528:	c7 05 94 4b 02 00 03 	movl   $0x3,0x24b94
   1152f:	00 00 00 
   11532:	83 fa 07             	cmp    $0x7,%edx
   11535:	7f 0b                	jg     11542 <Start_Arg+0x7c>
   11537:	c7 04 95 98 4b 02 00 	movl   $0x0,0x24b98(,%edx,4)
   1153e:	00 00 00 00 
   11542:	c3                   	ret    

00011543 <Get_Cursor>:
   11543:	55                   	push   %ebp
   11544:	89 e5                	mov    %esp,%ebp
   11546:	56                   	push   %esi
   11547:	53                   	push   %ebx
   11548:	83 ec 20             	sub    $0x20,%esp
   1154b:	8b 75 08             	mov    0x8(%ebp),%esi
   1154e:	8b 5d 0c             	mov    0xc(%ebp),%ebx
   11551:	e8 e9 ec ff ff       	call   1023f <Interrupts_Enabled>
   11556:	84 c0                	test   %al,%al
   11558:	0f 84 11 01 00 00    	je     1166f <Get_Cursor+0x12c>
   1155e:	e8 dc ec ff ff       	call   1023f <Interrupts_Enabled>
   11563:	84 c0                	test   %al,%al
   11565:	75 4a                	jne    115b1 <Get_Cursor+0x6e>
   11567:	c7 04 24 4f 00 00 00 	movl   $0x4f,(%esp)
   1156e:	e8 48 fc ff ff       	call   111bb <Set_Current_Attr>
   11573:	a1 6c 5e 02 00       	mov    0x25e6c,%eax
   11578:	89 44 24 18          	mov    %eax,0x18(%esp)
   1157c:	8b 45 04             	mov    0x4(%ebp),%eax
   1157f:	89 44 24 14          	mov    %eax,0x14(%esp)
   11583:	c7 44 24 10 8f 00 00 	movl   $0x8f,0x10(%esp)
   1158a:	00 
   1158b:	c7 44 24 0c 7e f1 01 	movl   $0x1f17e,0xc(%esp)
   11592:	00 
   11593:	c7 44 24 08 d3 ef 01 	movl   $0x1efd3,0x8(%esp)
   1159a:	00 
   1159b:	c7 44 24 04 8c f5 01 	movl   $0x1f58c,0x4(%esp)
   115a2:	00 
   115a3:	c7 04 24 b4 ee 01 00 	movl   $0x1eeb4,(%esp)
   115aa:	e8 b7 fa ff ff       	call   11066 <Print>
   115af:	eb fe                	jmp    115af <Get_Cursor+0x6c>
   115b1:	fa                   	cli    
   115b2:	a1 80 4b 02 00       	mov    0x24b80,%eax
   115b7:	89 06                	mov    %eax,(%esi)
   115b9:	a1 84 4b 02 00       	mov    0x24b84,%eax
   115be:	89 03                	mov    %eax,(%ebx)
   115c0:	e8 7a ec ff ff       	call   1023f <Interrupts_Enabled>
   115c5:	84 c0                	test   %al,%al
   115c7:	74 4a                	je     11613 <Get_Cursor+0xd0>
   115c9:	c7 04 24 4f 00 00 00 	movl   $0x4f,(%esp)
   115d0:	e8 e6 fb ff ff       	call   111bb <Set_Current_Attr>
   115d5:	a1 6c 5e 02 00       	mov    0x25e6c,%eax
   115da:	89 44 24 18          	mov    %eax,0x18(%esp)
   115de:	8b 45 04             	mov    0x4(%ebp),%eax
   115e1:	89 44 24 14          	mov    %eax,0x14(%esp)
   115e5:	c7 44 24 10 99 00 00 	movl   $0x99,0x10(%esp)
   115ec:	00 
   115ed:	c7 44 24 0c 7e f1 01 	movl   $0x1f17e,0xc(%esp)
   115f4:	00 
   115f5:	c7 44 24 08 d2 ef 01 	movl   $0x1efd2,0x8(%esp)
   115fc:	00 
   115fd:	c7 44 24 04 7d f5 01 	movl   $0x1f57d,0x4(%esp)
   11604:	00 
   11605:	c7 04 24 b4 ee 01 00 	movl   $0x1eeb4,(%esp)
   1160c:	e8 55 fa ff ff       	call   11066 <Print>
   11611:	eb fe                	jmp    11611 <Get_Cursor+0xce>
   11613:	e8 27 ec ff ff       	call   1023f <Interrupts_Enabled>
   11618:	84 c0                	test   %al,%al
   1161a:	8d b6 00 00 00 00    	lea    0x0(%esi),%esi
   11620:	74 4a                	je     1166c <Get_Cursor+0x129>
   11622:	c7 04 24 4f 00 00 00 	movl   $0x4f,(%esp)
   11629:	e8 8d fb ff ff       	call   111bb <Set_Current_Attr>
   1162e:	a1 6c 5e 02 00       	mov    0x25e6c,%eax
   11633:	89 44 24 18          	mov    %eax,0x18(%esp)
   11637:	8b 45 04             	mov    0x4(%ebp),%eax
   1163a:	89 44 24 14          	mov    %eax,0x14(%esp)
   1163e:	c7 44 24 10 9c 00 00 	movl   $0x9c,0x10(%esp)
   11645:	00 
   11646:	c7 44 24 0c 7e f1 01 	movl   $0x1f17e,0xc(%esp)
   1164d:	00 
   1164e:	c7 44 24 08 d2 ef 01 	movl   $0x1efd2,0x8(%esp)
   11655:	00 
   11656:	c7 44 24 04 7d f5 01 	movl   $0x1f57d,0x4(%esp)
   1165d:	00 
   1165e:	c7 04 24 b4 ee 01 00 	movl   $0x1eeb4,(%esp)
   11665:	e8 fc f9 ff ff       	call   11066 <Print>
   1166a:	eb fe                	jmp    1166a <Get_Cursor+0x127>
   1166c:	fb                   	sti    
   1166d:	eb 1b                	jmp    1168a <Get_Cursor+0x147>
   1166f:	a1 80 4b 02 00       	mov    0x24b80,%eax
   11674:	89 06                	mov    %eax,(%esi)
   11676:	a1 84 4b 02 00       	mov    0x24b84,%eax
   1167b:	89 03                	mov    %eax,(%ebx)
   1167d:	e8 bd eb ff ff       	call   1023f <Interrupts_Enabled>
   11682:	84 c0                	test   %al,%al
   11684:	0f 85 3f ff ff ff    	jne    115c9 <Get_Cursor+0x86>
   1168a:	83 c4 20             	add    $0x20,%esp
   1168d:	5b                   	pop    %ebx
   1168e:	5e                   	pop    %esi
   1168f:	5d                   	pop    %ebp
   11690:	c3                   	ret    

00011691 <Init_Screen>:
   11691:	55                   	push   %ebp
   11692:	89 e5                	mov    %esp,%ebp
   11694:	83 ec 28             	sub    $0x28,%esp
   11697:	e8 a3 eb ff ff       	call   1023f <Interrupts_Enabled>
   1169c:	84 c0                	test   %al,%al
   1169e:	0f 84 1d 01 00 00    	je     117c1 <Init_Screen+0x130>
   116a4:	e8 96 eb ff ff       	call   1023f <Interrupts_Enabled>
   116a9:	84 c0                	test   %al,%al
   116ab:	75 4a                	jne    116f7 <Init_Screen+0x66>
   116ad:	c7 04 24 4f 00 00 00 	movl   $0x4f,(%esp)
   116b4:	e8 02 fb ff ff       	call   111bb <Set_Current_Attr>
   116b9:	a1 6c 5e 02 00       	mov    0x25e6c,%eax
   116be:	89 44 24 18          	mov    %eax,0x18(%esp)
   116c2:	8b 45 04             	mov    0x4(%ebp),%eax
   116c5:	89 44 24 14          	mov    %eax,0x14(%esp)
   116c9:	c7 44 24 10 8f 00 00 	movl   $0x8f,0x10(%esp)
   116d0:	00 
   116d1:	c7 44 24 0c 7e f1 01 	movl   $0x1f17e,0xc(%esp)
   116d8:	00 
   116d9:	c7 44 24 08 d3 ef 01 	movl   $0x1efd3,0x8(%esp)
   116e0:	00 
   116e1:	c7 44 24 04 8c f5 01 	movl   $0x1f58c,0x4(%esp)
   116e8:	00 
   116e9:	c7 04 24 b4 ee 01 00 	movl   $0x1eeb4,(%esp)
   116f0:	e8 71 f9 ff ff       	call   11066 <Print>
   116f5:	eb fe                	jmp    116f5 <Init_Screen+0x64>
   116f7:	fa                   	cli    
   116f8:	c7 05 84 4b 02 00 00 	movl   $0x0,0x24b84
   116ff:	00 00 00 
   11702:	c7 05 80 4b 02 00 00 	movl   $0x0,0x24b80
   11709:	00 00 00 
   1170c:	c6 05 90 4b 02 00 07 	movb   $0x7,0x24b90
   11713:	e8 db fb ff ff       	call   112f3 <Clear_Screen>
   11718:	e8 22 eb ff ff       	call   1023f <Interrupts_Enabled>
   1171d:	84 c0                	test   %al,%al
   1171f:	74 4a                	je     1176b <Init_Screen+0xda>
   11721:	c7 04 24 4f 00 00 00 	movl   $0x4f,(%esp)
   11728:	e8 8e fa ff ff       	call   111bb <Set_Current_Attr>
   1172d:	a1 6c 5e 02 00       	mov    0x25e6c,%eax
   11732:	89 44 24 18          	mov    %eax,0x18(%esp)
   11736:	8b 45 04             	mov    0x4(%ebp),%eax
   11739:	89 44 24 14          	mov    %eax,0x14(%esp)
   1173d:	c7 44 24 10 99 00 00 	movl   $0x99,0x10(%esp)
   11744:	00 
   11745:	c7 44 24 0c 7e f1 01 	movl   $0x1f17e,0xc(%esp)
   1174c:	00 
   1174d:	c7 44 24 08 d2 ef 01 	movl   $0x1efd2,0x8(%esp)
   11754:	00 
   11755:	c7 44 24 04 7d f5 01 	movl   $0x1f57d,0x4(%esp)
   1175c:	00 
   1175d:	c7 04 24 b4 ee 01 00 	movl   $0x1eeb4,(%esp)
   11764:	e8 fd f8 ff ff       	call   11066 <Print>
   11769:	eb fe                	jmp    11769 <Init_Screen+0xd8>
   1176b:	e8 cf ea ff ff       	call   1023f <Interrupts_Enabled>
   11770:	84 c0                	test   %al,%al
   11772:	74 4a                	je     117be <Init_Screen+0x12d>
   11774:	c7 04 24 4f 00 00 00 	movl   $0x4f,(%esp)
   1177b:	e8 3b fa ff ff       	call   111bb <Set_Current_Attr>
   11780:	a1 6c 5e 02 00       	mov    0x25e6c,%eax
   11785:	89 44 24 18          	mov    %eax,0x18(%esp)
   11789:	8b 45 04             	mov    0x4(%ebp),%eax
   1178c:	89 44 24 14          	mov    %eax,0x14(%esp)
   11790:	c7 44 24 10 9c 00 00 	movl   $0x9c,0x10(%esp)
   11797:	00 
   11798:	c7 44 24 0c 7e f1 01 	movl   $0x1f17e,0xc(%esp)
   1179f:	00 
   117a0:	c7 44 24 08 d2 ef 01 	movl   $0x1efd2,0x8(%esp)
   117a7:	00 
   117a8:	c7 44 24 04 7d f5 01 	movl   $0x1f57d,0x4(%esp)
   117af:	00 
   117b0:	c7 04 24 b4 ee 01 00 	movl   $0x1eeb4,(%esp)
   117b7:	e8 aa f8 ff ff       	call   11066 <Print>
   117bc:	eb fe                	jmp    117bc <Init_Screen+0x12b>
   117be:	fb                   	sti    
   117bf:	eb 2d                	jmp    117ee <Init_Screen+0x15d>
   117c1:	c7 05 84 4b 02 00 00 	movl   $0x0,0x24b84
   117c8:	00 00 00 
   117cb:	c7 05 80 4b 02 00 00 	movl   $0x0,0x24b80
   117d2:	00 00 00 
   117d5:	c6 05 90 4b 02 00 07 	movb   $0x7,0x24b90
   117dc:	e8 12 fb ff ff       	call   112f3 <Clear_Screen>
   117e1:	e8 59 ea ff ff       	call   1023f <Interrupts_Enabled>
   117e6:	84 c0                	test   %al,%al
   117e8:	0f 85 33 ff ff ff    	jne    11721 <Init_Screen+0x90>
   117ee:	c9                   	leave  
   117ef:	90                   	nop
   117f0:	c3                   	ret    

000117f1 <Put_Cursor>:
   117f1:	55                   	push   %ebp
   117f2:	89 e5                	mov    %esp,%ebp
   117f4:	57                   	push   %edi
   117f5:	56                   	push   %esi
   117f6:	53                   	push   %ebx
   117f7:	83 ec 2c             	sub    $0x2c,%esp
   117fa:	8b 7d 08             	mov    0x8(%ebp),%edi
   117fd:	8b 75 0c             	mov    0xc(%ebp),%esi
   11800:	83 ff 18             	cmp    $0x18,%edi
   11803:	0f 87 2b 01 00 00    	ja     11934 <Put_Cursor+0x143>
   11809:	bb 00 00 00 00       	mov    $0x0,%ebx
   1180e:	83 fe 4f             	cmp    $0x4f,%esi
   11811:	0f 87 47 01 00 00    	ja     1195e <Put_Cursor+0x16d>
   11817:	e8 23 ea ff ff       	call   1023f <Interrupts_Enabled>
   1181c:	84 c0                	test   %al,%al
   1181e:	0f 84 17 01 00 00    	je     1193b <Put_Cursor+0x14a>
   11824:	e8 16 ea ff ff       	call   1023f <Interrupts_Enabled>
   11829:	89 c3                	mov    %eax,%ebx
   1182b:	84 c0                	test   %al,%al
   1182d:	75 4a                	jne    11879 <Put_Cursor+0x88>
   1182f:	c7 04 24 4f 00 00 00 	movl   $0x4f,(%esp)
   11836:	e8 80 f9 ff ff       	call   111bb <Set_Current_Attr>
   1183b:	a1 6c 5e 02 00       	mov    0x25e6c,%eax
   11840:	89 44 24 18          	mov    %eax,0x18(%esp)
   11844:	8b 45 04             	mov    0x4(%ebp),%eax
   11847:	89 44 24 14          	mov    %eax,0x14(%esp)
   1184b:	c7 44 24 10 8f 00 00 	movl   $0x8f,0x10(%esp)
   11852:	00 
   11853:	c7 44 24 0c 7e f1 01 	movl   $0x1f17e,0xc(%esp)
   1185a:	00 
   1185b:	c7 44 24 08 d3 ef 01 	movl   $0x1efd3,0x8(%esp)
   11862:	00 
   11863:	c7 44 24 04 8c f5 01 	movl   $0x1f58c,0x4(%esp)
   1186a:	00 
   1186b:	c7 04 24 b4 ee 01 00 	movl   $0x1eeb4,(%esp)
   11872:	e8 ef f7 ff ff       	call   11066 <Print>
   11877:	eb fe                	jmp    11877 <Put_Cursor+0x86>
   11879:	fa                   	cli    
   1187a:	89 3d 80 4b 02 00    	mov    %edi,0x24b80
   11880:	89 35 84 4b 02 00    	mov    %esi,0x24b84
   11886:	e8 18 f7 ff ff       	call   10fa3 <Update_Cursor>
   1188b:	e8 af e9 ff ff       	call   1023f <Interrupts_Enabled>
   11890:	84 c0                	test   %al,%al
   11892:	74 4a                	je     118de <Put_Cursor+0xed>
   11894:	c7 04 24 4f 00 00 00 	movl   $0x4f,(%esp)
   1189b:	e8 1b f9 ff ff       	call   111bb <Set_Current_Attr>
   118a0:	a1 6c 5e 02 00       	mov    0x25e6c,%eax
   118a5:	89 44 24 18          	mov    %eax,0x18(%esp)
   118a9:	8b 45 04             	mov    0x4(%ebp),%eax
   118ac:	89 44 24 14          	mov    %eax,0x14(%esp)
   118b0:	c7 44 24 10 99 00 00 	movl   $0x99,0x10(%esp)
   118b7:	00 
   118b8:	c7 44 24 0c 7e f1 01 	movl   $0x1f17e,0xc(%esp)
   118bf:	00 
   118c0:	c7 44 24 08 d2 ef 01 	movl   $0x1efd2,0x8(%esp)
   118c7:	00 
   118c8:	c7 44 24 04 7d f5 01 	movl   $0x1f57d,0x4(%esp)
   118cf:	00 
   118d0:	c7 04 24 b4 ee 01 00 	movl   $0x1eeb4,(%esp)
   118d7:	e8 8a f7 ff ff       	call   11066 <Print>
   118dc:	eb fe                	jmp    118dc <Put_Cursor+0xeb>
   118de:	e8 5c e9 ff ff       	call   1023f <Interrupts_Enabled>
   118e3:	84 c0                	test   %al,%al
   118e5:	74 4a                	je     11931 <Put_Cursor+0x140>
   118e7:	c7 04 24 4f 00 00 00 	movl   $0x4f,(%esp)
   118ee:	e8 c8 f8 ff ff       	call   111bb <Set_Current_Attr>
   118f3:	a1 6c 5e 02 00       	mov    0x25e6c,%eax
   118f8:	89 44 24 18          	mov    %eax,0x18(%esp)
   118fc:	8b 45 04             	mov    0x4(%ebp),%eax
   118ff:	89 44 24 14          	mov    %eax,0x14(%esp)
   11903:	c7 44 24 10 9c 00 00 	movl   $0x9c,0x10(%esp)
   1190a:	00 
   1190b:	c7 44 24 0c 7e f1 01 	movl   $0x1f17e,0xc(%esp)
   11912:	00 
   11913:	c7 44 24 08 d2 ef 01 	movl   $0x1efd2,0x8(%esp)
   1191a:	00 
   1191b:	c7 44 24 04 7d f5 01 	movl   $0x1f57d,0x4(%esp)
   11922:	00 
   11923:	c7 04 24 b4 ee 01 00 	movl   $0x1eeb4,(%esp)
   1192a:	e8 37 f7 ff ff       	call   11066 <Print>
   1192f:	eb fe                	jmp    1192f <Put_Cursor+0x13e>
   11931:	fb                   	sti    
   11932:	eb 2a                	jmp    1195e <Put_Cursor+0x16d>
   11934:	bb 00 00 00 00       	mov    $0x0,%ebx
   11939:	eb 23                	jmp    1195e <Put_Cursor+0x16d>
   1193b:	89 3d 80 4b 02 00    	mov    %edi,0x24b80
   11941:	89 35 84 4b 02 00    	mov    %esi,0x24b84
   11947:	e8 57 f6 ff ff       	call   10fa3 <Update_Cursor>
   1194c:	e8 ee e8 ff ff       	call   1023f <Interrupts_Enabled>
   11951:	84 c0                	test   %al,%al
   11953:	0f 85 3b ff ff ff    	jne    11894 <Put_Cursor+0xa3>
   11959:	bb 01 00 00 00       	mov    $0x1,%ebx
   1195e:	89 d8                	mov    %ebx,%eax
   11960:	83 c4 2c             	add    $0x2c,%esp
   11963:	5b                   	pop    %ebx
   11964:	5e                   	pop    %esi
   11965:	5f                   	pop    %edi
   11966:	5d                   	pop    %ebp
   11967:	c3                   	ret    

00011968 <Put_Char_Imp>:
   11968:	55                   	push   %ebp
   11969:	89 e5                	mov    %esp,%ebp
   1196b:	56                   	push   %esi
   1196c:	53                   	push   %ebx
   1196d:	83 ec 20             	sub    $0x20,%esp
   11970:	89 c3                	mov    %eax,%ebx
   11972:	8d 70 d0             	lea    -0x30(%eax),%esi
   11975:	83 3d 94 4b 02 00 04 	cmpl   $0x4,0x24b94
   1197c:	0f 87 13 03 00 00    	ja     11c95 <Put_Char_Imp+0x32d>
   11982:	a1 94 4b 02 00       	mov    0x24b94,%eax
   11987:	ff 24 85 74 f4 01 00 	jmp    *0x1f474(,%eax,4)
   1198e:	83 fb 1b             	cmp    $0x1b,%ebx
   11991:	75 19                	jne    119ac <Put_Char_Imp+0x44>
   11993:	c7 05 94 4b 02 00 01 	movl   $0x1,0x24b94
   1199a:	00 00 00 
   1199d:	c7 05 b8 4b 02 00 00 	movl   $0x0,0x24bb8
   119a4:	00 00 00 
   119a7:	e9 33 03 00 00       	jmp    11cdf <Put_Char_Imp+0x377>
   119ac:	83 fb 09             	cmp    $0x9,%ebx
   119af:	74 16                	je     119c7 <Put_Char_Imp+0x5f>
   119b1:	83 fb 0a             	cmp    $0xa,%ebx
   119b4:	75 49                	jne    119ff <Put_Char_Imp+0x97>
   119b6:	e8 c5 f4 ff ff       	call   10e80 <Clear_To_EOL>
   119bb:	90                   	nop
   119bc:	8d 74 26 00          	lea    0x0(%esi,%eiz,1),%esi
   119c0:	e8 08 f5 ff ff       	call   10ecd <Newline>
   119c5:	eb 3f                	jmp    11a06 <Put_Char_Imp+0x9e>
   119c7:	a1 84 4b 02 00       	mov    0x24b84,%eax
   119cc:	99                   	cltd   
   119cd:	c1 ea 1d             	shr    $0x1d,%edx
   119d0:	01 d0                	add    %edx,%eax
   119d2:	83 e0 07             	and    $0x7,%eax
   119d5:	29 d0                	sub    %edx,%eax
   119d7:	be 07 00 00 00       	mov    $0x7,%esi
   119dc:	29 c6                	sub    %eax,%esi
   119de:	ba 08 00 00 00       	mov    $0x8,%edx
   119e3:	29 c2                	sub    %eax,%edx
   119e5:	85 d2                	test   %edx,%edx
   119e7:	7e 1d                	jle    11a06 <Put_Char_Imp+0x9e>
   119e9:	b8 20 00 00 00       	mov    $0x20,%eax
   119ee:	e8 40 f5 ff ff       	call   10f33 <Put_Graphic_Char>
   119f3:	83 ee 01             	sub    $0x1,%esi
   119f6:	8d 46 01             	lea    0x1(%esi),%eax
   119f9:	85 c0                	test   %eax,%eax
   119fb:	7f ec                	jg     119e9 <Put_Char_Imp+0x81>
   119fd:	eb 07                	jmp    11a06 <Put_Char_Imp+0x9e>
   119ff:	89 d8                	mov    %ebx,%eax
   11a01:	e8 2d f5 ff ff       	call   10f33 <Put_Graphic_Char>
   11a06:	0f b6 db             	movzbl %bl,%ebx
   11a09:	89 5c 24 04          	mov    %ebx,0x4(%esp)
   11a0d:	c7 04 24 e9 00 00 00 	movl   $0xe9,(%esp)
   11a14:	e8 1a ef ff ff       	call   10933 <Out_Byte>
   11a19:	e9 c1 02 00 00       	jmp    11cdf <Put_Char_Imp+0x377>
   11a1e:	83 fb 5b             	cmp    $0x5b,%ebx
   11a21:	75 0f                	jne    11a32 <Put_Char_Imp+0xca>
   11a23:	c7 05 94 4b 02 00 02 	movl   $0x2,0x24b94
   11a2a:	00 00 00 
   11a2d:	e9 ad 02 00 00       	jmp    11cdf <Put_Char_Imp+0x377>
   11a32:	c7 05 94 4b 02 00 00 	movl   $0x0,0x24b94
   11a39:	00 00 00 
   11a3c:	c7 05 b8 4b 02 00 00 	movl   $0x0,0x24bb8
   11a43:	00 00 00 
   11a46:	e9 94 02 00 00       	jmp    11cdf <Put_Char_Imp+0x377>
   11a4b:	83 fe 09             	cmp    $0x9,%esi
   11a4e:	77 0f                	ja     11a5f <Put_Char_Imp+0xf7>
   11a50:	b8 00 00 00 00       	mov    $0x0,%eax
   11a55:	e8 6c fa ff ff       	call   114c6 <Start_Arg>
   11a5a:	e9 16 ff ff ff       	jmp    11975 <Put_Char_Imp+0xd>
   11a5f:	83 fb 3b             	cmp    $0x3b,%ebx
   11a62:	75 23                	jne    11a87 <Put_Char_Imp+0x11f>
   11a64:	b8 00 00 00 00       	mov    $0x0,%eax
   11a69:	e8 58 fa ff ff       	call   114c6 <Start_Arg>
   11a6e:	b8 31 00 00 00       	mov    $0x31,%eax
   11a73:	e8 d4 f9 ff ff       	call   1144c <Add_Digit>
   11a78:	b8 01 00 00 00       	mov    $0x1,%eax
   11a7d:	e8 44 fa ff ff       	call   114c6 <Start_Arg>
   11a82:	e9 58 02 00 00       	jmp    11cdf <Put_Char_Imp+0x377>
   11a87:	c7 05 94 4b 02 00 04 	movl   $0x4,0x24b94
   11a8e:	00 00 00 
   11a91:	e9 df fe ff ff       	jmp    11975 <Put_Char_Imp+0xd>
   11a96:	83 fe 09             	cmp    $0x9,%esi
   11a99:	77 0c                	ja     11aa7 <Put_Char_Imp+0x13f>
   11a9b:	89 d8                	mov    %ebx,%eax
   11a9d:	e8 aa f9 ff ff       	call   1144c <Add_Digit>
   11aa2:	e9 38 02 00 00       	jmp    11cdf <Put_Char_Imp+0x377>
   11aa7:	83 fb 3b             	cmp    $0x3b,%ebx
   11aaa:	75 0f                	jne    11abb <Put_Char_Imp+0x153>
   11aac:	a1 b8 4b 02 00       	mov    0x24bb8,%eax
   11ab1:	e8 10 fa ff ff       	call   114c6 <Start_Arg>
   11ab6:	e9 24 02 00 00       	jmp    11cdf <Put_Char_Imp+0x377>
   11abb:	c7 05 94 4b 02 00 04 	movl   $0x4,0x24b94
   11ac2:	00 00 00 
   11ac5:	e9 ab fe ff ff       	jmp    11975 <Put_Char_Imp+0xd>
   11aca:	83 eb 41             	sub    $0x41,%ebx
   11acd:	83 fb 34             	cmp    $0x34,%ebx
   11ad0:	0f 87 a9 01 00 00    	ja     11c7f <Put_Char_Imp+0x317>
   11ad6:	ff 24 9d 88 f4 01 00 	jmp    *0x1f488(,%ebx,4)
   11add:	8d 76 00             	lea    0x0(%esi),%esi
   11ae0:	e8 9b f3 ff ff       	call   10e80 <Clear_To_EOL>
   11ae5:	e9 95 01 00 00       	jmp    11c7f <Put_Char_Imp+0x317>
   11aea:	a1 80 4b 02 00       	mov    0x24b80,%eax
   11aef:	a3 88 4b 02 00       	mov    %eax,0x24b88
   11af4:	a1 84 4b 02 00       	mov    0x24b84,%eax
   11af9:	a3 8c 4b 02 00       	mov    %eax,0x24b8c
   11afe:	e9 7c 01 00 00       	jmp    11c7f <Put_Char_Imp+0x317>
   11b03:	a1 88 4b 02 00       	mov    0x24b88,%eax
   11b08:	a3 80 4b 02 00       	mov    %eax,0x24b80
   11b0d:	a1 8c 4b 02 00       	mov    0x24b8c,%eax
   11b12:	a3 84 4b 02 00       	mov    %eax,0x24b84
   11b17:	e9 63 01 00 00       	jmp    11c7f <Put_Char_Imp+0x317>
   11b1c:	83 3d b8 4b 02 00 00 	cmpl   $0x0,0x24bb8
   11b23:	b8 00 00 00 00       	mov    $0x0,%eax
   11b28:	0f 4f 05 98 4b 02 00 	cmovg  0x24b98,%eax
   11b2f:	8b 0d 80 4b 02 00    	mov    0x24b80,%ecx
   11b35:	29 c1                	sub    %eax,%ecx
   11b37:	89 c8                	mov    %ecx,%eax
   11b39:	8b 15 84 4b 02 00    	mov    0x24b84,%edx
   11b3f:	e8 30 f4 ff ff       	call   10f74 <Move_Cursor>
   11b44:	e9 36 01 00 00       	jmp    11c7f <Put_Char_Imp+0x317>
   11b49:	83 3d b8 4b 02 00 00 	cmpl   $0x0,0x24bb8
   11b50:	b8 00 00 00 00       	mov    $0x0,%eax
   11b55:	0f 4f 05 98 4b 02 00 	cmovg  0x24b98,%eax
   11b5c:	03 05 80 4b 02 00    	add    0x24b80,%eax
   11b62:	8b 15 84 4b 02 00    	mov    0x24b84,%edx
   11b68:	e8 07 f4 ff ff       	call   10f74 <Move_Cursor>
   11b6d:	e9 0d 01 00 00       	jmp    11c7f <Put_Char_Imp+0x317>
   11b72:	83 3d b8 4b 02 00 00 	cmpl   $0x0,0x24bb8
   11b79:	ba 00 00 00 00       	mov    $0x0,%edx
   11b7e:	0f 4f 15 98 4b 02 00 	cmovg  0x24b98,%edx
   11b85:	03 15 84 4b 02 00    	add    0x24b84,%edx
   11b8b:	a1 80 4b 02 00       	mov    0x24b80,%eax
   11b90:	e8 df f3 ff ff       	call   10f74 <Move_Cursor>
   11b95:	e9 e5 00 00 00       	jmp    11c7f <Put_Char_Imp+0x317>
   11b9a:	83 3d b8 4b 02 00 00 	cmpl   $0x0,0x24bb8
   11ba1:	b8 00 00 00 00       	mov    $0x0,%eax
   11ba6:	0f 4f 05 98 4b 02 00 	cmovg  0x24b98,%eax
   11bad:	8b 15 84 4b 02 00    	mov    0x24b84,%edx
   11bb3:	29 c2                	sub    %eax,%edx
   11bb5:	a1 80 4b 02 00       	mov    0x24b80,%eax
   11bba:	e8 b5 f3 ff ff       	call   10f74 <Move_Cursor>
   11bbf:	e9 bb 00 00 00       	jmp    11c7f <Put_Char_Imp+0x317>
   11bc4:	0f b6 05 90 4b 02 00 	movzbl 0x24b90,%eax
   11bcb:	83 e0 f7             	and    $0xfffffff7,%eax
   11bce:	8b 1d b8 4b 02 00    	mov    0x24bb8,%ebx
   11bd4:	85 db                	test   %ebx,%ebx
   11bd6:	7e 55                	jle    11c2d <Put_Char_Imp+0x2c5>
   11bd8:	b9 00 00 00 00       	mov    $0x0,%ecx
   11bdd:	8b 14 8d 98 4b 02 00 	mov    0x24b98(,%ecx,4),%edx
   11be4:	85 d2                	test   %edx,%edx
   11be6:	74 39                	je     11c21 <Put_Char_Imp+0x2b9>
   11be8:	83 fa 01             	cmp    $0x1,%edx
   11beb:	75 05                	jne    11bf2 <Put_Char_Imp+0x28a>
   11bed:	83 c8 08             	or     $0x8,%eax
   11bf0:	eb 34                	jmp    11c26 <Put_Char_Imp+0x2be>
   11bf2:	8d 72 e2             	lea    -0x1e(%edx),%esi
   11bf5:	83 fe 07             	cmp    $0x7,%esi
   11bf8:	77 0e                	ja     11c08 <Put_Char_Imp+0x2a0>
   11bfa:	83 e0 f8             	and    $0xfffffff8,%eax
   11bfd:	0f b6 92 7f f5 01 00 	movzbl 0x1f57f(%edx),%edx
   11c04:	09 d0                	or     %edx,%eax
   11c06:	eb 1e                	jmp    11c26 <Put_Char_Imp+0x2be>
   11c08:	8d 72 d8             	lea    -0x28(%edx),%esi
   11c0b:	83 fe 07             	cmp    $0x7,%esi
   11c0e:	77 16                	ja     11c26 <Put_Char_Imp+0x2be>
   11c10:	83 e0 8f             	and    $0xffffff8f,%eax
   11c13:	0f b6 92 75 f5 01 00 	movzbl 0x1f575(%edx),%edx
   11c1a:	c1 e2 04             	shl    $0x4,%edx
   11c1d:	09 d0                	or     %edx,%eax
   11c1f:	eb 05                	jmp    11c26 <Put_Char_Imp+0x2be>
   11c21:	b8 07 00 00 00       	mov    $0x7,%eax
   11c26:	83 c1 01             	add    $0x1,%ecx
   11c29:	39 d9                	cmp    %ebx,%ecx
   11c2b:	75 b0                	jne    11bdd <Put_Char_Imp+0x275>
   11c2d:	a2 90 4b 02 00       	mov    %al,0x24b90
   11c32:	eb 4b                	jmp    11c7f <Put_Char_Imp+0x317>
   11c34:	83 3d b8 4b 02 00 02 	cmpl   $0x2,0x24bb8
   11c3b:	75 42                	jne    11c7f <Put_Char_Imp+0x317>
   11c3d:	a1 9c 4b 02 00       	mov    0x24b9c,%eax
   11c42:	8d 50 ff             	lea    -0x1(%eax),%edx
   11c45:	a1 98 4b 02 00       	mov    0x24b98,%eax
   11c4a:	83 e8 01             	sub    $0x1,%eax
   11c4d:	e8 22 f3 ff ff       	call   10f74 <Move_Cursor>
   11c52:	eb 2b                	jmp    11c7f <Put_Char_Imp+0x317>
   11c54:	83 3d b8 4b 02 00 01 	cmpl   $0x1,0x24bb8
   11c5b:	75 22                	jne    11c7f <Put_Char_Imp+0x317>
   11c5d:	83 3d 98 4b 02 00 02 	cmpl   $0x2,0x24b98
   11c64:	75 19                	jne    11c7f <Put_Char_Imp+0x317>
   11c66:	e8 88 f6 ff ff       	call   112f3 <Clear_Screen>
   11c6b:	c7 44 24 04 00 00 00 	movl   $0x0,0x4(%esp)
   11c72:	00 
   11c73:	c7 04 24 00 00 00 00 	movl   $0x0,(%esp)
   11c7a:	e8 72 fb ff ff       	call   117f1 <Put_Cursor>
   11c7f:	c7 05 94 4b 02 00 00 	movl   $0x0,0x24b94
   11c86:	00 00 00 
   11c89:	c7 05 b8 4b 02 00 00 	movl   $0x0,0x24bb8
   11c90:	00 00 00 
   11c93:	eb 4a                	jmp    11cdf <Put_Char_Imp+0x377>
   11c95:	c7 04 24 4f 00 00 00 	movl   $0x4f,(%esp)
   11c9c:	e8 1a f5 ff ff       	call   111bb <Set_Current_Attr>
   11ca1:	a1 6c 5e 02 00       	mov    0x25e6c,%eax
   11ca6:	89 44 24 18          	mov    %eax,0x18(%esp)
   11caa:	8b 45 04             	mov    0x4(%ebp),%eax
   11cad:	89 44 24 14          	mov    %eax,0x14(%esp)
   11cb1:	c7 44 24 10 5a 01 00 	movl   $0x15a,0x10(%esp)
   11cb8:	00 
   11cb9:	c7 44 24 0c 30 f4 01 	movl   $0x1f430,0xc(%esp)
   11cc0:	00 
   11cc1:	c7 44 24 08 6b f4 01 	movl   $0x1f46b,0x8(%esp)
   11cc8:	00 
   11cc9:	c7 44 24 04 70 f5 01 	movl   $0x1f570,0x4(%esp)
   11cd0:	00 
   11cd1:	c7 04 24 b4 ee 01 00 	movl   $0x1eeb4,(%esp)
   11cd8:	e8 89 f3 ff ff       	call   11066 <Print>
   11cdd:	eb fe                	jmp    11cdd <Put_Char_Imp+0x375>
   11cdf:	83 c4 20             	add    $0x20,%esp
   11ce2:	5b                   	pop    %ebx
   11ce3:	5e                   	pop    %esi
   11ce4:	5d                   	pop    %ebp
   11ce5:	c3                   	ret    

00011ce6 <Put_Char>:
   11ce6:	55                   	push   %ebp
   11ce7:	89 e5                	mov    %esp,%ebp
   11ce9:	53                   	push   %ebx
   11cea:	83 ec 24             	sub    $0x24,%esp
   11ced:	8b 5d 08             	mov    0x8(%ebp),%ebx
   11cf0:	e8 4a e5 ff ff       	call   1023f <Interrupts_Enabled>
   11cf5:	84 c0                	test   %al,%al
   11cf7:	0f 84 09 01 00 00    	je     11e06 <Put_Char+0x120>
   11cfd:	e8 3d e5 ff ff       	call   1023f <Interrupts_Enabled>
   11d02:	84 c0                	test   %al,%al
   11d04:	75 4a                	jne    11d50 <Put_Char+0x6a>
   11d06:	c7 04 24 4f 00 00 00 	movl   $0x4f,(%esp)
   11d0d:	e8 a9 f4 ff ff       	call   111bb <Set_Current_Attr>
   11d12:	a1 6c 5e 02 00       	mov    0x25e6c,%eax
   11d17:	89 44 24 18          	mov    %eax,0x18(%esp)
   11d1b:	8b 45 04             	mov    0x4(%ebp),%eax
   11d1e:	89 44 24 14          	mov    %eax,0x14(%esp)
   11d22:	c7 44 24 10 8f 00 00 	movl   $0x8f,0x10(%esp)
   11d29:	00 
   11d2a:	c7 44 24 0c 7e f1 01 	movl   $0x1f17e,0xc(%esp)
   11d31:	00 
   11d32:	c7 44 24 08 d3 ef 01 	movl   $0x1efd3,0x8(%esp)
   11d39:	00 
   11d3a:	c7 44 24 04 8c f5 01 	movl   $0x1f58c,0x4(%esp)
   11d41:	00 
   11d42:	c7 04 24 b4 ee 01 00 	movl   $0x1eeb4,(%esp)
   11d49:	e8 18 f3 ff ff       	call   11066 <Print>
   11d4e:	eb fe                	jmp    11d4e <Put_Char+0x68>
   11d50:	fa                   	cli    
   11d51:	89 d8                	mov    %ebx,%eax
   11d53:	e8 10 fc ff ff       	call   11968 <Put_Char_Imp>
   11d58:	e8 46 f2 ff ff       	call   10fa3 <Update_Cursor>
   11d5d:	e8 dd e4 ff ff       	call   1023f <Interrupts_Enabled>
   11d62:	84 c0                	test   %al,%al
   11d64:	74 4a                	je     11db0 <Put_Char+0xca>
   11d66:	c7 04 24 4f 00 00 00 	movl   $0x4f,(%esp)
   11d6d:	e8 49 f4 ff ff       	call   111bb <Set_Current_Attr>
   11d72:	a1 6c 5e 02 00       	mov    0x25e6c,%eax
   11d77:	89 44 24 18          	mov    %eax,0x18(%esp)
   11d7b:	8b 45 04             	mov    0x4(%ebp),%eax
   11d7e:	89 44 24 14          	mov    %eax,0x14(%esp)
   11d82:	c7 44 24 10 99 00 00 	movl   $0x99,0x10(%esp)
   11d89:	00 
   11d8a:	c7 44 24 0c 7e f1 01 	movl   $0x1f17e,0xc(%esp)
   11d91:	00 
   11d92:	c7 44 24 08 d2 ef 01 	movl   $0x1efd2,0x8(%esp)
   11d99:	00 
   11d9a:	c7 44 24 04 7d f5 01 	movl   $0x1f57d,0x4(%esp)
   11da1:	00 
   11da2:	c7 04 24 b4 ee 01 00 	movl   $0x1eeb4,(%esp)
   11da9:	e8 b8 f2 ff ff       	call   11066 <Print>
   11dae:	eb fe                	jmp    11dae <Put_Char+0xc8>
   11db0:	e8 8a e4 ff ff       	call   1023f <Interrupts_Enabled>
   11db5:	84 c0                	test   %al,%al
   11db7:	74 4a                	je     11e03 <Put_Char+0x11d>
   11db9:	c7 04 24 4f 00 00 00 	movl   $0x4f,(%esp)
   11dc0:	e8 f6 f3 ff ff       	call   111bb <Set_Current_Attr>
   11dc5:	a1 6c 5e 02 00       	mov    0x25e6c,%eax
   11dca:	89 44 24 18          	mov    %eax,0x18(%esp)
   11dce:	8b 45 04             	mov    0x4(%ebp),%eax
   11dd1:	89 44 24 14          	mov    %eax,0x14(%esp)
   11dd5:	c7 44 24 10 9c 00 00 	movl   $0x9c,0x10(%esp)
   11ddc:	00 
   11ddd:	c7 44 24 0c 7e f1 01 	movl   $0x1f17e,0xc(%esp)
   11de4:	00 
   11de5:	c7 44 24 08 d2 ef 01 	movl   $0x1efd2,0x8(%esp)
   11dec:	00 
   11ded:	c7 44 24 04 7d f5 01 	movl   $0x1f57d,0x4(%esp)
   11df4:	00 
   11df5:	c7 04 24 b4 ee 01 00 	movl   $0x1eeb4,(%esp)
   11dfc:	e8 65 f2 ff ff       	call   11066 <Print>
   11e01:	eb fe                	jmp    11e01 <Put_Char+0x11b>
   11e03:	fb                   	sti    
   11e04:	eb 21                	jmp    11e27 <Put_Char+0x141>
   11e06:	89 d8                	mov    %ebx,%eax
   11e08:	90                   	nop
   11e09:	8d b4 26 00 00 00 00 	lea    0x0(%esi,%eiz,1),%esi
   11e10:	e8 53 fb ff ff       	call   11968 <Put_Char_Imp>
   11e15:	e8 89 f1 ff ff       	call   10fa3 <Update_Cursor>
   11e1a:	e8 20 e4 ff ff       	call   1023f <Interrupts_Enabled>
   11e1f:	84 c0                	test   %al,%al
   11e21:	0f 85 3f ff ff ff    	jne    11d66 <Put_Char+0x80>
   11e27:	83 c4 24             	add    $0x24,%esp
   11e2a:	5b                   	pop    %ebx
   11e2b:	5d                   	pop    %ebp
   11e2c:	c3                   	ret    

00011e2d <Print_Emit>:
   11e2d:	55                   	push   %ebp
   11e2e:	89 e5                	mov    %esp,%ebp
   11e30:	83 ec 08             	sub    $0x8,%esp
   11e33:	8b 45 0c             	mov    0xc(%ebp),%eax
   11e36:	e8 2d fb ff ff       	call   11968 <Put_Char_Imp>
   11e3b:	c9                   	leave  
   11e3c:	c3                   	ret    

00011e3d <Put_String>:
   11e3d:	55                   	push   %ebp
   11e3e:	89 e5                	mov    %esp,%ebp
   11e40:	56                   	push   %esi
   11e41:	53                   	push   %ebx
   11e42:	83 ec 20             	sub    $0x20,%esp
   11e45:	8b 5d 08             	mov    0x8(%ebp),%ebx
   11e48:	e8 f2 e3 ff ff       	call   1023f <Interrupts_Enabled>
   11e4d:	89 c6                	mov    %eax,%esi
   11e4f:	84 c0                	test   %al,%al
   11e51:	74 54                	je     11ea7 <Put_String+0x6a>
   11e53:	e8 e7 e3 ff ff       	call   1023f <Interrupts_Enabled>
   11e58:	84 c0                	test   %al,%al
   11e5a:	75 4a                	jne    11ea6 <Put_String+0x69>
   11e5c:	c7 04 24 4f 00 00 00 	movl   $0x4f,(%esp)
   11e63:	e8 53 f3 ff ff       	call   111bb <Set_Current_Attr>
   11e68:	a1 6c 5e 02 00       	mov    0x25e6c,%eax
   11e6d:	89 44 24 18          	mov    %eax,0x18(%esp)
   11e71:	8b 45 04             	mov    0x4(%ebp),%eax
   11e74:	89 44 24 14          	mov    %eax,0x14(%esp)
   11e78:	c7 44 24 10 8f 00 00 	movl   $0x8f,0x10(%esp)
   11e7f:	00 
   11e80:	c7 44 24 0c 7e f1 01 	movl   $0x1f17e,0xc(%esp)
   11e87:	00 
   11e88:	c7 44 24 08 d3 ef 01 	movl   $0x1efd3,0x8(%esp)
   11e8f:	00 
   11e90:	c7 44 24 04 8c f5 01 	movl   $0x1f58c,0x4(%esp)
   11e97:	00 
   11e98:	c7 04 24 b4 ee 01 00 	movl   $0x1eeb4,(%esp)
   11e9f:	e8 c2 f1 ff ff       	call   11066 <Print>
   11ea4:	eb fe                	jmp    11ea4 <Put_String+0x67>
   11ea6:	fa                   	cli    
   11ea7:	0f b6 13             	movzbl (%ebx),%edx
   11eaa:	84 d2                	test   %dl,%dl
   11eac:	74 12                	je     11ec0 <Put_String+0x83>
   11eae:	83 c3 01             	add    $0x1,%ebx
   11eb1:	0f be c2             	movsbl %dl,%eax
   11eb4:	e8 af fa ff ff       	call   11968 <Put_Char_Imp>
   11eb9:	0f b6 13             	movzbl (%ebx),%edx
   11ebc:	84 d2                	test   %dl,%dl
   11ebe:	75 ee                	jne    11eae <Put_String+0x71>
   11ec0:	e8 de f0 ff ff       	call   10fa3 <Update_Cursor>
   11ec5:	e8 75 e3 ff ff       	call   1023f <Interrupts_Enabled>
   11eca:	84 c0                	test   %al,%al
   11ecc:	74 4a                	je     11f18 <Put_String+0xdb>
   11ece:	c7 04 24 4f 00 00 00 	movl   $0x4f,(%esp)
   11ed5:	e8 e1 f2 ff ff       	call   111bb <Set_Current_Attr>
   11eda:	a1 6c 5e 02 00       	mov    0x25e6c,%eax
   11edf:	89 44 24 18          	mov    %eax,0x18(%esp)
   11ee3:	8b 45 04             	mov    0x4(%ebp),%eax
   11ee6:	89 44 24 14          	mov    %eax,0x14(%esp)
   11eea:	c7 44 24 10 99 00 00 	movl   $0x99,0x10(%esp)
   11ef1:	00 
   11ef2:	c7 44 24 0c 7e f1 01 	movl   $0x1f17e,0xc(%esp)
   11ef9:	00 
   11efa:	c7 44 24 08 d2 ef 01 	movl   $0x1efd2,0x8(%esp)
   11f01:	00 
   11f02:	c7 44 24 04 7d f5 01 	movl   $0x1f57d,0x4(%esp)
   11f09:	00 
   11f0a:	c7 04 24 b4 ee 01 00 	movl   $0x1eeb4,(%esp)
   11f11:	e8 50 f1 ff ff       	call   11066 <Print>
   11f16:	eb fe                	jmp    11f16 <Put_String+0xd9>
   11f18:	89 f0                	mov    %esi,%eax
   11f1a:	84 c0                	test   %al,%al
   11f1c:	74 56                	je     11f74 <Put_String+0x137>
   11f1e:	66 90                	xchg   %ax,%ax
   11f20:	e8 1a e3 ff ff       	call   1023f <Interrupts_Enabled>
   11f25:	84 c0                	test   %al,%al
   11f27:	74 4a                	je     11f73 <Put_String+0x136>
   11f29:	c7 04 24 4f 00 00 00 	movl   $0x4f,(%esp)
   11f30:	e8 86 f2 ff ff       	call   111bb <Set_Current_Attr>
   11f35:	a1 6c 5e 02 00       	mov    0x25e6c,%eax
   11f3a:	89 44 24 18          	mov    %eax,0x18(%esp)
   11f3e:	8b 45 04             	mov    0x4(%ebp),%eax
   11f41:	89 44 24 14          	mov    %eax,0x14(%esp)
   11f45:	c7 44 24 10 9c 00 00 	movl   $0x9c,0x10(%esp)
   11f4c:	00 
   11f4d:	c7 44 24 0c 7e f1 01 	movl   $0x1f17e,0xc(%esp)
   11f54:	00 
   11f55:	c7 44 24 08 d2 ef 01 	movl   $0x1efd2,0x8(%esp)
   11f5c:	00 
   11f5d:	c7 44 24 04 7d f5 01 	movl   $0x1f57d,0x4(%esp)
   11f64:	00 
   11f65:	c7 04 24 b4 ee 01 00 	movl   $0x1eeb4,(%esp)
   11f6c:	e8 f5 f0 ff ff       	call   11066 <Print>
   11f71:	eb fe                	jmp    11f71 <Put_String+0x134>
   11f73:	fb                   	sti    
   11f74:	83 c4 20             	add    $0x20,%esp
   11f77:	5b                   	pop    %ebx
   11f78:	5e                   	pop    %esi
   11f79:	5d                   	pop    %ebp
   11f7a:	c3                   	ret    

00011f7b <Put_Buf>:
   11f7b:	55                   	push   %ebp
   11f7c:	89 e5                	mov    %esp,%ebp
   11f7e:	57                   	push   %edi
   11f7f:	56                   	push   %esi
   11f80:	53                   	push   %ebx
   11f81:	83 ec 2c             	sub    $0x2c,%esp
   11f84:	8b 75 08             	mov    0x8(%ebp),%esi
   11f87:	8b 5d 0c             	mov    0xc(%ebp),%ebx
   11f8a:	e8 b0 e2 ff ff       	call   1023f <Interrupts_Enabled>
   11f8f:	89 c7                	mov    %eax,%edi
   11f91:	84 c0                	test   %al,%al
   11f93:	74 54                	je     11fe9 <Put_Buf+0x6e>
   11f95:	e8 a5 e2 ff ff       	call   1023f <Interrupts_Enabled>
   11f9a:	84 c0                	test   %al,%al
   11f9c:	75 4a                	jne    11fe8 <Put_Buf+0x6d>
   11f9e:	c7 04 24 4f 00 00 00 	movl   $0x4f,(%esp)
   11fa5:	e8 11 f2 ff ff       	call   111bb <Set_Current_Attr>
   11faa:	a1 6c 5e 02 00       	mov    0x25e6c,%eax
   11faf:	89 44 24 18          	mov    %eax,0x18(%esp)
   11fb3:	8b 45 04             	mov    0x4(%ebp),%eax
   11fb6:	89 44 24 14          	mov    %eax,0x14(%esp)
   11fba:	c7 44 24 10 8f 00 00 	movl   $0x8f,0x10(%esp)
   11fc1:	00 
   11fc2:	c7 44 24 0c 7e f1 01 	movl   $0x1f17e,0xc(%esp)
   11fc9:	00 
   11fca:	c7 44 24 08 d3 ef 01 	movl   $0x1efd3,0x8(%esp)
   11fd1:	00 
   11fd2:	c7 44 24 04 8c f5 01 	movl   $0x1f58c,0x4(%esp)
   11fd9:	00 
   11fda:	c7 04 24 b4 ee 01 00 	movl   $0x1eeb4,(%esp)
   11fe1:	e8 80 f0 ff ff       	call   11066 <Print>
   11fe6:	eb fe                	jmp    11fe6 <Put_Buf+0x6b>
   11fe8:	fa                   	cli    
   11fe9:	85 db                	test   %ebx,%ebx
   11feb:	74 11                	je     11ffe <Put_Buf+0x83>
   11fed:	83 c6 01             	add    $0x1,%esi
   11ff0:	0f be 46 ff          	movsbl -0x1(%esi),%eax
   11ff4:	e8 6f f9 ff ff       	call   11968 <Put_Char_Imp>
   11ff9:	83 eb 01             	sub    $0x1,%ebx
   11ffc:	75 ef                	jne    11fed <Put_Buf+0x72>
   11ffe:	e8 a0 ef ff ff       	call   10fa3 <Update_Cursor>
   12003:	e8 37 e2 ff ff       	call   1023f <Interrupts_Enabled>
   12008:	84 c0                	test   %al,%al
   1200a:	74 4a                	je     12056 <Put_Buf+0xdb>
   1200c:	c7 04 24 4f 00 00 00 	movl   $0x4f,(%esp)
   12013:	e8 a3 f1 ff ff       	call   111bb <Set_Current_Attr>
   12018:	a1 6c 5e 02 00       	mov    0x25e6c,%eax
   1201d:	89 44 24 18          	mov    %eax,0x18(%esp)
   12021:	8b 45 04             	mov    0x4(%ebp),%eax
   12024:	89 44 24 14          	mov    %eax,0x14(%esp)
   12028:	c7 44 24 10 99 00 00 	movl   $0x99,0x10(%esp)
   1202f:	00 
   12030:	c7 44 24 0c 7e f1 01 	movl   $0x1f17e,0xc(%esp)
   12037:	00 
   12038:	c7 44 24 08 d2 ef 01 	movl   $0x1efd2,0x8(%esp)
   1203f:	00 
   12040:	c7 44 24 04 7d f5 01 	movl   $0x1f57d,0x4(%esp)
   12047:	00 
   12048:	c7 04 24 b4 ee 01 00 	movl   $0x1eeb4,(%esp)
   1204f:	e8 12 f0 ff ff       	call   11066 <Print>
   12054:	eb fe                	jmp    12054 <Put_Buf+0xd9>
   12056:	89 f8                	mov    %edi,%eax
   12058:	84 c0                	test   %al,%al
   1205a:	74 58                	je     120b4 <Put_Buf+0x139>
   1205c:	8d 74 26 00          	lea    0x0(%esi,%eiz,1),%esi
   12060:	e8 da e1 ff ff       	call   1023f <Interrupts_Enabled>
   12065:	84 c0                	test   %al,%al
   12067:	74 4a                	je     120b3 <Put_Buf+0x138>
   12069:	c7 04 24 4f 00 00 00 	movl   $0x4f,(%esp)
   12070:	e8 46 f1 ff ff       	call   111bb <Set_Current_Attr>
   12075:	a1 6c 5e 02 00       	mov    0x25e6c,%eax
   1207a:	89 44 24 18          	mov    %eax,0x18(%esp)
   1207e:	8b 45 04             	mov    0x4(%ebp),%eax
   12081:	89 44 24 14          	mov    %eax,0x14(%esp)
   12085:	c7 44 24 10 9c 00 00 	movl   $0x9c,0x10(%esp)
   1208c:	00 
   1208d:	c7 44 24 0c 7e f1 01 	movl   $0x1f17e,0xc(%esp)
   12094:	00 
   12095:	c7 44 24 08 d2 ef 01 	movl   $0x1efd2,0x8(%esp)
   1209c:	00 
   1209d:	c7 44 24 04 7d f5 01 	movl   $0x1f57d,0x4(%esp)
   120a4:	00 
   120a5:	c7 04 24 b4 ee 01 00 	movl   $0x1eeb4,(%esp)
   120ac:	e8 b5 ef ff ff       	call   11066 <Print>
   120b1:	eb fe                	jmp    120b1 <Put_Buf+0x136>
   120b3:	fb                   	sti    
   120b4:	83 c4 2c             	add    $0x2c,%esp
   120b7:	5b                   	pop    %ebx
   120b8:	5e                   	pop    %esi
   120b9:	5f                   	pop    %edi
   120ba:	5d                   	pop    %ebp
   120bb:	c3                   	ret    

000120bc <Spin>:
   120bc:	55                   	push   %ebp
   120bd:	89 e5                	mov    %esp,%ebp
   120bf:	48                   	dec    %eax
   120c0:	83 f8 00             	cmp    $0x0,%eax
   120c3:	90                   	nop
   120c4:	90                   	nop
   120c5:	90                   	nop
   120c6:	90                   	nop
   120c7:	90                   	nop
   120c8:	90                   	nop
   120c9:	90                   	nop
   120ca:	90                   	nop
   120cb:	90                   	nop
   120cc:	90                   	nop
   120cd:	90                   	nop
   120ce:	90                   	nop
   120cf:	7f ee                	jg     120bf <Spin+0x3>
   120d1:	5d                   	pop    %ebp
   120d2:	c3                   	ret    

000120d3 <Timer_Interrupt_Handler>:
   120d3:	55                   	push   %ebp
   120d4:	89 e5                	mov    %esp,%ebp
   120d6:	57                   	push   %edi
   120d7:	56                   	push   %esi
   120d8:	53                   	push   %ebx
   120d9:	83 ec 1c             	sub    $0x1c,%esp
   120dc:	8b 3d 6c 5e 02 00    	mov    0x25e6c,%edi
   120e2:	8b 45 08             	mov    0x8(%ebp),%eax
   120e5:	89 04 24             	mov    %eax,(%esp)
   120e8:	e8 e7 e7 ff ff       	call   108d4 <Begin_IRQ>
   120ed:	a1 00 58 02 00       	mov    0x25800,%eax
   120f2:	83 c0 01             	add    $0x1,%eax
   120f5:	a3 00 58 02 00       	mov    %eax,0x25800
   120fa:	8b 47 04             	mov    0x4(%edi),%eax
   120fd:	83 c0 01             	add    $0x1,%eax
   12100:	89 47 04             	mov    %eax,0x4(%edi)
   12103:	83 3d c4 4b 02 00 00 	cmpl   $0x0,0x24bc4
   1210a:	7e 2e                	jle    1213a <Timer_Interrupt_Handler+0x67>
   1210c:	bb 20 58 02 00       	mov    $0x25820,%ebx
   12111:	be 00 00 00 00       	mov    $0x0,%esi
   12116:	8b 03                	mov    (%ebx),%eax
   12118:	85 c0                	test   %eax,%eax
   1211a:	75 0b                	jne    12127 <Timer_Interrupt_Handler+0x54>
   1211c:	8b 43 04             	mov    0x4(%ebx),%eax
   1211f:	89 04 24             	mov    %eax,(%esp)
   12122:	ff 53 08             	call   *0x8(%ebx)
   12125:	eb 05                	jmp    1212c <Timer_Interrupt_Handler+0x59>
   12127:	83 e8 01             	sub    $0x1,%eax
   1212a:	89 03                	mov    %eax,(%ebx)
   1212c:	83 c6 01             	add    $0x1,%esi
   1212f:	83 c3 10             	add    $0x10,%ebx
   12132:	39 35 c4 4b 02 00    	cmp    %esi,0x24bc4
   12138:	7f dc                	jg     12116 <Timer_Interrupt_Handler+0x43>
   1213a:	8b 47 04             	mov    0x4(%edi),%eax
   1213d:	3b 05 0c 40 02 00    	cmp    0x2400c,%eax
   12143:	72 1e                	jb     12163 <Timer_Interrupt_Handler+0x90>
   12145:	c7 05 70 5e 02 00 01 	movl   $0x1,0x25e70
   1214c:	00 00 00 
   1214f:	8b 87 40 02 00 00    	mov    0x240(%edi),%eax
   12155:	83 f8 02             	cmp    $0x2,%eax
   12158:	7f 09                	jg     12163 <Timer_Interrupt_Handler+0x90>
   1215a:	83 c0 01             	add    $0x1,%eax
   1215d:	89 87 40 02 00 00    	mov    %eax,0x240(%edi)
   12163:	8b 45 08             	mov    0x8(%ebp),%eax
   12166:	89 04 24             	mov    %eax,(%esp)
   12169:	e8 6b e7 ff ff       	call   108d9 <End_IRQ>
   1216e:	83 c4 1c             	add    $0x1c,%esp
   12171:	5b                   	pop    %ebx
   12172:	5e                   	pop    %esi
   12173:	5f                   	pop    %edi
   12174:	5d                   	pop    %ebp
   12175:	c3                   	ret    

00012176 <Timer_Calibrate>:
   12176:	55                   	push   %ebp
   12177:	89 e5                	mov    %esp,%ebp
   12179:	53                   	push   %ebx
   1217a:	83 ec 14             	sub    $0x14,%esp
   1217d:	8b 5d 08             	mov    0x8(%ebp),%ebx
   12180:	89 1c 24             	mov    %ebx,(%esp)
   12183:	e8 4c e7 ff ff       	call   108d4 <Begin_IRQ>
   12188:	a1 00 58 02 00       	mov    0x25800,%eax
   1218d:	83 f8 02             	cmp    $0x2,%eax
   12190:	77 0f                	ja     121a1 <Timer_Calibrate+0x2b>
   12192:	a1 00 58 02 00       	mov    0x25800,%eax
   12197:	83 c0 01             	add    $0x1,%eax
   1219a:	a3 00 58 02 00       	mov    %eax,0x25800
   1219f:	eb 14                	jmp    121b5 <Timer_Calibrate+0x3f>
   121a1:	b8 ff ff ff 7f       	mov    $0x7fffffff,%eax
   121a6:	2b 43 28             	sub    0x28(%ebx),%eax
   121a9:	a3 bc 4b 02 00       	mov    %eax,0x24bbc
   121ae:	c7 43 28 00 00 00 00 	movl   $0x0,0x28(%ebx)
   121b5:	89 1c 24             	mov    %ebx,(%esp)
   121b8:	e8 1c e7 ff ff       	call   108d9 <End_IRQ>
   121bd:	83 c4 14             	add    $0x14,%esp
   121c0:	5b                   	pop    %ebx
   121c1:	5d                   	pop    %ebp
   121c2:	c3                   	ret    

000121c3 <Init_Timer>:
   121c3:	55                   	push   %ebp
   121c4:	89 e5                	mov    %esp,%ebp
   121c6:	83 ec 28             	sub    $0x28,%esp
   121c9:	c7 04 24 a5 f5 01 00 	movl   $0x1f5a5,(%esp)
   121d0:	e8 91 ee ff ff       	call   11066 <Print>
   121d5:	c7 44 24 04 36 00 00 	movl   $0x36,0x4(%esp)
   121dc:	00 
   121dd:	c7 04 24 43 00 00 00 	movl   $0x43,(%esp)
   121e4:	e8 4a e7 ff ff       	call   10933 <Out_Byte>
   121e9:	c7 44 24 04 00 00 00 	movl   $0x0,0x4(%esp)
   121f0:	00 
   121f1:	c7 04 24 40 00 00 00 	movl   $0x40,(%esp)
   121f8:	e8 36 e7 ff ff       	call   10933 <Out_Byte>
   121fd:	c7 44 24 04 00 00 00 	movl   $0x0,0x4(%esp)
   12204:	00 
   12205:	c7 04 24 40 00 00 00 	movl   $0x40,(%esp)
   1220c:	e8 22 e7 ff ff       	call   10933 <Out_Byte>
   12211:	e8 29 e0 ff ff       	call   1023f <Interrupts_Enabled>
   12216:	84 c0                	test   %al,%al
   12218:	75 4a                	jne    12264 <Init_Timer+0xa1>
   1221a:	c7 04 24 4f 00 00 00 	movl   $0x4f,(%esp)
   12221:	e8 95 ef ff ff       	call   111bb <Set_Current_Attr>
   12226:	a1 6c 5e 02 00       	mov    0x25e6c,%eax
   1222b:	89 44 24 18          	mov    %eax,0x18(%esp)
   1222f:	8b 45 04             	mov    0x4(%ebp),%eax
   12232:	89 44 24 14          	mov    %eax,0x14(%esp)
   12236:	c7 44 24 10 a4 00 00 	movl   $0xa4,0x10(%esp)
   1223d:	00 
   1223e:	c7 44 24 0c bc f5 01 	movl   $0x1f5bc,0xc(%esp)
   12245:	00 
   12246:	c7 44 24 08 d3 ef 01 	movl   $0x1efd3,0x8(%esp)
   1224d:	00 
   1224e:	c7 44 24 04 59 f6 01 	movl   $0x1f659,0x4(%esp)
   12255:	00 
   12256:	c7 04 24 b4 ee 01 00 	movl   $0x1eeb4,(%esp)
   1225d:	e8 04 ee ff ff       	call   11066 <Print>
   12262:	eb fe                	jmp    12262 <Init_Timer+0x9f>
   12264:	fa                   	cli    
   12265:	c7 44 24 04 76 21 01 	movl   $0x12176,0x4(%esp)
   1226c:	00 
   1226d:	c7 04 24 00 00 00 00 	movl   $0x0,(%esp)
   12274:	e8 c7 e2 ff ff       	call   10540 <Install_IRQ>
   12279:	c7 04 24 00 00 00 00 	movl   $0x0,(%esp)
   12280:	e8 37 e3 ff ff       	call   105bc <Enable_IRQ>
   12285:	e8 b5 df ff ff       	call   1023f <Interrupts_Enabled>
   1228a:	84 c0                	test   %al,%al
   1228c:	74 4a                	je     122d8 <Init_Timer+0x115>
   1228e:	c7 04 24 4f 00 00 00 	movl   $0x4f,(%esp)
   12295:	e8 21 ef ff ff       	call   111bb <Set_Current_Attr>
   1229a:	a1 6c 5e 02 00       	mov    0x25e6c,%eax
   1229f:	89 44 24 18          	mov    %eax,0x18(%esp)
   122a3:	8b 45 04             	mov    0x4(%ebp),%eax
   122a6:	89 44 24 14          	mov    %eax,0x14(%esp)
   122aa:	c7 44 24 10 aa 00 00 	movl   $0xaa,0x10(%esp)
   122b1:	00 
   122b2:	c7 44 24 0c bc f5 01 	movl   $0x1f5bc,0xc(%esp)
   122b9:	00 
   122ba:	c7 44 24 08 d2 ef 01 	movl   $0x1efd2,0x8(%esp)
   122c1:	00 
   122c2:	c7 44 24 04 59 f6 01 	movl   $0x1f659,0x4(%esp)
   122c9:	00 
   122ca:	c7 04 24 b4 ee 01 00 	movl   $0x1eeb4,(%esp)
   122d1:	e8 90 ed ff ff       	call   11066 <Print>
   122d6:	eb fe                	jmp    122d6 <Init_Timer+0x113>
   122d8:	fb                   	sti    
   122d9:	a1 00 58 02 00       	mov    0x25800,%eax
   122de:	83 f8 02             	cmp    $0x2,%eax
   122e1:	76 f6                	jbe    122d9 <Init_Timer+0x116>
   122e3:	b8 ff ff ff 7f       	mov    $0x7fffffff,%eax
   122e8:	e8 cf fd ff ff       	call   120bc <Spin>
   122ed:	e8 4d df ff ff       	call   1023f <Interrupts_Enabled>
   122f2:	84 c0                	test   %al,%al
   122f4:	75 4a                	jne    12340 <Init_Timer+0x17d>
   122f6:	c7 04 24 4f 00 00 00 	movl   $0x4f,(%esp)
   122fd:	e8 b9 ee ff ff       	call   111bb <Set_Current_Attr>
   12302:	a1 6c 5e 02 00       	mov    0x25e6c,%eax
   12307:	89 44 24 18          	mov    %eax,0x18(%esp)
   1230b:	8b 45 04             	mov    0x4(%ebp),%eax
   1230e:	89 44 24 14          	mov    %eax,0x14(%esp)
   12312:	c7 44 24 10 b7 00 00 	movl   $0xb7,0x10(%esp)
   12319:	00 
   1231a:	c7 44 24 0c bc f5 01 	movl   $0x1f5bc,0xc(%esp)
   12321:	00 
   12322:	c7 44 24 08 d3 ef 01 	movl   $0x1efd3,0x8(%esp)
   12329:	00 
   1232a:	c7 44 24 04 59 f6 01 	movl   $0x1f659,0x4(%esp)
   12331:	00 
   12332:	c7 04 24 b4 ee 01 00 	movl   $0x1eeb4,(%esp)
   12339:	e8 28 ed ff ff       	call   11066 <Print>
   1233e:	eb fe                	jmp    1233e <Init_Timer+0x17b>
   12340:	fa                   	cli    
   12341:	c7 04 24 00 00 00 00 	movl   $0x0,(%esp)
   12348:	e8 fe e3 ff ff       	call   1074b <Disable_IRQ>
   1234d:	e8 ed de ff ff       	call   1023f <Interrupts_Enabled>
   12352:	84 c0                	test   %al,%al
   12354:	74 4a                	je     123a0 <Init_Timer+0x1dd>
   12356:	c7 04 24 4f 00 00 00 	movl   $0x4f,(%esp)
   1235d:	e8 59 ee ff ff       	call   111bb <Set_Current_Attr>
   12362:	a1 6c 5e 02 00       	mov    0x25e6c,%eax
   12367:	89 44 24 18          	mov    %eax,0x18(%esp)
   1236b:	8b 45 04             	mov    0x4(%ebp),%eax
   1236e:	89 44 24 14          	mov    %eax,0x14(%esp)
   12372:	c7 44 24 10 be 00 00 	movl   $0xbe,0x10(%esp)
   12379:	00 
   1237a:	c7 44 24 0c bc f5 01 	movl   $0x1f5bc,0xc(%esp)
   12381:	00 
   12382:	c7 44 24 08 d2 ef 01 	movl   $0x1efd2,0x8(%esp)
   12389:	00 
   1238a:	c7 44 24 04 59 f6 01 	movl   $0x1f659,0x4(%esp)
   12391:	00 
   12392:	c7 04 24 b4 ee 01 00 	movl   $0x1eeb4,(%esp)
   12399:	e8 c8 ec ff ff       	call   11066 <Print>
   1239e:	eb fe                	jmp    1239e <Init_Timer+0x1db>
   123a0:	fb                   	sti    
   123a1:	a1 bc 4b 02 00       	mov    0x24bbc,%eax
   123a6:	89 44 24 04          	mov    %eax,0x4(%esp)
   123aa:	c7 04 24 d4 f5 01 00 	movl   $0x1f5d4,(%esp)
   123b1:	e8 b0 ec ff ff       	call   11066 <Print>
   123b6:	c7 44 24 04 d3 20 01 	movl   $0x120d3,0x4(%esp)
   123bd:	00 
   123be:	c7 04 24 00 00 00 00 	movl   $0x0,(%esp)
   123c5:	e8 76 e1 ff ff       	call   10540 <Install_IRQ>
   123ca:	c7 04 24 00 00 00 00 	movl   $0x0,(%esp)
   123d1:	e8 e6 e1 ff ff       	call   105bc <Enable_IRQ>
   123d6:	c9                   	leave  
   123d7:	c3                   	ret    

000123d8 <Start_Timer>:
   123d8:	55                   	push   %ebp
   123d9:	89 e5                	mov    %esp,%ebp
   123db:	57                   	push   %edi
   123dc:	56                   	push   %esi
   123dd:	53                   	push   %ebx
   123de:	83 ec 2c             	sub    $0x2c,%esp
   123e1:	8b 75 08             	mov    0x8(%ebp),%esi
   123e4:	e8 56 de ff ff       	call   1023f <Interrupts_Enabled>
   123e9:	84 c0                	test   %al,%al
   123eb:	74 4a                	je     12437 <Start_Timer+0x5f>
   123ed:	c7 04 24 4f 00 00 00 	movl   $0x4f,(%esp)
   123f4:	e8 c2 ed ff ff       	call   111bb <Set_Current_Attr>
   123f9:	a1 6c 5e 02 00       	mov    0x25e6c,%eax
   123fe:	89 44 24 18          	mov    %eax,0x18(%esp)
   12402:	8b 45 04             	mov    0x4(%ebp),%eax
   12405:	89 44 24 14          	mov    %eax,0x14(%esp)
   12409:	c7 44 24 10 e1 00 00 	movl   $0xe1,0x10(%esp)
   12410:	00 
   12411:	c7 44 24 0c bc f5 01 	movl   $0x1f5bc,0xc(%esp)
   12418:	00 
   12419:	c7 44 24 08 d2 ef 01 	movl   $0x1efd2,0x8(%esp)
   12420:	00 
   12421:	c7 44 24 04 4d f6 01 	movl   $0x1f64d,0x4(%esp)
   12428:	00 
   12429:	c7 04 24 b4 ee 01 00 	movl   $0x1eeb4,(%esp)
   12430:	e8 31 ec ff ff       	call   11066 <Print>
   12435:	eb fe                	jmp    12435 <Start_Timer+0x5d>
   12437:	8b 15 c4 4b 02 00    	mov    0x24bc4,%edx
   1243d:	83 fa 64             	cmp    $0x64,%edx
   12440:	74 39                	je     1247b <Start_Timer+0xa3>
   12442:	a1 c0 4b 02 00       	mov    0x24bc0,%eax
   12447:	8d 48 01             	lea    0x1(%eax),%ecx
   1244a:	89 0d c0 4b 02 00    	mov    %ecx,0x24bc0
   12450:	89 d3                	mov    %edx,%ebx
   12452:	c1 e3 04             	shl    $0x4,%ebx
   12455:	89 83 24 58 02 00    	mov    %eax,0x25824(%ebx)
   1245b:	8b 7d 0c             	mov    0xc(%ebp),%edi
   1245e:	89 bb 28 58 02 00    	mov    %edi,0x25828(%ebx)
   12464:	89 b3 20 58 02 00    	mov    %esi,0x25820(%ebx)
   1246a:	89 b3 2c 58 02 00    	mov    %esi,0x2582c(%ebx)
   12470:	83 c2 01             	add    $0x1,%edx
   12473:	89 15 c4 4b 02 00    	mov    %edx,0x24bc4
   12479:	eb 05                	jmp    12480 <Start_Timer+0xa8>
   1247b:	b8 ff ff ff ff       	mov    $0xffffffff,%eax
   12480:	83 c4 2c             	add    $0x2c,%esp
   12483:	5b                   	pop    %ebx
   12484:	5e                   	pop    %esi
   12485:	5f                   	pop    %edi
   12486:	5d                   	pop    %ebp
   12487:	c3                   	ret    

00012488 <Get_Remaing_Timer_Ticks>:
   12488:	55                   	push   %ebp
   12489:	89 e5                	mov    %esp,%ebp
   1248b:	53                   	push   %ebx
   1248c:	83 ec 24             	sub    $0x24,%esp
   1248f:	8b 5d 08             	mov    0x8(%ebp),%ebx
   12492:	e8 a8 dd ff ff       	call   1023f <Interrupts_Enabled>
   12497:	84 c0                	test   %al,%al
   12499:	75 1d                	jne    124b8 <Get_Remaing_Timer_Ticks+0x30>
   1249b:	8b 15 c4 4b 02 00    	mov    0x24bc4,%edx
   124a1:	85 d2                	test   %edx,%edx
   124a3:	0f 8e 86 00 00 00    	jle    1252f <Get_Remaing_Timer_Ticks+0xa7>
   124a9:	b8 00 00 00 00       	mov    $0x0,%eax
   124ae:	39 1d 24 58 02 00    	cmp    %ebx,0x25824
   124b4:	75 6b                	jne    12521 <Get_Remaing_Timer_Ticks+0x99>
   124b6:	eb 59                	jmp    12511 <Get_Remaing_Timer_Ticks+0x89>
   124b8:	c7 04 24 4f 00 00 00 	movl   $0x4f,(%esp)
   124bf:	e8 f7 ec ff ff       	call   111bb <Set_Current_Attr>
   124c4:	a1 6c 5e 02 00       	mov    0x25e6c,%eax
   124c9:	89 44 24 18          	mov    %eax,0x18(%esp)
   124cd:	8b 45 04             	mov    0x4(%ebp),%eax
   124d0:	89 44 24 14          	mov    %eax,0x14(%esp)
   124d4:	c7 44 24 10 f5 00 00 	movl   $0xf5,0x10(%esp)
   124db:	00 
   124dc:	c7 44 24 0c bc f5 01 	movl   $0x1f5bc,0xc(%esp)
   124e3:	00 
   124e4:	c7 44 24 08 d2 ef 01 	movl   $0x1efd2,0x8(%esp)
   124eb:	00 
   124ec:	c7 44 24 04 35 f6 01 	movl   $0x1f635,0x4(%esp)
   124f3:	00 
   124f4:	c7 04 24 b4 ee 01 00 	movl   $0x1eeb4,(%esp)
   124fb:	e8 66 eb ff ff       	call   11066 <Print>
   12500:	eb fe                	jmp    12500 <Get_Remaing_Timer_Ticks+0x78>
   12502:	89 c1                	mov    %eax,%ecx
   12504:	c1 e1 04             	shl    $0x4,%ecx
   12507:	39 99 24 58 02 00    	cmp    %ebx,0x25824(%ecx)
   1250d:	75 12                	jne    12521 <Get_Remaing_Timer_Ticks+0x99>
   1250f:	eb 05                	jmp    12516 <Get_Remaing_Timer_Ticks+0x8e>
   12511:	b8 00 00 00 00       	mov    $0x0,%eax
   12516:	c1 e0 04             	shl    $0x4,%eax
   12519:	8b 80 20 58 02 00    	mov    0x25820(%eax),%eax
   1251f:	eb 13                	jmp    12534 <Get_Remaing_Timer_Ticks+0xac>
   12521:	83 c0 01             	add    $0x1,%eax
   12524:	39 d0                	cmp    %edx,%eax
   12526:	75 da                	jne    12502 <Get_Remaing_Timer_Ticks+0x7a>
   12528:	b8 ff ff ff ff       	mov    $0xffffffff,%eax
   1252d:	eb 05                	jmp    12534 <Get_Remaing_Timer_Ticks+0xac>
   1252f:	b8 ff ff ff ff       	mov    $0xffffffff,%eax
   12534:	83 c4 24             	add    $0x24,%esp
   12537:	5b                   	pop    %ebx
   12538:	5d                   	pop    %ebp
   12539:	c3                   	ret    

0001253a <Cancel_Timer>:
   1253a:	55                   	push   %ebp
   1253b:	89 e5                	mov    %esp,%ebp
   1253d:	56                   	push   %esi
   1253e:	53                   	push   %ebx
   1253f:	83 ec 20             	sub    $0x20,%esp
   12542:	8b 5d 08             	mov    0x8(%ebp),%ebx
   12545:	e8 f5 dc ff ff       	call   1023f <Interrupts_Enabled>
   1254a:	84 c0                	test   %al,%al
   1254c:	75 21                	jne    1256f <Cancel_Timer+0x35>
   1254e:	8b 15 c4 4b 02 00    	mov    0x24bc4,%edx
   12554:	85 d2                	test   %edx,%edx
   12556:	0f 8e ba 00 00 00    	jle    12616 <Cancel_Timer+0xdc>
   1255c:	b8 00 00 00 00       	mov    $0x0,%eax
   12561:	39 1d 24 58 02 00    	cmp    %ebx,0x25824
   12567:	0f 85 a2 00 00 00    	jne    1260f <Cancel_Timer+0xd5>
   1256d:	eb 59                	jmp    125c8 <Cancel_Timer+0x8e>
   1256f:	c7 04 24 4f 00 00 00 	movl   $0x4f,(%esp)
   12576:	e8 40 ec ff ff       	call   111bb <Set_Current_Attr>
   1257b:	a1 6c 5e 02 00       	mov    0x25e6c,%eax
   12580:	89 44 24 18          	mov    %eax,0x18(%esp)
   12584:	8b 45 04             	mov    0x4(%ebp),%eax
   12587:	89 44 24 14          	mov    %eax,0x14(%esp)
   1258b:	c7 44 24 10 02 01 00 	movl   $0x102,0x10(%esp)
   12592:	00 
   12593:	c7 44 24 0c bc f5 01 	movl   $0x1f5bc,0xc(%esp)
   1259a:	00 
   1259b:	c7 44 24 08 d2 ef 01 	movl   $0x1efd2,0x8(%esp)
   125a2:	00 
   125a3:	c7 44 24 04 28 f6 01 	movl   $0x1f628,0x4(%esp)
   125aa:	00 
   125ab:	c7 04 24 b4 ee 01 00 	movl   $0x1eeb4,(%esp)
   125b2:	e8 af ea ff ff       	call   11066 <Print>
   125b7:	eb fe                	jmp    125b7 <Cancel_Timer+0x7d>
   125b9:	89 c1                	mov    %eax,%ecx
   125bb:	c1 e1 04             	shl    $0x4,%ecx
   125be:	39 99 24 58 02 00    	cmp    %ebx,0x25824(%ecx)
   125c4:	75 49                	jne    1260f <Cancel_Timer+0xd5>
   125c6:	eb 05                	jmp    125cd <Cancel_Timer+0x93>
   125c8:	b8 00 00 00 00       	mov    $0x0,%eax
   125cd:	83 ea 01             	sub    $0x1,%edx
   125d0:	c1 e0 04             	shl    $0x4,%eax
   125d3:	8d 88 20 58 02 00    	lea    0x25820(%eax),%ecx
   125d9:	89 d6                	mov    %edx,%esi
   125db:	c1 e6 04             	shl    $0x4,%esi
   125de:	8d 9e 20 58 02 00    	lea    0x25820(%esi),%ebx
   125e4:	8b b6 20 58 02 00    	mov    0x25820(%esi),%esi
   125ea:	89 b0 20 58 02 00    	mov    %esi,0x25820(%eax)
   125f0:	8b 43 04             	mov    0x4(%ebx),%eax
   125f3:	89 41 04             	mov    %eax,0x4(%ecx)
   125f6:	8b 43 08             	mov    0x8(%ebx),%eax
   125f9:	89 41 08             	mov    %eax,0x8(%ecx)
   125fc:	8b 43 0c             	mov    0xc(%ebx),%eax
   125ff:	89 41 0c             	mov    %eax,0xc(%ecx)
   12602:	89 15 c4 4b 02 00    	mov    %edx,0x24bc4
   12608:	b8 00 00 00 00       	mov    $0x0,%eax
   1260d:	eb 1c                	jmp    1262b <Cancel_Timer+0xf1>
   1260f:	83 c0 01             	add    $0x1,%eax
   12612:	39 d0                	cmp    %edx,%eax
   12614:	75 a3                	jne    125b9 <Cancel_Timer+0x7f>
   12616:	89 5c 24 04          	mov    %ebx,0x4(%esp)
   1261a:	c7 04 24 f8 f5 01 00 	movl   $0x1f5f8,(%esp)
   12621:	e8 40 ea ff ff       	call   11066 <Print>
   12626:	b8 ff ff ff ff       	mov    $0xffffffff,%eax
   1262b:	83 c4 20             	add    $0x20,%esp
   1262e:	5b                   	pop    %ebx
   1262f:	5e                   	pop    %esi
   12630:	5d                   	pop    %ebp
   12631:	c3                   	ret    

00012632 <Micro_Delay>:
   12632:	55                   	push   %ebp
   12633:	89 e5                	mov    %esp,%ebp
   12635:	53                   	push   %ebx
   12636:	8b 4d 08             	mov    0x8(%ebp),%ecx
   12639:	0f af 0d bc 4b 02 00 	imul   0x24bbc,%ecx
   12640:	ba 5b fd 4d 77       	mov    $0x774dfd5b,%edx
   12645:	89 c8                	mov    %ecx,%eax
   12647:	f7 ea                	imul   %edx
   12649:	89 d0                	mov    %edx,%eax
   1264b:	c1 f8 17             	sar    $0x17,%eax
   1264e:	89 cb                	mov    %ecx,%ebx
   12650:	c1 fb 1f             	sar    $0x1f,%ebx
   12653:	29 d8                	sub    %ebx,%eax
   12655:	69 d0 80 57 ed fe    	imul   $0xfeed5780,%eax,%edx
   1265b:	8d 14 0a             	lea    (%edx,%ecx,1),%edx
   1265e:	85 d2                	test   %edx,%edx
   12660:	0f 9f c2             	setg   %dl
   12663:	0f b6 d2             	movzbl %dl,%edx
   12666:	01 d0                	add    %edx,%eax
   12668:	e8 4f fa ff ff       	call   120bc <Spin>
   1266d:	5b                   	pop    %ebx
   1266e:	5d                   	pop    %ebp
   1266f:	c3                   	ret    

00012670 <End_Int_Atomic>:
   12670:	55                   	push   %ebp
   12671:	89 e5                	mov    %esp,%ebp
   12673:	53                   	push   %ebx
   12674:	83 ec 24             	sub    $0x24,%esp
   12677:	89 c3                	mov    %eax,%ebx
   12679:	e8 c1 db ff ff       	call   1023f <Interrupts_Enabled>
   1267e:	84 c0                	test   %al,%al
   12680:	74 4a                	je     126cc <End_Int_Atomic+0x5c>
   12682:	c7 04 24 4f 00 00 00 	movl   $0x4f,(%esp)
   12689:	e8 2d eb ff ff       	call   111bb <Set_Current_Attr>
   1268e:	a1 6c 5e 02 00       	mov    0x25e6c,%eax
   12693:	89 44 24 18          	mov    %eax,0x18(%esp)
   12697:	8b 45 04             	mov    0x4(%ebp),%eax
   1269a:	89 44 24 14          	mov    %eax,0x14(%esp)
   1269e:	c7 44 24 10 99 00 00 	movl   $0x99,0x10(%esp)
   126a5:	00 
   126a6:	c7 44 24 0c 7e f1 01 	movl   $0x1f17e,0xc(%esp)
   126ad:	00 
   126ae:	c7 44 24 08 d2 ef 01 	movl   $0x1efd2,0x8(%esp)
   126b5:	00 
   126b6:	c7 44 24 04 ea f8 01 	movl   $0x1f8ea,0x4(%esp)
   126bd:	00 
   126be:	c7 04 24 b4 ee 01 00 	movl   $0x1eeb4,(%esp)
   126c5:	e8 9c e9 ff ff       	call   11066 <Print>
   126ca:	eb fe                	jmp    126ca <End_Int_Atomic+0x5a>
   126cc:	84 db                	test   %bl,%bl
   126ce:	74 54                	je     12724 <End_Int_Atomic+0xb4>
   126d0:	e8 6a db ff ff       	call   1023f <Interrupts_Enabled>
   126d5:	84 c0                	test   %al,%al
   126d7:	74 4a                	je     12723 <End_Int_Atomic+0xb3>
   126d9:	c7 04 24 4f 00 00 00 	movl   $0x4f,(%esp)
   126e0:	e8 d6 ea ff ff       	call   111bb <Set_Current_Attr>
   126e5:	a1 6c 5e 02 00       	mov    0x25e6c,%eax
   126ea:	89 44 24 18          	mov    %eax,0x18(%esp)
   126ee:	8b 45 04             	mov    0x4(%ebp),%eax
   126f1:	89 44 24 14          	mov    %eax,0x14(%esp)
   126f5:	c7 44 24 10 9c 00 00 	movl   $0x9c,0x10(%esp)
   126fc:	00 
   126fd:	c7 44 24 0c 7e f1 01 	movl   $0x1f17e,0xc(%esp)
   12704:	00 
   12705:	c7 44 24 08 d2 ef 01 	movl   $0x1efd2,0x8(%esp)
   1270c:	00 
   1270d:	c7 44 24 04 ea f8 01 	movl   $0x1f8ea,0x4(%esp)
   12714:	00 
   12715:	c7 04 24 b4 ee 01 00 	movl   $0x1eeb4,(%esp)
   1271c:	e8 45 e9 ff ff       	call   11066 <Print>
   12721:	eb fe                	jmp    12721 <End_Int_Atomic+0xb1>
   12723:	fb                   	sti    
   12724:	83 c4 24             	add    $0x24,%esp
   12727:	5b                   	pop    %ebx
   12728:	5d                   	pop    %ebp
   12729:	c3                   	ret    

0001272a <Add_Page_Range>:
   1272a:	55                   	push   %ebp
   1272b:	89 e5                	mov    %esp,%ebp
   1272d:	56                   	push   %esi
   1272e:	53                   	push   %ebx
   1272f:	83 ec 20             	sub    $0x20,%esp
   12732:	89 c3                	mov    %eax,%ebx
   12734:	25 00 f0 ff ff       	and    $0xfffff000,%eax
   12739:	39 c3                	cmp    %eax,%ebx
   1273b:	74 4a                	je     12787 <Add_Page_Range+0x5d>
   1273d:	c7 04 24 4f 00 00 00 	movl   $0x4f,(%esp)
   12744:	e8 72 ea ff ff       	call   111bb <Set_Current_Attr>
   12749:	a1 6c 5e 02 00       	mov    0x25e6c,%eax
   1274e:	89 44 24 18          	mov    %eax,0x18(%esp)
   12752:	8b 45 04             	mov    0x4(%ebp),%eax
   12755:	89 44 24 14          	mov    %eax,0x14(%esp)
   12759:	c7 44 24 10 40 00 00 	movl   $0x40,0x10(%esp)
   12760:	00 
   12761:	c7 44 24 0c 69 f6 01 	movl   $0x1f669,0xc(%esp)
   12768:	00 
   12769:	c7 44 24 08 7d f6 01 	movl   $0x1f67d,0x8(%esp)
   12770:	00 
   12771:	c7 44 24 04 2e f9 01 	movl   $0x1f92e,0x4(%esp)
   12778:	00 
   12779:	c7 04 24 b4 ee 01 00 	movl   $0x1eeb4,(%esp)
   12780:	e8 e1 e8 ff ff       	call   11066 <Print>
   12785:	eb fe                	jmp    12785 <Add_Page_Range+0x5b>
   12787:	89 d6                	mov    %edx,%esi
   12789:	89 d0                	mov    %edx,%eax
   1278b:	25 00 f0 ff ff       	and    $0xfffff000,%eax
   12790:	39 c2                	cmp    %eax,%edx
   12792:	74 4a                	je     127de <Add_Page_Range+0xb4>
   12794:	c7 04 24 4f 00 00 00 	movl   $0x4f,(%esp)
   1279b:	e8 1b ea ff ff       	call   111bb <Set_Current_Attr>
   127a0:	a1 6c 5e 02 00       	mov    0x25e6c,%eax
   127a5:	89 44 24 18          	mov    %eax,0x18(%esp)
   127a9:	8b 45 04             	mov    0x4(%ebp),%eax
   127ac:	89 44 24 14          	mov    %eax,0x14(%esp)
   127b0:	c7 44 24 10 41 00 00 	movl   $0x41,0x10(%esp)
   127b7:	00 
   127b8:	c7 44 24 0c 69 f6 01 	movl   $0x1f669,0xc(%esp)
   127bf:	00 
   127c0:	c7 44 24 08 95 f6 01 	movl   $0x1f695,0x8(%esp)
   127c7:	00 
   127c8:	c7 44 24 04 2e f9 01 	movl   $0x1f92e,0x4(%esp)
   127cf:	00 
   127d0:	c7 04 24 b4 ee 01 00 	movl   $0x1eeb4,(%esp)
   127d7:	e8 8a e8 ff ff       	call   11066 <Print>
   127dc:	eb fe                	jmp    127dc <Add_Page_Range+0xb2>
   127de:	39 d3                	cmp    %edx,%ebx
   127e0:	72 4a                	jb     1282c <Add_Page_Range+0x102>
   127e2:	c7 04 24 4f 00 00 00 	movl   $0x4f,(%esp)
   127e9:	e8 cd e9 ff ff       	call   111bb <Set_Current_Attr>
   127ee:	a1 6c 5e 02 00       	mov    0x25e6c,%eax
   127f3:	89 44 24 18          	mov    %eax,0x18(%esp)
   127f7:	8b 45 04             	mov    0x4(%ebp),%eax
   127fa:	89 44 24 14          	mov    %eax,0x14(%esp)
   127fe:	c7 44 24 10 42 00 00 	movl   $0x42,0x10(%esp)
   12805:	00 
   12806:	c7 44 24 0c 69 f6 01 	movl   $0x1f669,0xc(%esp)
   1280d:	00 
   1280e:	c7 44 24 08 ab f6 01 	movl   $0x1f6ab,0x8(%esp)
   12815:	00 
   12816:	c7 44 24 04 2e f9 01 	movl   $0x1f92e,0x4(%esp)
   1281d:	00 
   1281e:	c7 04 24 b4 ee 01 00 	movl   $0x1eeb4,(%esp)
   12825:	e8 3c e8 ff ff       	call   11066 <Print>
   1282a:	eb fe                	jmp    1282a <Add_Page_Range+0x100>
   1282c:	89 d8                	mov    %ebx,%eax
   1282e:	c1 e8 0c             	shr    $0xc,%eax
   12831:	8d 14 40             	lea    (%eax,%eax,2),%edx
   12834:	a1 60 5e 02 00       	mov    0x25e60,%eax
   12839:	8d 04 d0             	lea    (%eax,%edx,8),%eax
   1283c:	89 08                	mov    %ecx,(%eax)
   1283e:	85 c9                	test   %ecx,%ecx
   12840:	75 4e                	jne    12890 <Add_Page_Range+0x166>
   12842:	8b 15 cc 4b 02 00    	mov    0x24bcc,%edx
   12848:	85 d2                	test   %edx,%edx
   1284a:	0f 84 c0 00 00 00    	je     12910 <Add_Page_Range+0x1e6>
   12850:	39 d0                	cmp    %edx,%eax
   12852:	75 06                	jne    1285a <Add_Page_Range+0x130>
   12854:	eb 6d                	jmp    128c3 <Add_Page_Range+0x199>
   12856:	39 d0                	cmp    %edx,%eax
   12858:	74 69                	je     128c3 <Add_Page_Range+0x199>
   1285a:	8b 52 08             	mov    0x8(%edx),%edx
   1285d:	85 d2                	test   %edx,%edx
   1285f:	90                   	nop
   12860:	75 f4                	jne    12856 <Add_Page_Range+0x12c>
   12862:	e9 a9 00 00 00       	jmp    12910 <Add_Page_Range+0x1e6>
   12867:	eb fe                	jmp    12867 <Add_Page_Range+0x13d>
   12869:	a3 d0 4b 02 00       	mov    %eax,0x24bd0
   1286e:	a3 cc 4b 02 00       	mov    %eax,0x24bcc
   12873:	c7 40 04 00 00 00 00 	movl   $0x0,0x4(%eax)
   1287a:	eb 0b                	jmp    12887 <Add_Page_Range+0x15d>
   1287c:	89 42 08             	mov    %eax,0x8(%edx)
   1287f:	89 50 04             	mov    %edx,0x4(%eax)
   12882:	a3 d0 4b 02 00       	mov    %eax,0x24bd0
   12887:	83 05 c8 4b 02 00 01 	addl   $0x1,0x24bc8
   1288e:	eb 0e                	jmp    1289e <Add_Page_Range+0x174>
   12890:	c7 40 08 00 00 00 00 	movl   $0x0,0x8(%eax)
   12897:	c7 40 04 00 00 00 00 	movl   $0x0,0x4(%eax)
   1289e:	c7 40 0c 00 00 00 00 	movl   $0x0,0xc(%eax)
   128a5:	c7 40 10 00 00 00 00 	movl   $0x0,0x10(%eax)
   128ac:	c7 40 14 00 00 00 00 	movl   $0x0,0x14(%eax)
   128b3:	81 c3 00 10 00 00    	add    $0x1000,%ebx
   128b9:	39 de                	cmp    %ebx,%esi
   128bb:	0f 87 6b ff ff ff    	ja     1282c <Add_Page_Range+0x102>
   128c1:	eb 67                	jmp    1292a <Add_Page_Range+0x200>
   128c3:	c7 04 24 4f 00 00 00 	movl   $0x4f,(%esp)
   128ca:	e8 ec e8 ff ff       	call   111bb <Set_Current_Attr>
   128cf:	a1 6c 5e 02 00       	mov    0x25e6c,%eax
   128d4:	89 44 24 18          	mov    %eax,0x18(%esp)
   128d8:	8b 45 04             	mov    0x4(%ebp),%eax
   128db:	89 44 24 14          	mov    %eax,0x14(%esp)
   128df:	c7 44 24 10 45 00 00 	movl   $0x45,0x10(%esp)
   128e6:	00 
   128e7:	c7 44 24 0c b7 f6 01 	movl   $0x1f6b7,0xc(%esp)
   128ee:	00 
   128ef:	c7 44 24 08 6c f7 01 	movl   $0x1f76c,0x8(%esp)
   128f6:	00 
   128f7:	c7 44 24 04 15 f9 01 	movl   $0x1f915,0x4(%esp)
   128fe:	00 
   128ff:	c7 04 24 b4 ee 01 00 	movl   $0x1eeb4,(%esp)
   12906:	e8 5b e7 ff ff       	call   11066 <Print>
   1290b:	e9 57 ff ff ff       	jmp    12867 <Add_Page_Range+0x13d>
   12910:	c7 40 08 00 00 00 00 	movl   $0x0,0x8(%eax)
   12917:	8b 15 d0 4b 02 00    	mov    0x24bd0,%edx
   1291d:	85 d2                	test   %edx,%edx
   1291f:	0f 85 57 ff ff ff    	jne    1287c <Add_Page_Range+0x152>
   12925:	e9 3f ff ff ff       	jmp    12869 <Add_Page_Range+0x13f>
   1292a:	83 c4 20             	add    $0x20,%esp
   1292d:	5b                   	pop    %ebx
   1292e:	5e                   	pop    %esi
   1292f:	5d                   	pop    %ebp
   12930:	c3                   	ret    

00012931 <Init_Mem>:
   12931:	55                   	push   %ebp
   12932:	89 e5                	mov    %esp,%ebp
   12934:	57                   	push   %edi
   12935:	56                   	push   %esi
   12936:	53                   	push   %ebx
   12937:	83 ec 2c             	sub    $0x2c,%esp
   1293a:	8b 7d 08             	mov    0x8(%ebp),%edi
   1293d:	8b 47 04             	mov    0x4(%edi),%eax
   12940:	89 c6                	mov    %eax,%esi
   12942:	c1 fe 02             	sar    $0x2,%esi
   12945:	89 f2                	mov    %esi,%edx
   12947:	c1 e2 0c             	shl    $0xc,%edx
   1294a:	89 55 e4             	mov    %edx,-0x1c(%ebp)
   1294d:	8d 1c 76             	lea    (%esi,%esi,2),%ebx
   12950:	c1 e3 03             	shl    $0x3,%ebx
   12953:	85 c0                	test   %eax,%eax
   12955:	7f 4a                	jg     129a1 <Init_Mem+0x70>
   12957:	c7 04 24 4f 00 00 00 	movl   $0x4f,(%esp)
   1295e:	e8 58 e8 ff ff       	call   111bb <Set_Current_Attr>
   12963:	a1 6c 5e 02 00       	mov    0x25e6c,%eax
   12968:	89 44 24 18          	mov    %eax,0x18(%esp)
   1296c:	8b 45 04             	mov    0x4(%ebp),%eax
   1296f:	89 44 24 14          	mov    %eax,0x14(%esp)
   12973:	c7 44 24 10 70 00 00 	movl   $0x70,0x10(%esp)
   1297a:	00 
   1297b:	c7 44 24 0c 69 f6 01 	movl   $0x1f669,0xc(%esp)
   12982:	00 
   12983:	c7 44 24 08 cf f6 01 	movl   $0x1f6cf,0x8(%esp)
   1298a:	00 
   1298b:	c7 44 24 04 3d f9 01 	movl   $0x1f93d,0x4(%esp)
   12992:	00 
   12993:	c7 04 24 b4 ee 01 00 	movl   $0x1eeb4,(%esp)
   1299a:	e8 c7 e6 ff ff       	call   11066 <Print>
   1299f:	eb fe                	jmp    1299f <Init_Mem+0x6e>
   129a1:	e8 08 0d 00 00       	call   136ae <Init_GDT>
   129a6:	b8 90 5e 02 00       	mov    $0x25e90,%eax
   129ab:	a9 ff 0f 00 00       	test   $0xfff,%eax
   129b0:	74 0a                	je     129bc <Init_Mem+0x8b>
   129b2:	25 00 f0 ff ff       	and    $0xfffff000,%eax
   129b7:	05 00 10 00 00       	add    $0x1000,%eax
   129bc:	a3 60 5e 02 00       	mov    %eax,0x25e60
   129c1:	01 c3                	add    %eax,%ebx
   129c3:	f7 c3 ff 0f 00 00    	test   $0xfff,%ebx
   129c9:	74 0c                	je     129d7 <Init_Mem+0xa6>
   129cb:	81 e3 00 f0 ff ff    	and    $0xfffff000,%ebx
   129d1:	81 c3 00 10 00 00    	add    $0x1000,%ebx
   129d7:	89 35 64 5e 02 00    	mov    %esi,0x25e64
   129dd:	b9 08 00 00 00       	mov    $0x8,%ecx
   129e2:	ba 00 10 00 00       	mov    $0x1000,%edx
   129e7:	b8 00 00 00 00       	mov    $0x0,%eax
   129ec:	e8 39 fd ff ff       	call   1272a <Add_Page_Range>
   129f1:	b9 00 00 00 00       	mov    $0x0,%ecx
   129f6:	ba 00 00 01 00       	mov    $0x10000,%edx
   129fb:	b8 00 10 00 00       	mov    $0x1000,%eax
   12a00:	e8 25 fd ff ff       	call   1272a <Add_Page_Range>
   12a05:	b9 01 00 00 00       	mov    $0x1,%ecx
   12a0a:	89 da                	mov    %ebx,%edx
   12a0c:	b8 00 00 01 00       	mov    $0x10000,%eax
   12a11:	e8 14 fd ff ff       	call   1272a <Add_Page_Range>
   12a16:	b9 00 00 00 00       	mov    $0x0,%ecx
   12a1b:	ba 00 00 0a 00       	mov    $0xa0000,%edx
   12a20:	89 d8                	mov    %ebx,%eax
   12a22:	e8 03 fd ff ff       	call   1272a <Add_Page_Range>
   12a27:	b9 02 00 00 00       	mov    $0x2,%ecx
   12a2c:	ba 00 00 10 00       	mov    $0x100000,%edx
   12a31:	b8 00 00 0a 00       	mov    $0xa0000,%eax
   12a36:	e8 ef fc ff ff       	call   1272a <Add_Page_Range>
   12a3b:	b9 04 00 00 00       	mov    $0x4,%ecx
   12a40:	ba 00 20 10 00       	mov    $0x102000,%edx
   12a45:	b8 00 00 10 00       	mov    $0x100000,%eax
   12a4a:	e8 db fc ff ff       	call   1272a <Add_Page_Range>
   12a4f:	b9 10 00 00 00       	mov    $0x10,%ecx
   12a54:	ba 00 20 20 00       	mov    $0x202000,%edx
   12a59:	b8 00 20 10 00       	mov    $0x102000,%eax
   12a5e:	e8 c7 fc ff ff       	call   1272a <Add_Page_Range>
   12a63:	b9 00 00 00 00       	mov    $0x0,%ecx
   12a68:	8b 55 e4             	mov    -0x1c(%ebp),%edx
   12a6b:	b8 00 20 20 00       	mov    $0x202000,%eax
   12a70:	e8 b5 fc ff ff       	call   1272a <Add_Page_Range>
   12a75:	c7 44 24 04 00 00 10 	movl   $0x100000,0x4(%esp)
   12a7c:	00 
   12a7d:	c7 04 24 00 20 10 00 	movl   $0x102000,(%esp)
   12a84:	e8 97 19 00 00       	call   14420 <Init_Heap>
   12a89:	c7 44 24 0c 00 00 10 	movl   $0x100000,0xc(%esp)
   12a90:	00 
   12a91:	a1 c8 4b 02 00       	mov    0x24bc8,%eax
   12a96:	89 44 24 08          	mov    %eax,0x8(%esp)
   12a9a:	8b 47 04             	mov    0x4(%edi),%eax
   12a9d:	89 44 24 04          	mov    %eax,0x4(%esp)
   12aa1:	c7 04 24 98 f7 01 00 	movl   $0x1f798,(%esp)
   12aa8:	e8 b9 e5 ff ff       	call   11066 <Print>
   12aad:	83 c4 2c             	add    $0x2c,%esp
   12ab0:	5b                   	pop    %ebx
   12ab1:	5e                   	pop    %esi
   12ab2:	5f                   	pop    %edi
   12ab3:	5d                   	pop    %ebp
   12ab4:	c3                   	ret    

00012ab5 <Init_BSS>:
   12ab5:	55                   	push   %ebp
   12ab6:	89 e5                	mov    %esp,%ebp
   12ab8:	83 ec 18             	sub    $0x18,%esp
   12abb:	b8 90 5e 02 00       	mov    $0x25e90,%eax
   12ac0:	2d 3c 41 02 00       	sub    $0x2413c,%eax
   12ac5:	89 44 24 08          	mov    %eax,0x8(%esp)
   12ac9:	c7 44 24 04 00 00 00 	movl   $0x0,0x4(%esp)
   12ad0:	00 
   12ad1:	c7 04 24 3c 41 02 00 	movl   $0x2413c,(%esp)
   12ad8:	e8 f4 be 00 00       	call   1e9d1 <memset>
   12add:	c9                   	leave  
   12ade:	c3                   	ret    

00012adf <Alloc_Page>:
   12adf:	55                   	push   %ebp
   12ae0:	89 e5                	mov    %esp,%ebp
   12ae2:	56                   	push   %esi
   12ae3:	53                   	push   %ebx
   12ae4:	83 ec 20             	sub    $0x20,%esp
   12ae7:	e8 53 d7 ff ff       	call   1023f <Interrupts_Enabled>
   12aec:	89 c3                	mov    %eax,%ebx
   12aee:	84 c0                	test   %al,%al
   12af0:	74 54                	je     12b46 <Alloc_Page+0x67>
   12af2:	e8 48 d7 ff ff       	call   1023f <Interrupts_Enabled>
   12af7:	84 c0                	test   %al,%al
   12af9:	75 4a                	jne    12b45 <Alloc_Page+0x66>
   12afb:	c7 04 24 4f 00 00 00 	movl   $0x4f,(%esp)
   12b02:	e8 b4 e6 ff ff       	call   111bb <Set_Current_Attr>
   12b07:	a1 6c 5e 02 00       	mov    0x25e6c,%eax
   12b0c:	89 44 24 18          	mov    %eax,0x18(%esp)
   12b10:	8b 45 04             	mov    0x4(%ebp),%eax
   12b13:	89 44 24 14          	mov    %eax,0x14(%esp)
   12b17:	c7 44 24 10 8f 00 00 	movl   $0x8f,0x10(%esp)
   12b1e:	00 
   12b1f:	c7 44 24 0c 7e f1 01 	movl   $0x1f17e,0xc(%esp)
   12b26:	00 
   12b27:	c7 44 24 08 d3 ef 01 	movl   $0x1efd3,0x8(%esp)
   12b2e:	00 
   12b2f:	c7 44 24 04 f9 f8 01 	movl   $0x1f8f9,0x4(%esp)
   12b36:	00 
   12b37:	c7 04 24 b4 ee 01 00 	movl   $0x1eeb4,(%esp)
   12b3e:	e8 23 e5 ff ff       	call   11066 <Print>
   12b43:	eb fe                	jmp    12b43 <Alloc_Page+0x64>
   12b45:	fa                   	cli    
   12b46:	8b 15 cc 4b 02 00    	mov    0x24bcc,%edx
   12b4c:	85 d2                	test   %edx,%edx
   12b4e:	0f 84 8f 00 00 00    	je     12be3 <Alloc_Page+0x104>
   12b54:	f6 02 04             	testb  $0x4,(%edx)
   12b57:	74 4a                	je     12ba3 <Alloc_Page+0xc4>
   12b59:	c7 04 24 4f 00 00 00 	movl   $0x4f,(%esp)
   12b60:	e8 56 e6 ff ff       	call   111bb <Set_Current_Attr>
   12b65:	a1 6c 5e 02 00       	mov    0x25e6c,%eax
   12b6a:	89 44 24 18          	mov    %eax,0x18(%esp)
   12b6e:	8b 45 04             	mov    0x4(%ebp),%eax
   12b71:	89 44 24 14          	mov    %eax,0x14(%esp)
   12b75:	c7 44 24 10 bf 00 00 	movl   $0xbf,0x10(%esp)
   12b7c:	00 
   12b7d:	c7 44 24 0c 69 f6 01 	movl   $0x1f669,0xc(%esp)
   12b84:	00 
   12b85:	c7 44 24 08 e0 f7 01 	movl   $0x1f7e0,0x8(%esp)
   12b8c:	00 
   12b8d:	c7 44 24 04 0a f9 01 	movl   $0x1f90a,0x4(%esp)
   12b94:	00 
   12b95:	c7 04 24 b4 ee 01 00 	movl   $0x1eeb4,(%esp)
   12b9c:	e8 c5 e4 ff ff       	call   11066 <Print>
   12ba1:	eb fe                	jmp    12ba1 <Alloc_Page+0xc2>
   12ba3:	8b 4a 08             	mov    0x8(%edx),%ecx
   12ba6:	89 0d cc 4b 02 00    	mov    %ecx,0x24bcc
   12bac:	85 c9                	test   %ecx,%ecx
   12bae:	75 0c                	jne    12bbc <Alloc_Page+0xdd>
   12bb0:	c7 05 d0 4b 02 00 00 	movl   $0x0,0x24bd0
   12bb7:	00 00 00 
   12bba:	eb 07                	jmp    12bc3 <Alloc_Page+0xe4>
   12bbc:	c7 41 04 00 00 00 00 	movl   $0x0,0x4(%ecx)
   12bc3:	83 0a 04             	orl    $0x4,(%edx)
   12bc6:	83 2d c8 4b 02 00 01 	subl   $0x1,0x24bc8
   12bcd:	2b 15 60 5e 02 00    	sub    0x25e60,%edx
   12bd3:	89 d6                	mov    %edx,%esi
   12bd5:	c1 fe 03             	sar    $0x3,%esi
   12bd8:	69 f6 ab aa aa aa    	imul   $0xaaaaaaab,%esi,%esi
   12bde:	c1 e6 0c             	shl    $0xc,%esi
   12be1:	eb 05                	jmp    12be8 <Alloc_Page+0x109>
   12be3:	be 00 00 00 00       	mov    $0x0,%esi
   12be8:	e8 52 d6 ff ff       	call   1023f <Interrupts_Enabled>
   12bed:	84 c0                	test   %al,%al
   12bef:	74 4a                	je     12c3b <Alloc_Page+0x15c>
   12bf1:	c7 04 24 4f 00 00 00 	movl   $0x4f,(%esp)
   12bf8:	e8 be e5 ff ff       	call   111bb <Set_Current_Attr>
   12bfd:	a1 6c 5e 02 00       	mov    0x25e6c,%eax
   12c02:	89 44 24 18          	mov    %eax,0x18(%esp)
   12c06:	8b 45 04             	mov    0x4(%ebp),%eax
   12c09:	89 44 24 14          	mov    %eax,0x14(%esp)
   12c0d:	c7 44 24 10 99 00 00 	movl   $0x99,0x10(%esp)
   12c14:	00 
   12c15:	c7 44 24 0c 7e f1 01 	movl   $0x1f17e,0xc(%esp)
   12c1c:	00 
   12c1d:	c7 44 24 08 d2 ef 01 	movl   $0x1efd2,0x8(%esp)
   12c24:	00 
   12c25:	c7 44 24 04 ea f8 01 	movl   $0x1f8ea,0x4(%esp)
   12c2c:	00 
   12c2d:	c7 04 24 b4 ee 01 00 	movl   $0x1eeb4,(%esp)
   12c34:	e8 2d e4 ff ff       	call   11066 <Print>
   12c39:	eb fe                	jmp    12c39 <Alloc_Page+0x15a>
   12c3b:	84 db                	test   %bl,%bl
   12c3d:	74 55                	je     12c94 <Alloc_Page+0x1b5>
   12c3f:	90                   	nop
   12c40:	e8 fa d5 ff ff       	call   1023f <Interrupts_Enabled>
   12c45:	84 c0                	test   %al,%al
   12c47:	74 4a                	je     12c93 <Alloc_Page+0x1b4>
   12c49:	c7 04 24 4f 00 00 00 	movl   $0x4f,(%esp)
   12c50:	e8 66 e5 ff ff       	call   111bb <Set_Current_Attr>
   12c55:	a1 6c 5e 02 00       	mov    0x25e6c,%eax
   12c5a:	89 44 24 18          	mov    %eax,0x18(%esp)
   12c5e:	8b 45 04             	mov    0x4(%ebp),%eax
   12c61:	89 44 24 14          	mov    %eax,0x14(%esp)
   12c65:	c7 44 24 10 9c 00 00 	movl   $0x9c,0x10(%esp)
   12c6c:	00 
   12c6d:	c7 44 24 0c 7e f1 01 	movl   $0x1f17e,0xc(%esp)
   12c74:	00 
   12c75:	c7 44 24 08 d2 ef 01 	movl   $0x1efd2,0x8(%esp)
   12c7c:	00 
   12c7d:	c7 44 24 04 ea f8 01 	movl   $0x1f8ea,0x4(%esp)
   12c84:	00 
   12c85:	c7 04 24 b4 ee 01 00 	movl   $0x1eeb4,(%esp)
   12c8c:	e8 d5 e3 ff ff       	call   11066 <Print>
   12c91:	eb fe                	jmp    12c91 <Alloc_Page+0x1b2>
   12c93:	fb                   	sti    
   12c94:	89 f0                	mov    %esi,%eax
   12c96:	83 c4 20             	add    $0x20,%esp
   12c99:	5b                   	pop    %ebx
   12c9a:	5e                   	pop    %esi
   12c9b:	5d                   	pop    %ebp
   12c9c:	c3                   	ret    

00012c9d <Alloc_Pageable_Page>:
   12c9d:	55                   	push   %ebp
   12c9e:	89 e5                	mov    %esp,%ebp
   12ca0:	57                   	push   %edi
   12ca1:	56                   	push   %esi
   12ca2:	53                   	push   %ebx
   12ca3:	83 ec 2c             	sub    $0x2c,%esp
   12ca6:	e8 94 d5 ff ff       	call   1023f <Interrupts_Enabled>
   12cab:	88 45 e7             	mov    %al,-0x19(%ebp)
   12cae:	84 c0                	test   %al,%al
   12cb0:	74 54                	je     12d06 <Alloc_Pageable_Page+0x69>
   12cb2:	e8 88 d5 ff ff       	call   1023f <Interrupts_Enabled>
   12cb7:	84 c0                	test   %al,%al
   12cb9:	75 4a                	jne    12d05 <Alloc_Pageable_Page+0x68>
   12cbb:	c7 04 24 4f 00 00 00 	movl   $0x4f,(%esp)
   12cc2:	e8 f4 e4 ff ff       	call   111bb <Set_Current_Attr>
   12cc7:	a1 6c 5e 02 00       	mov    0x25e6c,%eax
   12ccc:	89 44 24 18          	mov    %eax,0x18(%esp)
   12cd0:	8b 45 04             	mov    0x4(%ebp),%eax
   12cd3:	89 44 24 14          	mov    %eax,0x14(%esp)
   12cd7:	c7 44 24 10 8f 00 00 	movl   $0x8f,0x10(%esp)
   12cde:	00 
   12cdf:	c7 44 24 0c 7e f1 01 	movl   $0x1f17e,0xc(%esp)
   12ce6:	00 
   12ce7:	c7 44 24 08 d3 ef 01 	movl   $0x1efd3,0x8(%esp)
   12cee:	00 
   12cef:	c7 44 24 04 f9 f8 01 	movl   $0x1f8f9,0x4(%esp)
   12cf6:	00 
   12cf7:	c7 04 24 b4 ee 01 00 	movl   $0x1eeb4,(%esp)
   12cfe:	e8 63 e3 ff ff       	call   11066 <Print>
   12d03:	eb fe                	jmp    12d03 <Alloc_Pageable_Page+0x66>
   12d05:	fa                   	cli    
   12d06:	e8 34 d5 ff ff       	call   1023f <Interrupts_Enabled>
   12d0b:	84 c0                	test   %al,%al
   12d0d:	8d 76 00             	lea    0x0(%esi),%esi
   12d10:	74 4a                	je     12d5c <Alloc_Pageable_Page+0xbf>
   12d12:	c7 04 24 4f 00 00 00 	movl   $0x4f,(%esp)
   12d19:	e8 9d e4 ff ff       	call   111bb <Set_Current_Attr>
   12d1e:	a1 6c 5e 02 00       	mov    0x25e6c,%eax
   12d23:	89 44 24 18          	mov    %eax,0x18(%esp)
   12d27:	8b 45 04             	mov    0x4(%ebp),%eax
   12d2a:	89 44 24 14          	mov    %eax,0x14(%esp)
   12d2e:	c7 44 24 10 f7 00 00 	movl   $0xf7,0x10(%esp)
   12d35:	00 
   12d36:	c7 44 24 0c 69 f6 01 	movl   $0x1f669,0xc(%esp)
   12d3d:	00 
   12d3e:	c7 44 24 08 d2 ef 01 	movl   $0x1efd2,0x8(%esp)
   12d45:	00 
   12d46:	c7 44 24 04 d6 f8 01 	movl   $0x1f8d6,0x4(%esp)
   12d4d:	00 
   12d4e:	c7 04 24 b4 ee 01 00 	movl   $0x1eeb4,(%esp)
   12d55:	e8 0c e3 ff ff       	call   11066 <Print>
   12d5a:	eb fe                	jmp    12d5a <Alloc_Pageable_Page+0xbd>
   12d5c:	8b 45 0c             	mov    0xc(%ebp),%eax
   12d5f:	25 00 f0 ff ff       	and    $0xfffff000,%eax
   12d64:	39 45 0c             	cmp    %eax,0xc(%ebp)
   12d67:	74 4a                	je     12db3 <Alloc_Pageable_Page+0x116>
   12d69:	c7 04 24 4f 00 00 00 	movl   $0x4f,(%esp)
   12d70:	e8 46 e4 ff ff       	call   111bb <Set_Current_Attr>
   12d75:	a1 6c 5e 02 00       	mov    0x25e6c,%eax
   12d7a:	89 44 24 18          	mov    %eax,0x18(%esp)
   12d7e:	8b 45 04             	mov    0x4(%ebp),%eax
   12d81:	89 44 24 14          	mov    %eax,0x14(%esp)
   12d85:	c7 44 24 10 f8 00 00 	movl   $0xf8,0x10(%esp)
   12d8c:	00 
   12d8d:	c7 44 24 0c 69 f6 01 	movl   $0x1f669,0xc(%esp)
   12d94:	00 
   12d95:	c7 44 24 08 e7 f6 01 	movl   $0x1f6e7,0x8(%esp)
   12d9c:	00 
   12d9d:	c7 44 24 04 d6 f8 01 	movl   $0x1f8d6,0x4(%esp)
   12da4:	00 
   12da5:	c7 04 24 b4 ee 01 00 	movl   $0x1eeb4,(%esp)
   12dac:	e8 b5 e2 ff ff       	call   11066 <Print>
   12db1:	eb fe                	jmp    12db1 <Alloc_Pageable_Page+0x114>
   12db3:	e8 27 fd ff ff       	call   12adf <Alloc_Page>
   12db8:	89 c6                	mov    %eax,%esi
   12dba:	85 c0                	test   %eax,%eax
   12dbc:	8d 74 26 00          	lea    0x0(%esi,%eiz,1),%esi
   12dc0:	74 61                	je     12e23 <Alloc_Pageable_Page+0x186>
   12dc2:	c1 e8 0c             	shr    $0xc,%eax
   12dc5:	8d 14 40             	lea    (%eax,%eax,2),%edx
   12dc8:	a1 60 5e 02 00       	mov    0x25e60,%eax
   12dcd:	8d 1c d0             	lea    (%eax,%edx,8),%ebx
   12dd0:	f6 03 20             	testb  $0x20,(%ebx)
   12dd3:	0f 84 82 02 00 00    	je     1305b <Alloc_Pageable_Page+0x3be>
   12dd9:	c7 04 24 4f 00 00 00 	movl   $0x4f,(%esp)
   12de0:	e8 d6 e3 ff ff       	call   111bb <Set_Current_Attr>
   12de5:	a1 6c 5e 02 00       	mov    0x25e6c,%eax
   12dea:	89 44 24 18          	mov    %eax,0x18(%esp)
   12dee:	8b 45 04             	mov    0x4(%ebp),%eax
   12df1:	89 44 24 14          	mov    %eax,0x14(%esp)
   12df5:	c7 44 24 10 fd 00 00 	movl   $0xfd,0x10(%esp)
   12dfc:	00 
   12dfd:	c7 44 24 0c 69 f6 01 	movl   $0x1f669,0xc(%esp)
   12e04:	00 
   12e05:	c7 44 24 08 04 f8 01 	movl   $0x1f804,0x8(%esp)
   12e0c:	00 
   12e0d:	c7 44 24 04 d6 f8 01 	movl   $0x1f8d6,0x4(%esp)
   12e14:	00 
   12e15:	c7 04 24 b4 ee 01 00 	movl   $0x1eeb4,(%esp)
   12e1c:	e8 45 e2 ff ff       	call   11066 <Print>
   12e21:	eb fe                	jmp    12e21 <Alloc_Pageable_Page+0x184>
   12e23:	83 3d e4 53 02 00 00 	cmpl   $0x0,0x253e4
   12e2a:	74 0c                	je     12e38 <Alloc_Pageable_Page+0x19b>
   12e2c:	c7 04 24 28 f8 01 00 	movl   $0x1f828,(%esp)
   12e33:	e8 2e e2 ff ff       	call   11066 <Print>
   12e38:	8b 3d 64 5e 02 00    	mov    0x25e64,%edi
   12e3e:	85 ff                	test   %edi,%edi
   12e40:	74 45                	je     12e87 <Alloc_Pageable_Page+0x1ea>
   12e42:	8b 0d 60 5e 02 00    	mov    0x25e60,%ecx
   12e48:	ba 00 00 00 00       	mov    $0x0,%edx
   12e4d:	bb 00 00 00 00       	mov    $0x0,%ebx
   12e52:	b8 00 00 00 00       	mov    $0x0,%eax
   12e57:	8d 04 40             	lea    (%eax,%eax,2),%eax
   12e5a:	8d 04 c1             	lea    (%ecx,%eax,8),%eax
   12e5d:	8b 30                	mov    (%eax),%esi
   12e5f:	83 e6 24             	and    $0x24,%esi
   12e62:	83 fe 24             	cmp    $0x24,%esi
   12e65:	75 15                	jne    12e7c <Alloc_Pageable_Page+0x1df>
   12e67:	85 db                	test   %ebx,%ebx
   12e69:	0f 44 d8             	cmove  %eax,%ebx
   12e6c:	8b 73 0c             	mov    0xc(%ebx),%esi
   12e6f:	39 70 0c             	cmp    %esi,0xc(%eax)
   12e72:	7d 08                	jge    12e7c <Alloc_Pageable_Page+0x1df>
   12e74:	8b 30                	mov    (%eax),%esi
   12e76:	83 e6 20             	and    $0x20,%esi
   12e79:	0f 45 d8             	cmovne %eax,%ebx
   12e7c:	83 c2 01             	add    $0x1,%edx
   12e7f:	89 d0                	mov    %edx,%eax
   12e81:	39 fa                	cmp    %edi,%edx
   12e83:	75 d2                	jne    12e57 <Alloc_Pageable_Page+0x1ba>
   12e85:	eb 05                	jmp    12e8c <Alloc_Pageable_Page+0x1ef>
   12e87:	bb 00 00 00 00       	mov    $0x0,%ebx
   12e8c:	f6 03 20             	testb  $0x20,(%ebx)
   12e8f:	75 4a                	jne    12edb <Alloc_Pageable_Page+0x23e>
   12e91:	c7 04 24 4f 00 00 00 	movl   $0x4f,(%esp)
   12e98:	e8 1e e3 ff ff       	call   111bb <Set_Current_Attr>
   12e9d:	a1 6c 5e 02 00       	mov    0x25e6c,%eax
   12ea2:	89 44 24 18          	mov    %eax,0x18(%esp)
   12ea6:	8b 45 04             	mov    0x4(%ebp),%eax
   12ea9:	89 44 24 14          	mov    %eax,0x14(%esp)
   12ead:	c7 44 24 10 04 01 00 	movl   $0x104,0x10(%esp)
   12eb4:	00 
   12eb5:	c7 44 24 0c 69 f6 01 	movl   $0x1f669,0xc(%esp)
   12ebc:	00 
   12ebd:	c7 44 24 08 ff f6 01 	movl   $0x1f6ff,0x8(%esp)
   12ec4:	00 
   12ec5:	c7 44 24 04 d6 f8 01 	movl   $0x1f8d6,0x4(%esp)
   12ecc:	00 
   12ecd:	c7 04 24 b4 ee 01 00 	movl   $0x1eeb4,(%esp)
   12ed4:	e8 8d e1 ff ff       	call   11066 <Print>
   12ed9:	eb fe                	jmp    12ed9 <Alloc_Pageable_Page+0x23c>
   12edb:	89 de                	mov    %ebx,%esi
   12edd:	2b 35 60 5e 02 00    	sub    0x25e60,%esi
   12ee3:	c1 fe 03             	sar    $0x3,%esi
   12ee6:	69 f6 ab aa aa aa    	imul   $0xaaaaaaab,%esi,%esi
   12eec:	c1 e6 0c             	shl    $0xc,%esi
   12eef:	83 3d e4 53 02 00 00 	cmpl   $0x0,0x253e4
   12ef6:	74 17                	je     12f0f <Alloc_Pageable_Page+0x272>
   12ef8:	8b 43 0c             	mov    0xc(%ebx),%eax
   12efb:	89 44 24 08          	mov    %eax,0x8(%esp)
   12eff:	89 74 24 04          	mov    %esi,0x4(%esp)
   12f03:	c7 04 24 50 f8 01 00 	movl   $0x1f850,(%esp)
   12f0a:	e8 57 e1 ff ff       	call   11066 <Print>
   12f0f:	e8 40 9d 00 00       	call   1cc54 <Find_Space_On_Paging_File>
   12f14:	89 c7                	mov    %eax,%edi
   12f16:	85 c0                	test   %eax,%eax
   12f18:	0f 88 9f 01 00 00    	js     130bd <Alloc_Pageable_Page+0x420>
   12f1e:	83 3d e4 53 02 00 00 	cmpl   $0x0,0x253e4
   12f25:	74 10                	je     12f37 <Alloc_Pageable_Page+0x29a>
   12f27:	89 44 24 04          	mov    %eax,0x4(%esp)
   12f2b:	c7 04 24 1b f7 01 00 	movl   $0x1f71b,(%esp)
   12f32:	e8 2f e1 ff ff       	call   11066 <Print>
   12f37:	8b 03                	mov    (%ebx),%eax
   12f39:	83 e0 df             	and    $0xffffffdf,%eax
   12f3c:	83 c8 40             	or     $0x40,%eax
   12f3f:	89 03                	mov    %eax,(%ebx)
   12f41:	83 3d e4 53 02 00 00 	cmpl   $0x0,0x253e4
   12f48:	74 14                	je     12f5e <Alloc_Pageable_Page+0x2c1>
   12f4a:	89 7c 24 08          	mov    %edi,0x8(%esp)
   12f4e:	89 74 24 04          	mov    %esi,0x4(%esp)
   12f52:	c7 04 24 78 f8 01 00 	movl   $0x1f878,(%esp)
   12f59:	e8 08 e1 ff ff       	call   11066 <Print>
   12f5e:	e8 dc d2 ff ff       	call   1023f <Interrupts_Enabled>
   12f63:	84 c0                	test   %al,%al
   12f65:	74 4a                	je     12fb1 <Alloc_Pageable_Page+0x314>
   12f67:	c7 04 24 4f 00 00 00 	movl   $0x4f,(%esp)
   12f6e:	e8 48 e2 ff ff       	call   111bb <Set_Current_Attr>
   12f73:	a1 6c 5e 02 00       	mov    0x25e6c,%eax
   12f78:	89 44 24 18          	mov    %eax,0x18(%esp)
   12f7c:	8b 45 04             	mov    0x4(%ebp),%eax
   12f7f:	89 44 24 14          	mov    %eax,0x14(%esp)
   12f83:	c7 44 24 10 17 01 00 	movl   $0x117,0x10(%esp)
   12f8a:	00 
   12f8b:	c7 44 24 0c 69 f6 01 	movl   $0x1f669,0xc(%esp)
   12f92:	00 
   12f93:	c7 44 24 08 d2 ef 01 	movl   $0x1efd2,0x8(%esp)
   12f9a:	00 
   12f9b:	c7 44 24 04 d6 f8 01 	movl   $0x1f8d6,0x4(%esp)
   12fa2:	00 
   12fa3:	c7 04 24 b4 ee 01 00 	movl   $0x1eeb4,(%esp)
   12faa:	e8 b7 e0 ff ff       	call   11066 <Print>
   12faf:	eb fe                	jmp    12faf <Alloc_Pageable_Page+0x312>
   12fb1:	fb                   	sti    
   12fb2:	89 7c 24 08          	mov    %edi,0x8(%esp)
   12fb6:	8b 43 10             	mov    0x10(%ebx),%eax
   12fb9:	89 44 24 04          	mov    %eax,0x4(%esp)
   12fbd:	89 34 24             	mov    %esi,(%esp)
   12fc0:	e8 3b 9e 00 00       	call   1ce00 <Write_To_Paging_File>
   12fc5:	e8 75 d2 ff ff       	call   1023f <Interrupts_Enabled>
   12fca:	84 c0                	test   %al,%al
   12fcc:	75 4a                	jne    13018 <Alloc_Pageable_Page+0x37b>
   12fce:	c7 04 24 4f 00 00 00 	movl   $0x4f,(%esp)
   12fd5:	e8 e1 e1 ff ff       	call   111bb <Set_Current_Attr>
   12fda:	a1 6c 5e 02 00       	mov    0x25e6c,%eax
   12fdf:	89 44 24 18          	mov    %eax,0x18(%esp)
   12fe3:	8b 45 04             	mov    0x4(%ebp),%eax
   12fe6:	89 44 24 14          	mov    %eax,0x14(%esp)
   12fea:	c7 44 24 10 19 01 00 	movl   $0x119,0x10(%esp)
   12ff1:	00 
   12ff2:	c7 44 24 0c 69 f6 01 	movl   $0x1f669,0xc(%esp)
   12ff9:	00 
   12ffa:	c7 44 24 08 d3 ef 01 	movl   $0x1efd3,0x8(%esp)
   13001:	00 
   13002:	c7 44 24 04 d6 f8 01 	movl   $0x1f8d6,0x4(%esp)
   13009:	00 
   1300a:	c7 04 24 b4 ee 01 00 	movl   $0x1eeb4,(%esp)
   13011:	e8 50 e0 ff ff       	call   11066 <Print>
   13016:	eb fe                	jmp    13016 <Alloc_Pageable_Page+0x379>
   13018:	fa                   	cli    
   13019:	f6 03 04             	testb  $0x4,(%ebx)
   1301c:	74 2a                	je     13048 <Alloc_Pageable_Page+0x3ab>
   1301e:	8b 43 14             	mov    0x14(%ebx),%eax
   13021:	80 20 fe             	andb   $0xfe,(%eax)
   13024:	8b 43 14             	mov    0x14(%ebx),%eax
   13027:	0f b6 50 01          	movzbl 0x1(%eax),%edx
   1302b:	83 e2 f1             	and    $0xfffffff1,%edx
   1302e:	83 ca 08             	or     $0x8,%edx
   13031:	88 50 01             	mov    %dl,0x1(%eax)
   13034:	8b 43 14             	mov    0x14(%ebx),%eax
   13037:	c1 e7 0c             	shl    $0xc,%edi
   1303a:	8b 10                	mov    (%eax),%edx
   1303c:	81 e2 ff 0f 00 00    	and    $0xfff,%edx
   13042:	09 fa                	or     %edi,%edx
   13044:	89 10                	mov    %edx,(%eax)
   13046:	eb 0b                	jmp    13053 <Alloc_Pageable_Page+0x3b6>
   13048:	89 3c 24             	mov    %edi,(%esp)
   1304b:	e8 9b 9c 00 00       	call   1cceb <Free_Space_On_Paging_File>
   13050:	83 0b 04             	orl    $0x4,(%ebx)
   13053:	83 23 bf             	andl   $0xffffffbf,(%ebx)
   13056:	e8 65 a0 00 00       	call   1d0c0 <Flush_TLB>
   1305b:	83 0b 20             	orl    $0x20,(%ebx)
   1305e:	8b 45 08             	mov    0x8(%ebp),%eax
   13061:	89 43 14             	mov    %eax,0x14(%ebx)
   13064:	80 60 01 f1          	andb   $0xf1,0x1(%eax)
   13068:	8b 45 0c             	mov    0xc(%ebp),%eax
   1306b:	89 43 10             	mov    %eax,0x10(%ebx)
   1306e:	f6 03 04             	testb  $0x4,(%ebx)
   13071:	75 4a                	jne    130bd <Alloc_Pageable_Page+0x420>
   13073:	c7 04 24 4f 00 00 00 	movl   $0x4f,(%esp)
   1307a:	e8 3c e1 ff ff       	call   111bb <Set_Current_Attr>
   1307f:	a1 6c 5e 02 00       	mov    0x25e6c,%eax
   13084:	89 44 24 18          	mov    %eax,0x18(%esp)
   13088:	8b 45 04             	mov    0x4(%ebp),%eax
   1308b:	89 44 24 14          	mov    %eax,0x14(%esp)
   1308f:	c7 44 24 10 39 01 00 	movl   $0x139,0x10(%esp)
   13096:	00 
   13097:	c7 44 24 0c 69 f6 01 	movl   $0x1f669,0xc(%esp)
   1309e:	00 
   1309f:	c7 44 24 08 37 f7 01 	movl   $0x1f737,0x8(%esp)
   130a6:	00 
   130a7:	c7 44 24 04 d6 f8 01 	movl   $0x1f8d6,0x4(%esp)
   130ae:	00 
   130af:	c7 04 24 b4 ee 01 00 	movl   $0x1eeb4,(%esp)
   130b6:	e8 ab df ff ff       	call   11066 <Print>
   130bb:	eb fe                	jmp    130bb <Alloc_Pageable_Page+0x41e>
   130bd:	0f b6 45 e7          	movzbl -0x19(%ebp),%eax
   130c1:	e8 aa f5 ff ff       	call   12670 <End_Int_Atomic>
   130c6:	89 f0                	mov    %esi,%eax
   130c8:	83 c4 2c             	add    $0x2c,%esp
   130cb:	5b                   	pop    %ebx
   130cc:	5e                   	pop    %esi
   130cd:	5f                   	pop    %edi
   130ce:	5d                   	pop    %ebp
   130cf:	c3                   	ret    

000130d0 <Free_Page>:
   130d0:	55                   	push   %ebp
   130d1:	89 e5                	mov    %esp,%ebp
   130d3:	56                   	push   %esi
   130d4:	53                   	push   %ebx
   130d5:	83 ec 20             	sub    $0x20,%esp
   130d8:	8b 75 08             	mov    0x8(%ebp),%esi
   130db:	e8 5f d1 ff ff       	call   1023f <Interrupts_Enabled>
   130e0:	89 c3                	mov    %eax,%ebx
   130e2:	84 c0                	test   %al,%al
   130e4:	74 54                	je     1313a <Free_Page+0x6a>
   130e6:	e8 54 d1 ff ff       	call   1023f <Interrupts_Enabled>
   130eb:	84 c0                	test   %al,%al
   130ed:	75 4a                	jne    13139 <Free_Page+0x69>
   130ef:	c7 04 24 4f 00 00 00 	movl   $0x4f,(%esp)
   130f6:	e8 c0 e0 ff ff       	call   111bb <Set_Current_Attr>
   130fb:	a1 6c 5e 02 00       	mov    0x25e6c,%eax
   13100:	89 44 24 18          	mov    %eax,0x18(%esp)
   13104:	8b 45 04             	mov    0x4(%ebp),%eax
   13107:	89 44 24 14          	mov    %eax,0x14(%esp)
   1310b:	c7 44 24 10 8f 00 00 	movl   $0x8f,0x10(%esp)
   13112:	00 
   13113:	c7 44 24 0c 7e f1 01 	movl   $0x1f17e,0xc(%esp)
   1311a:	00 
   1311b:	c7 44 24 08 d3 ef 01 	movl   $0x1efd3,0x8(%esp)
   13122:	00 
   13123:	c7 44 24 04 f9 f8 01 	movl   $0x1f8f9,0x4(%esp)
   1312a:	00 
   1312b:	c7 04 24 b4 ee 01 00 	movl   $0x1eeb4,(%esp)
   13132:	e8 2f df ff ff       	call   11066 <Print>
   13137:	eb fe                	jmp    13137 <Free_Page+0x67>
   13139:	fa                   	cli    
   1313a:	89 f0                	mov    %esi,%eax
   1313c:	25 00 f0 ff ff       	and    $0xfffff000,%eax
   13141:	39 c6                	cmp    %eax,%esi
   13143:	74 4a                	je     1318f <Free_Page+0xbf>
   13145:	c7 04 24 4f 00 00 00 	movl   $0x4f,(%esp)
   1314c:	e8 6a e0 ff ff       	call   111bb <Set_Current_Attr>
   13151:	a1 6c 5e 02 00       	mov    0x25e6c,%eax
   13156:	89 44 24 18          	mov    %eax,0x18(%esp)
   1315a:	8b 45 04             	mov    0x4(%ebp),%eax
   1315d:	89 44 24 14          	mov    %eax,0x14(%esp)
   13161:	c7 44 24 10 4b 01 00 	movl   $0x14b,0x10(%esp)
   13168:	00 
   13169:	c7 44 24 0c 69 f6 01 	movl   $0x1f669,0xc(%esp)
   13170:	00 
   13171:	c7 44 24 08 54 f7 01 	movl   $0x1f754,0x8(%esp)
   13178:	00 
   13179:	c7 44 24 04 cc f8 01 	movl   $0x1f8cc,0x4(%esp)
   13180:	00 
   13181:	c7 04 24 b4 ee 01 00 	movl   $0x1eeb4,(%esp)
   13188:	e8 d9 de ff ff       	call   11066 <Print>
   1318d:	eb fe                	jmp    1318d <Free_Page+0xbd>
   1318f:	89 f0                	mov    %esi,%eax
   13191:	c1 e8 0c             	shr    $0xc,%eax
   13194:	8d 14 40             	lea    (%eax,%eax,2),%edx
   13197:	a1 60 5e 02 00       	mov    0x25e60,%eax
   1319c:	8d 14 d0             	lea    (%eax,%edx,8),%edx
   1319f:	8b 02                	mov    (%edx),%eax
   131a1:	a8 04                	test   $0x4,%al
   131a3:	75 4a                	jne    131ef <Free_Page+0x11f>
   131a5:	c7 04 24 4f 00 00 00 	movl   $0x4f,(%esp)
   131ac:	e8 0a e0 ff ff       	call   111bb <Set_Current_Attr>
   131b1:	a1 6c 5e 02 00       	mov    0x25e6c,%eax
   131b6:	89 44 24 18          	mov    %eax,0x18(%esp)
   131ba:	8b 45 04             	mov    0x4(%ebp),%eax
   131bd:	89 44 24 14          	mov    %eax,0x14(%esp)
   131c1:	c7 44 24 10 4f 01 00 	movl   $0x14f,0x10(%esp)
   131c8:	00 
   131c9:	c7 44 24 0c 69 f6 01 	movl   $0x1f669,0xc(%esp)
   131d0:	00 
   131d1:	c7 44 24 08 a8 f8 01 	movl   $0x1f8a8,0x8(%esp)
   131d8:	00 
   131d9:	c7 44 24 04 cc f8 01 	movl   $0x1f8cc,0x4(%esp)
   131e0:	00 
   131e1:	c7 04 24 b4 ee 01 00 	movl   $0x1eeb4,(%esp)
   131e8:	e8 79 de ff ff       	call   11066 <Print>
   131ed:	eb fe                	jmp    131ed <Free_Page+0x11d>
   131ef:	89 c1                	mov    %eax,%ecx
   131f1:	83 e1 fb             	and    $0xfffffffb,%ecx
   131f4:	89 0a                	mov    %ecx,(%edx)
   131f6:	a8 40                	test   $0x40,%al
   131f8:	0f 85 b9 00 00 00    	jne    132b7 <Free_Page+0x1e7>
   131fe:	83 e0 db             	and    $0xffffffdb,%eax
   13201:	89 02                	mov    %eax,(%edx)
   13203:	8b 0d cc 4b 02 00    	mov    0x24bcc,%ecx
   13209:	85 c9                	test   %ecx,%ecx
   1320b:	74 4b                	je     13258 <Free_Page+0x188>
   1320d:	39 ca                	cmp    %ecx,%edx
   1320f:	75 06                	jne    13217 <Free_Page+0x147>
   13211:	eb 57                	jmp    1326a <Free_Page+0x19a>
   13213:	39 ca                	cmp    %ecx,%edx
   13215:	74 53                	je     1326a <Free_Page+0x19a>
   13217:	8b 49 08             	mov    0x8(%ecx),%ecx
   1321a:	85 c9                	test   %ecx,%ecx
   1321c:	8d 74 26 00          	lea    0x0(%esi,%eiz,1),%esi
   13220:	75 f1                	jne    13213 <Free_Page+0x143>
   13222:	eb 34                	jmp    13258 <Free_Page+0x188>
   13224:	eb fe                	jmp    13224 <Free_Page+0x154>
   13226:	89 15 d0 4b 02 00    	mov    %edx,0x24bd0
   1322c:	89 15 cc 4b 02 00    	mov    %edx,0x24bcc
   13232:	c7 42 04 00 00 00 00 	movl   $0x0,0x4(%edx)
   13239:	eb 0c                	jmp    13247 <Free_Page+0x177>
   1323b:	89 50 08             	mov    %edx,0x8(%eax)
   1323e:	89 42 04             	mov    %eax,0x4(%edx)
   13241:	89 15 d0 4b 02 00    	mov    %edx,0x24bd0
   13247:	83 05 c8 4b 02 00 01 	addl   $0x1,0x24bc8
   1324e:	0f b6 c3             	movzbl %bl,%eax
   13251:	e8 1a f4 ff ff       	call   12670 <End_Int_Atomic>
   13256:	eb 5f                	jmp    132b7 <Free_Page+0x1e7>
   13258:	c7 42 08 00 00 00 00 	movl   $0x0,0x8(%edx)
   1325f:	a1 d0 4b 02 00       	mov    0x24bd0,%eax
   13264:	85 c0                	test   %eax,%eax
   13266:	75 d3                	jne    1323b <Free_Page+0x16b>
   13268:	eb bc                	jmp    13226 <Free_Page+0x156>
   1326a:	c7 04 24 4f 00 00 00 	movl   $0x4f,(%esp)
   13271:	e8 45 df ff ff       	call   111bb <Set_Current_Attr>
   13276:	a1 6c 5e 02 00       	mov    0x25e6c,%eax
   1327b:	89 44 24 18          	mov    %eax,0x18(%esp)
   1327f:	8b 45 04             	mov    0x4(%ebp),%eax
   13282:	89 44 24 14          	mov    %eax,0x14(%esp)
   13286:	c7 44 24 10 45 00 00 	movl   $0x45,0x10(%esp)
   1328d:	00 
   1328e:	c7 44 24 0c b7 f6 01 	movl   $0x1f6b7,0xc(%esp)
   13295:	00 
   13296:	c7 44 24 08 6c f7 01 	movl   $0x1f76c,0x8(%esp)
   1329d:	00 
   1329e:	c7 44 24 04 15 f9 01 	movl   $0x1f915,0x4(%esp)
   132a5:	00 
   132a6:	c7 04 24 b4 ee 01 00 	movl   $0x1eeb4,(%esp)
   132ad:	e8 b4 dd ff ff       	call   11066 <Print>
   132b2:	e9 6d ff ff ff       	jmp    13224 <Free_Page+0x154>
   132b7:	83 c4 20             	add    $0x20,%esp
   132ba:	5b                   	pop    %ebx
   132bb:	5e                   	pop    %esi
   132bc:	5d                   	pop    %ebp
   132bd:	c3                   	ret    

000132be <Init_CRC32>:
   132be:	55                   	push   %ebp
   132bf:	89 e5                	mov    %esp,%ebp
   132c1:	57                   	push   %edi
   132c2:	56                   	push   %esi
   132c3:	53                   	push   %ebx
   132c4:	c7 05 e0 4b 02 00 00 	movl   $0x0,0x24be0
   132cb:	00 00 00 
   132ce:	be 08 00 00 00       	mov    $0x8,%esi
   132d3:	b9 80 00 00 00       	mov    $0x80,%ecx
   132d8:	b8 00 00 00 00       	mov    $0x0,%eax
   132dd:	bb 20 83 b8 ed       	mov    $0xedb88320,%ebx
   132e2:	eb 0f                	jmp    132f3 <Init_CRC32+0x35>
   132e4:	89 d8                	mov    %ebx,%eax
   132e6:	d1 e8                	shr    %eax
   132e8:	83 e3 01             	and    $0x1,%ebx
   132eb:	f7 db                	neg    %ebx
   132ed:	81 e3 20 83 b8 ed    	and    $0xedb88320,%ebx
   132f3:	31 c3                	xor    %eax,%ebx
   132f5:	b8 00 00 00 00       	mov    $0x0,%eax
   132fa:	8d 14 08             	lea    (%eax,%ecx,1),%edx
   132fd:	89 df                	mov    %ebx,%edi
   132ff:	33 3c 85 e0 4b 02 00 	xor    0x24be0(,%eax,4),%edi
   13306:	89 3c 95 e0 4b 02 00 	mov    %edi,0x24be0(,%edx,4)
   1330d:	8d 04 0a             	lea    (%edx,%ecx,1),%eax
   13310:	3d ff 00 00 00       	cmp    $0xff,%eax
   13315:	76 e3                	jbe    132fa <Init_CRC32+0x3c>
   13317:	d1 e9                	shr    %ecx
   13319:	83 ee 01             	sub    $0x1,%esi
   1331c:	75 c6                	jne    132e4 <Init_CRC32+0x26>
   1331e:	5b                   	pop    %ebx
   1331f:	5e                   	pop    %esi
   13320:	5f                   	pop    %edi
   13321:	5d                   	pop    %ebp
   13322:	c3                   	ret    

00013323 <crc32>:
   13323:	55                   	push   %ebp
   13324:	89 e5                	mov    %esp,%ebp
   13326:	53                   	push   %ebx
   13327:	83 ec 24             	sub    $0x24,%esp
   1332a:	8b 45 0c             	mov    0xc(%ebp),%eax
   1332d:	8b 5d 10             	mov    0x10(%ebp),%ebx
   13330:	83 3d dc 4f 02 00 00 	cmpl   $0x0,0x24fdc
   13337:	75 4a                	jne    13383 <crc32+0x60>
   13339:	c7 04 24 4f 00 00 00 	movl   $0x4f,(%esp)
   13340:	e8 76 de ff ff       	call   111bb <Set_Current_Attr>
   13345:	a1 6c 5e 02 00       	mov    0x25e6c,%eax
   1334a:	89 44 24 18          	mov    %eax,0x18(%esp)
   1334e:	8b 45 04             	mov    0x4(%ebp),%eax
   13351:	89 44 24 14          	mov    %eax,0x14(%esp)
   13355:	c7 44 24 10 2b 00 00 	movl   $0x2b,0x10(%esp)
   1335c:	00 
   1335d:	c7 44 24 0c 46 f9 01 	movl   $0x1f946,0xc(%esp)
   13364:	00 
   13365:	c7 44 24 08 5c f9 01 	movl   $0x1f95c,0x8(%esp)
   1336c:	00 
   1336d:	c7 44 24 04 70 f9 01 	movl   $0x1f970,0x4(%esp)
   13374:	00 
   13375:	c7 04 24 b4 ee 01 00 	movl   $0x1eeb4,(%esp)
   1337c:	e8 e5 dc ff ff       	call   11066 <Print>
   13381:	eb fe                	jmp    13381 <crc32+0x5e>
   13383:	8b 55 08             	mov    0x8(%ebp),%edx
   13386:	f7 d2                	not    %edx
   13388:	85 db                	test   %ebx,%ebx
   1338a:	74 1d                	je     133a9 <crc32+0x86>
   1338c:	01 c3                	add    %eax,%ebx
   1338e:	89 d1                	mov    %edx,%ecx
   13390:	c1 e9 08             	shr    $0x8,%ecx
   13393:	83 c0 01             	add    $0x1,%eax
   13396:	32 50 ff             	xor    -0x1(%eax),%dl
   13399:	0f b6 d2             	movzbl %dl,%edx
   1339c:	33 0c 95 e0 4b 02 00 	xor    0x24be0(,%edx,4),%ecx
   133a3:	89 ca                	mov    %ecx,%edx
   133a5:	39 d8                	cmp    %ebx,%eax
   133a7:	75 e5                	jne    1338e <crc32+0x6b>
   133a9:	89 d0                	mov    %edx,%eax
   133ab:	f7 d0                	not    %eax
   133ad:	83 c4 24             	add    $0x24,%esp
   133b0:	5b                   	pop    %ebx
   133b1:	5d                   	pop    %ebp
   133b2:	c3                   	ret    
   133b3:	66 90                	xchg   %ax,%ax
   133b5:	66 90                	xchg   %ax,%ax
   133b7:	66 90                	xchg   %ax,%ax
   133b9:	66 90                	xchg   %ax,%ax
   133bb:	66 90                	xchg   %ax,%ax
   133bd:	66 90                	xchg   %ax,%ax
   133bf:	90                   	nop

000133c0 <Allocate_Segment_Descriptor>:
   133c0:	55                   	push   %ebp
   133c1:	89 e5                	mov    %esp,%ebp
   133c3:	56                   	push   %esi
   133c4:	53                   	push   %ebx
   133c5:	83 ec 20             	sub    $0x20,%esp
   133c8:	e8 72 ce ff ff       	call   1023f <Interrupts_Enabled>
   133cd:	89 c6                	mov    %eax,%esi
   133cf:	84 c0                	test   %al,%al
   133d1:	74 54                	je     13427 <Allocate_Segment_Descriptor+0x67>
   133d3:	e8 67 ce ff ff       	call   1023f <Interrupts_Enabled>
   133d8:	84 c0                	test   %al,%al
   133da:	75 4a                	jne    13426 <Allocate_Segment_Descriptor+0x66>
   133dc:	c7 04 24 4f 00 00 00 	movl   $0x4f,(%esp)
   133e3:	e8 d3 dd ff ff       	call   111bb <Set_Current_Attr>
   133e8:	a1 6c 5e 02 00       	mov    0x25e6c,%eax
   133ed:	89 44 24 18          	mov    %eax,0x18(%esp)
   133f1:	8b 45 04             	mov    0x4(%ebp),%eax
   133f4:	89 44 24 14          	mov    %eax,0x14(%esp)
   133f8:	c7 44 24 10 8f 00 00 	movl   $0x8f,0x10(%esp)
   133ff:	00 
   13400:	c7 44 24 0c 7e f1 01 	movl   $0x1f17e,0xc(%esp)
   13407:	00 
   13408:	c7 44 24 08 d3 ef 01 	movl   $0x1efd3,0x8(%esp)
   1340f:	00 
   13410:	c7 44 24 04 27 fa 01 	movl   $0x1fa27,0x4(%esp)
   13417:	00 
   13418:	c7 04 24 b4 ee 01 00 	movl   $0x1eeb4,(%esp)
   1341f:	e8 42 dc ff ff       	call   11066 <Print>
   13424:	eb fe                	jmp    13424 <Allocate_Segment_Descriptor+0x64>
   13426:	fa                   	cli    
   13427:	f6 05 0e 50 02 00 10 	testb  $0x10,0x2500e
   1342e:	75 14                	jne    13444 <Allocate_Segment_Descriptor+0x84>
   13430:	ba 10 50 02 00       	mov    $0x25010,%edx
   13435:	b8 80 50 02 00       	mov    $0x25080,%eax
   1343a:	89 d3                	mov    %edx,%ebx
   1343c:	f6 42 06 10          	testb  $0x10,0x6(%edx)
   13440:	74 14                	je     13456 <Allocate_Segment_Descriptor+0x96>
   13442:	eb 05                	jmp    13449 <Allocate_Segment_Descriptor+0x89>
   13444:	bb 08 50 02 00       	mov    $0x25008,%ebx
   13449:	83 05 e0 4f 02 00 01 	addl   $0x1,0x24fe0
   13450:	80 63 06 ef          	andb   $0xef,0x6(%ebx)
   13454:	eb 0c                	jmp    13462 <Allocate_Segment_Descriptor+0xa2>
   13456:	83 c2 08             	add    $0x8,%edx
   13459:	39 c2                	cmp    %eax,%edx
   1345b:	75 dd                	jne    1343a <Allocate_Segment_Descriptor+0x7a>
   1345d:	bb 00 00 00 00       	mov    $0x0,%ebx
   13462:	e8 d8 cd ff ff       	call   1023f <Interrupts_Enabled>
   13467:	84 c0                	test   %al,%al
   13469:	74 4a                	je     134b5 <Allocate_Segment_Descriptor+0xf5>
   1346b:	c7 04 24 4f 00 00 00 	movl   $0x4f,(%esp)
   13472:	e8 44 dd ff ff       	call   111bb <Set_Current_Attr>
   13477:	a1 6c 5e 02 00       	mov    0x25e6c,%eax
   1347c:	89 44 24 18          	mov    %eax,0x18(%esp)
   13480:	8b 45 04             	mov    0x4(%ebp),%eax
   13483:	89 44 24 14          	mov    %eax,0x14(%esp)
   13487:	c7 44 24 10 99 00 00 	movl   $0x99,0x10(%esp)
   1348e:	00 
   1348f:	c7 44 24 0c 7e f1 01 	movl   $0x1f17e,0xc(%esp)
   13496:	00 
   13497:	c7 44 24 08 d2 ef 01 	movl   $0x1efd2,0x8(%esp)
   1349e:	00 
   1349f:	c7 44 24 04 18 fa 01 	movl   $0x1fa18,0x4(%esp)
   134a6:	00 
   134a7:	c7 04 24 b4 ee 01 00 	movl   $0x1eeb4,(%esp)
   134ae:	e8 b3 db ff ff       	call   11066 <Print>
   134b3:	eb fe                	jmp    134b3 <Allocate_Segment_Descriptor+0xf3>
   134b5:	89 f0                	mov    %esi,%eax
   134b7:	84 c0                	test   %al,%al
   134b9:	74 59                	je     13514 <Allocate_Segment_Descriptor+0x154>
   134bb:	90                   	nop
   134bc:	8d 74 26 00          	lea    0x0(%esi,%eiz,1),%esi
   134c0:	e8 7a cd ff ff       	call   1023f <Interrupts_Enabled>
   134c5:	84 c0                	test   %al,%al
   134c7:	74 4a                	je     13513 <Allocate_Segment_Descriptor+0x153>
   134c9:	c7 04 24 4f 00 00 00 	movl   $0x4f,(%esp)
   134d0:	e8 e6 dc ff ff       	call   111bb <Set_Current_Attr>
   134d5:	a1 6c 5e 02 00       	mov    0x25e6c,%eax
   134da:	89 44 24 18          	mov    %eax,0x18(%esp)
   134de:	8b 45 04             	mov    0x4(%ebp),%eax
   134e1:	89 44 24 14          	mov    %eax,0x14(%esp)
   134e5:	c7 44 24 10 9c 00 00 	movl   $0x9c,0x10(%esp)
   134ec:	00 
   134ed:	c7 44 24 0c 7e f1 01 	movl   $0x1f17e,0xc(%esp)
   134f4:	00 
   134f5:	c7 44 24 08 d2 ef 01 	movl   $0x1efd2,0x8(%esp)
   134fc:	00 
   134fd:	c7 44 24 04 18 fa 01 	movl   $0x1fa18,0x4(%esp)
   13504:	00 
   13505:	c7 04 24 b4 ee 01 00 	movl   $0x1eeb4,(%esp)
   1350c:	e8 55 db ff ff       	call   11066 <Print>
   13511:	eb fe                	jmp    13511 <Allocate_Segment_Descriptor+0x151>
   13513:	fb                   	sti    
   13514:	89 d8                	mov    %ebx,%eax
   13516:	83 c4 20             	add    $0x20,%esp
   13519:	5b                   	pop    %ebx
   1351a:	5e                   	pop    %esi
   1351b:	5d                   	pop    %ebp
   1351c:	c3                   	ret    

0001351d <Free_Segment_Descriptor>:
   1351d:	55                   	push   %ebp
   1351e:	89 e5                	mov    %esp,%ebp
   13520:	56                   	push   %esi
   13521:	53                   	push   %ebx
   13522:	83 ec 20             	sub    $0x20,%esp
   13525:	8b 5d 08             	mov    0x8(%ebp),%ebx
   13528:	e8 12 cd ff ff       	call   1023f <Interrupts_Enabled>
   1352d:	89 c6                	mov    %eax,%esi
   1352f:	84 c0                	test   %al,%al
   13531:	74 54                	je     13587 <Free_Segment_Descriptor+0x6a>
   13533:	e8 07 cd ff ff       	call   1023f <Interrupts_Enabled>
   13538:	84 c0                	test   %al,%al
   1353a:	75 4a                	jne    13586 <Free_Segment_Descriptor+0x69>
   1353c:	c7 04 24 4f 00 00 00 	movl   $0x4f,(%esp)
   13543:	e8 73 dc ff ff       	call   111bb <Set_Current_Attr>
   13548:	a1 6c 5e 02 00       	mov    0x25e6c,%eax
   1354d:	89 44 24 18          	mov    %eax,0x18(%esp)
   13551:	8b 45 04             	mov    0x4(%ebp),%eax
   13554:	89 44 24 14          	mov    %eax,0x14(%esp)
   13558:	c7 44 24 10 8f 00 00 	movl   $0x8f,0x10(%esp)
   1355f:	00 
   13560:	c7 44 24 0c 7e f1 01 	movl   $0x1f17e,0xc(%esp)
   13567:	00 
   13568:	c7 44 24 08 d3 ef 01 	movl   $0x1efd3,0x8(%esp)
   1356f:	00 
   13570:	c7 44 24 04 27 fa 01 	movl   $0x1fa27,0x4(%esp)
   13577:	00 
   13578:	c7 04 24 b4 ee 01 00 	movl   $0x1eeb4,(%esp)
   1357f:	e8 e2 da ff ff       	call   11066 <Print>
   13584:	eb fe                	jmp    13584 <Free_Segment_Descriptor+0x67>
   13586:	fa                   	cli    
   13587:	f6 43 06 10          	testb  $0x10,0x6(%ebx)
   1358b:	74 4a                	je     135d7 <Free_Segment_Descriptor+0xba>
   1358d:	c7 04 24 4f 00 00 00 	movl   $0x4f,(%esp)
   13594:	e8 22 dc ff ff       	call   111bb <Set_Current_Attr>
   13599:	a1 6c 5e 02 00       	mov    0x25e6c,%eax
   1359e:	89 44 24 18          	mov    %eax,0x18(%esp)
   135a2:	8b 45 04             	mov    0x4(%ebp),%eax
   135a5:	89 44 24 14          	mov    %eax,0x14(%esp)
   135a9:	c7 44 24 10 4f 00 00 	movl   $0x4f,0x10(%esp)
   135b0:	00 
   135b1:	c7 44 24 0c 76 f9 01 	movl   $0x1f976,0xc(%esp)
   135b8:	00 
   135b9:	c7 44 24 08 8a f9 01 	movl   $0x1f98a,0x8(%esp)
   135c0:	00 
   135c1:	c7 44 24 04 00 fa 01 	movl   $0x1fa00,0x4(%esp)
   135c8:	00 
   135c9:	c7 04 24 b4 ee 01 00 	movl   $0x1eeb4,(%esp)
   135d0:	e8 91 da ff ff       	call   11066 <Print>
   135d5:	eb fe                	jmp    135d5 <Free_Segment_Descriptor+0xb8>
   135d7:	89 1c 24             	mov    %ebx,(%esp)
   135da:	e8 01 03 00 00       	call   138e0 <Init_Null_Segment_Descriptor>
   135df:	80 4b 06 10          	orb    $0x10,0x6(%ebx)
   135e3:	83 2d e0 4f 02 00 01 	subl   $0x1,0x24fe0
   135ea:	e8 50 cc ff ff       	call   1023f <Interrupts_Enabled>
   135ef:	84 c0                	test   %al,%al
   135f1:	74 4a                	je     1363d <Free_Segment_Descriptor+0x120>
   135f3:	c7 04 24 4f 00 00 00 	movl   $0x4f,(%esp)
   135fa:	e8 bc db ff ff       	call   111bb <Set_Current_Attr>
   135ff:	a1 6c 5e 02 00       	mov    0x25e6c,%eax
   13604:	89 44 24 18          	mov    %eax,0x18(%esp)
   13608:	8b 45 04             	mov    0x4(%ebp),%eax
   1360b:	89 44 24 14          	mov    %eax,0x14(%esp)
   1360f:	c7 44 24 10 99 00 00 	movl   $0x99,0x10(%esp)
   13616:	00 
   13617:	c7 44 24 0c 7e f1 01 	movl   $0x1f17e,0xc(%esp)
   1361e:	00 
   1361f:	c7 44 24 08 d2 ef 01 	movl   $0x1efd2,0x8(%esp)
   13626:	00 
   13627:	c7 44 24 04 18 fa 01 	movl   $0x1fa18,0x4(%esp)
   1362e:	00 
   1362f:	c7 04 24 b4 ee 01 00 	movl   $0x1eeb4,(%esp)
   13636:	e8 2b da ff ff       	call   11066 <Print>
   1363b:	eb fe                	jmp    1363b <Free_Segment_Descriptor+0x11e>
   1363d:	89 f0                	mov    %esi,%eax
   1363f:	84 c0                	test   %al,%al
   13641:	74 54                	je     13697 <Free_Segment_Descriptor+0x17a>
   13643:	e8 f7 cb ff ff       	call   1023f <Interrupts_Enabled>
   13648:	84 c0                	test   %al,%al
   1364a:	74 4a                	je     13696 <Free_Segment_Descriptor+0x179>
   1364c:	c7 04 24 4f 00 00 00 	movl   $0x4f,(%esp)
   13653:	e8 63 db ff ff       	call   111bb <Set_Current_Attr>
   13658:	a1 6c 5e 02 00       	mov    0x25e6c,%eax
   1365d:	89 44 24 18          	mov    %eax,0x18(%esp)
   13661:	8b 45 04             	mov    0x4(%ebp),%eax
   13664:	89 44 24 14          	mov    %eax,0x14(%esp)
   13668:	c7 44 24 10 9c 00 00 	movl   $0x9c,0x10(%esp)
   1366f:	00 
   13670:	c7 44 24 0c 7e f1 01 	movl   $0x1f17e,0xc(%esp)
   13677:	00 
   13678:	c7 44 24 08 d2 ef 01 	movl   $0x1efd2,0x8(%esp)
   1367f:	00 
   13680:	c7 44 24 04 18 fa 01 	movl   $0x1fa18,0x4(%esp)
   13687:	00 
   13688:	c7 04 24 b4 ee 01 00 	movl   $0x1eeb4,(%esp)
   1368f:	e8 d2 d9 ff ff       	call   11066 <Print>
   13694:	eb fe                	jmp    13694 <Free_Segment_Descriptor+0x177>
   13696:	fb                   	sti    
   13697:	83 c4 20             	add    $0x20,%esp
   1369a:	5b                   	pop    %ebx
   1369b:	5e                   	pop    %esi
   1369c:	5d                   	pop    %ebp
   1369d:	c3                   	ret    

0001369e <Get_Descriptor_Index>:
   1369e:	55                   	push   %ebp
   1369f:	89 e5                	mov    %esp,%ebp
   136a1:	8b 45 08             	mov    0x8(%ebp),%eax
   136a4:	2d 00 50 02 00       	sub    $0x25000,%eax
   136a9:	c1 f8 03             	sar    $0x3,%eax
   136ac:	5d                   	pop    %ebp
   136ad:	c3                   	ret    

000136ae <Init_GDT>:
   136ae:	55                   	push   %ebp
   136af:	89 e5                	mov    %esp,%ebp
   136b1:	57                   	push   %edi
   136b2:	56                   	push   %esi
   136b3:	53                   	push   %ebx
   136b4:	83 ec 3c             	sub    $0x3c,%esp
   136b7:	be 00 50 02 00       	mov    $0x25000,%esi
   136bc:	bf 80 50 02 00       	mov    $0x25080,%edi
   136c1:	89 f3                	mov    %esi,%ebx
   136c3:	89 1c 24             	mov    %ebx,(%esp)
   136c6:	e8 15 02 00 00       	call   138e0 <Init_Null_Segment_Descriptor>
   136cb:	80 4b 06 10          	orb    $0x10,0x6(%ebx)
   136cf:	83 c3 08             	add    $0x8,%ebx
   136d2:	39 fb                	cmp    %edi,%ebx
   136d4:	75 ed                	jne    136c3 <Init_GDT+0x15>
   136d6:	e8 e5 fc ff ff       	call   133c0 <Allocate_Segment_Descriptor>
   136db:	89 c3                	mov    %eax,%ebx
   136dd:	c7 44 24 0c 00 00 00 	movl   $0x0,0xc(%esp)
   136e4:	00 
   136e5:	c7 44 24 08 00 00 10 	movl   $0x100000,0x8(%esp)
   136ec:	00 
   136ed:	c7 44 24 04 00 00 00 	movl   $0x0,0x4(%esp)
   136f4:	00 
   136f5:	89 04 24             	mov    %eax,(%esp)
   136f8:	e8 f8 01 00 00       	call   138f5 <Init_Code_Segment_Descriptor>
   136fd:	89 d8                	mov    %ebx,%eax
   136ff:	2d 00 50 02 00       	sub    $0x25000,%eax
   13704:	c1 f8 03             	sar    $0x3,%eax
   13707:	83 f8 01             	cmp    $0x1,%eax
   1370a:	74 4a                	je     13756 <Init_GDT+0xa8>
   1370c:	c7 04 24 4f 00 00 00 	movl   $0x4f,(%esp)
   13713:	e8 a3 da ff ff       	call   111bb <Set_Current_Attr>
   13718:	a1 6c 5e 02 00       	mov    0x25e6c,%eax
   1371d:	89 44 24 18          	mov    %eax,0x18(%esp)
   13721:	8b 45 04             	mov    0x4(%ebp),%eax
   13724:	89 44 24 14          	mov    %eax,0x14(%esp)
   13728:	c7 44 24 10 7b 00 00 	movl   $0x7b,0x10(%esp)
   1372f:	00 
   13730:	c7 44 24 0c 76 f9 01 	movl   $0x1f976,0xc(%esp)
   13737:	00 
   13738:	c7 44 24 08 98 f9 01 	movl   $0x1f998,0x8(%esp)
   1373f:	00 
   13740:	c7 44 24 04 f7 f9 01 	movl   $0x1f9f7,0x4(%esp)
   13747:	00 
   13748:	c7 04 24 b4 ee 01 00 	movl   $0x1eeb4,(%esp)
   1374f:	e8 12 d9 ff ff       	call   11066 <Print>
   13754:	eb fe                	jmp    13754 <Init_GDT+0xa6>
   13756:	e8 65 fc ff ff       	call   133c0 <Allocate_Segment_Descriptor>
   1375b:	89 c3                	mov    %eax,%ebx
   1375d:	c7 44 24 0c 00 00 00 	movl   $0x0,0xc(%esp)
   13764:	00 
   13765:	c7 44 24 08 00 00 10 	movl   $0x100000,0x8(%esp)
   1376c:	00 
   1376d:	c7 44 24 04 00 00 00 	movl   $0x0,0x4(%esp)
   13774:	00 
   13775:	89 04 24             	mov    %eax,(%esp)
   13778:	e8 72 02 00 00       	call   139ef <Init_Data_Segment_Descriptor>
   1377d:	89 d8                	mov    %ebx,%eax
   1377f:	2d 00 50 02 00       	sub    $0x25000,%eax
   13784:	c1 f8 03             	sar    $0x3,%eax
   13787:	83 f8 02             	cmp    $0x2,%eax
   1378a:	74 4a                	je     137d6 <Init_GDT+0x128>
   1378c:	c7 04 24 4f 00 00 00 	movl   $0x4f,(%esp)
   13793:	e8 23 da ff ff       	call   111bb <Set_Current_Attr>
   13798:	a1 6c 5e 02 00       	mov    0x25e6c,%eax
   1379d:	89 44 24 18          	mov    %eax,0x18(%esp)
   137a1:	8b 45 04             	mov    0x4(%ebp),%eax
   137a4:	89 44 24 14          	mov    %eax,0x14(%esp)
   137a8:	c7 44 24 10 85 00 00 	movl   $0x85,0x10(%esp)
   137af:	00 
   137b0:	c7 44 24 0c 76 f9 01 	movl   $0x1f976,0xc(%esp)
   137b7:	00 
   137b8:	c7 44 24 08 c8 f9 01 	movl   $0x1f9c8,0x8(%esp)
   137bf:	00 
   137c0:	c7 44 24 04 f7 f9 01 	movl   $0x1f9f7,0x4(%esp)
   137c7:	00 
   137c8:	c7 04 24 b4 ee 01 00 	movl   $0x1eeb4,(%esp)
   137cf:	e8 92 d8 ff ff       	call   11066 <Print>
   137d4:	eb fe                	jmp    137d4 <Init_GDT+0x126>
   137d6:	66 c7 45 e2 80 00    	movw   $0x80,-0x1e(%ebp)
   137dc:	66 89 75 e4          	mov    %si,-0x1c(%ebp)
   137e0:	c1 ee 10             	shr    $0x10,%esi
   137e3:	66 89 75 e6          	mov    %si,-0x1a(%ebp)
   137e7:	8d 45 e2             	lea    -0x1e(%ebp),%eax
   137ea:	89 04 24             	mov    %eax,(%esp)
   137ed:	e8 76 98 00 00       	call   1d068 <Load_GDTR>
   137f2:	83 c4 3c             	add    $0x3c,%esp
   137f5:	5b                   	pop    %ebx
   137f6:	5e                   	pop    %esi
   137f7:	5f                   	pop    %edi
   137f8:	5d                   	pop    %ebp
   137f9:	c3                   	ret    

000137fa <Init_TSS>:
   137fa:	55                   	push   %ebp
   137fb:	89 e5                	mov    %esp,%ebp
   137fd:	57                   	push   %edi
   137fe:	53                   	push   %ebx
   137ff:	83 ec 20             	sub    $0x20,%esp
   13802:	e8 b9 fb ff ff       	call   133c0 <Allocate_Segment_Descriptor>
   13807:	89 c2                	mov    %eax,%edx
   13809:	a3 84 50 02 00       	mov    %eax,0x25084
   1380e:	85 c0                	test   %eax,%eax
   13810:	75 4a                	jne    1385c <Init_TSS+0x62>
   13812:	c7 04 24 4f 00 00 00 	movl   $0x4f,(%esp)
   13819:	e8 9d d9 ff ff       	call   111bb <Set_Current_Attr>
   1381e:	a1 6c 5e 02 00       	mov    0x25e6c,%eax
   13823:	89 44 24 18          	mov    %eax,0x18(%esp)
   13827:	8b 45 04             	mov    0x4(%ebp),%eax
   1382a:	89 44 24 14          	mov    %eax,0x14(%esp)
   1382e:	c7 44 24 10 31 00 00 	movl   $0x31,0x10(%esp)
   13835:	00 
   13836:	c7 44 24 0c 38 fa 01 	movl   $0x1fa38,0xc(%esp)
   1383d:	00 
   1383e:	c7 44 24 08 4c fa 01 	movl   $0x1fa4c,0x8(%esp)
   13845:	00 
   13846:	c7 44 24 04 5b fa 01 	movl   $0x1fa5b,0x4(%esp)
   1384d:	00 
   1384e:	c7 04 24 b4 ee 01 00 	movl   $0x1eeb4,(%esp)
   13855:	e8 0c d8 ff ff       	call   11066 <Print>
   1385a:	eb fe                	jmp    1385a <Init_TSS+0x60>
   1385c:	bb a0 50 02 00       	mov    $0x250a0,%ebx
   13861:	b9 1a 00 00 00       	mov    $0x1a,%ecx
   13866:	b8 00 00 00 00       	mov    $0x0,%eax
   1386b:	89 df                	mov    %ebx,%edi
   1386d:	f3 ab                	rep stos %eax,%es:(%edi)
   1386f:	89 5c 24 04          	mov    %ebx,0x4(%esp)
   13873:	89 14 24             	mov    %edx,(%esp)
   13876:	e8 6e 02 00 00       	call   13ae9 <Init_TSS_Descriptor>
   1387b:	a1 84 50 02 00       	mov    0x25084,%eax
   13880:	89 04 24             	mov    %eax,(%esp)
   13883:	e8 16 fe ff ff       	call   1369e <Get_Descriptor_Index>
   13888:	c1 e0 03             	shl    $0x3,%eax
   1388b:	66 a3 80 50 02 00    	mov    %ax,0x25080
   13891:	8b 15 84 50 02 00    	mov    0x25084,%edx
   13897:	0f b6 4a 05          	movzbl 0x5(%edx),%ecx
   1389b:	83 e1 f0             	and    $0xfffffff0,%ecx
   1389e:	83 c9 09             	or     $0x9,%ecx
   138a1:	88 4a 05             	mov    %cl,0x5(%edx)
   138a4:	0f 00 d8             	ltr    %ax
   138a7:	83 c4 20             	add    $0x20,%esp
   138aa:	5b                   	pop    %ebx
   138ab:	5f                   	pop    %edi
   138ac:	5d                   	pop    %ebp
   138ad:	c3                   	ret    

000138ae <Set_Kernel_Stack_Pointer>:
   138ae:	55                   	push   %ebp
   138af:	89 e5                	mov    %esp,%ebp
   138b1:	66 c7 05 a8 50 02 00 	movw   $0x10,0x250a8
   138b8:	10 00 
   138ba:	8b 45 08             	mov    0x8(%ebp),%eax
   138bd:	a3 a4 50 02 00       	mov    %eax,0x250a4
   138c2:	a1 84 50 02 00       	mov    0x25084,%eax
   138c7:	0f b6 50 05          	movzbl 0x5(%eax),%edx
   138cb:	83 e2 f0             	and    $0xfffffff0,%edx
   138ce:	83 ca 09             	or     $0x9,%edx
   138d1:	88 50 05             	mov    %dl,0x5(%eax)
   138d4:	0f b7 05 80 50 02 00 	movzwl 0x25080,%eax
   138db:	0f 00 d8             	ltr    %ax
   138de:	5d                   	pop    %ebp
   138df:	c3                   	ret    

000138e0 <Init_Null_Segment_Descriptor>:
   138e0:	55                   	push   %ebp
   138e1:	89 e5                	mov    %esp,%ebp
   138e3:	8b 45 08             	mov    0x8(%ebp),%eax
   138e6:	c7 00 00 00 00 00    	movl   $0x0,(%eax)
   138ec:	c7 40 04 00 00 00 00 	movl   $0x0,0x4(%eax)
   138f3:	5d                   	pop    %ebp
   138f4:	c3                   	ret    

000138f5 <Init_Code_Segment_Descriptor>:
   138f5:	55                   	push   %ebp
   138f6:	89 e5                	mov    %esp,%ebp
   138f8:	56                   	push   %esi
   138f9:	53                   	push   %ebx
   138fa:	83 ec 20             	sub    $0x20,%esp
   138fd:	8b 45 08             	mov    0x8(%ebp),%eax
   13900:	8b 55 0c             	mov    0xc(%ebp),%edx
   13903:	8b 5d 10             	mov    0x10(%ebp),%ebx
   13906:	83 7d 14 03          	cmpl   $0x3,0x14(%ebp)
   1390a:	76 4a                	jbe    13956 <Init_Code_Segment_Descriptor+0x61>
   1390c:	c7 04 24 4f 00 00 00 	movl   $0x4f,(%esp)
   13913:	e8 a3 d8 ff ff       	call   111bb <Set_Current_Attr>
   13918:	a1 6c 5e 02 00       	mov    0x25e6c,%eax
   1391d:	89 44 24 18          	mov    %eax,0x18(%esp)
   13921:	8b 45 04             	mov    0x4(%ebp),%eax
   13924:	89 44 24 14          	mov    %eax,0x14(%esp)
   13928:	c7 44 24 10 4a 00 00 	movl   $0x4a,0x10(%esp)
   1392f:	00 
   13930:	c7 44 24 0c 64 fa 01 	movl   $0x1fa64,0xc(%esp)
   13937:	00 
   13938:	c7 44 24 08 8c fa 01 	movl   $0x1fa8c,0x8(%esp)
   1393f:	00 
   13940:	c7 44 24 04 ec fa 01 	movl   $0x1faec,0x4(%esp)
   13947:	00 
   13948:	c7 04 24 b4 ee 01 00 	movl   $0x1eeb4,(%esp)
   1394f:	e8 12 d7 ff ff       	call   11066 <Print>
   13954:	eb fe                	jmp    13954 <Init_Code_Segment_Descriptor+0x5f>
   13956:	85 db                	test   %ebx,%ebx
   13958:	75 4a                	jne    139a4 <Init_Code_Segment_Descriptor+0xaf>
   1395a:	c7 04 24 4f 00 00 00 	movl   $0x4f,(%esp)
   13961:	e8 55 d8 ff ff       	call   111bb <Set_Current_Attr>
   13966:	a1 6c 5e 02 00       	mov    0x25e6c,%eax
   1396b:	89 44 24 18          	mov    %eax,0x18(%esp)
   1396f:	8b 45 04             	mov    0x4(%ebp),%eax
   13972:	89 44 24 14          	mov    %eax,0x14(%esp)
   13976:	c7 44 24 10 21 00 00 	movl   $0x21,0x10(%esp)
   1397d:	00 
   1397e:	c7 44 24 0c 64 fa 01 	movl   $0x1fa64,0xc(%esp)
   13985:	00 
   13986:	c7 44 24 08 7c fa 01 	movl   $0x1fa7c,0x8(%esp)
   1398d:	00 
   1398e:	c7 44 24 04 d4 fa 01 	movl   $0x1fad4,0x4(%esp)
   13995:	00 
   13996:	c7 04 24 b4 ee 01 00 	movl   $0x1eeb4,(%esp)
   1399d:	e8 c4 d6 ff ff       	call   11066 <Print>
   139a2:	eb fe                	jmp    139a2 <Init_Code_Segment_Descriptor+0xad>
   139a4:	83 eb 01             	sub    $0x1,%ebx
   139a7:	66 89 18             	mov    %bx,(%eax)
   139aa:	c1 eb 10             	shr    $0x10,%ebx
   139ad:	83 e3 0f             	and    $0xf,%ebx
   139b0:	0f b6 70 06          	movzbl 0x6(%eax),%esi
   139b4:	83 e6 10             	and    $0x10,%esi
   139b7:	88 50 02             	mov    %dl,0x2(%eax)
   139ba:	0f b6 ce             	movzbl %dh,%ecx
   139bd:	88 48 03             	mov    %cl,0x3(%eax)
   139c0:	89 d1                	mov    %edx,%ecx
   139c2:	c1 e9 10             	shr    $0x10,%ecx
   139c5:	88 48 04             	mov    %cl,0x4(%eax)
   139c8:	c1 ea 18             	shr    $0x18,%edx
   139cb:	88 50 07             	mov    %dl,0x7(%eax)
   139ce:	0f b6 55 14          	movzbl 0x14(%ebp),%edx
   139d2:	83 e2 03             	and    $0x3,%edx
   139d5:	c1 e2 05             	shl    $0x5,%edx
   139d8:	83 ca 9a             	or     $0xffffff9a,%edx
   139db:	88 50 05             	mov    %dl,0x5(%eax)
   139de:	89 f2                	mov    %esi,%edx
   139e0:	09 da                	or     %ebx,%edx
   139e2:	83 ca c0             	or     $0xffffffc0,%edx
   139e5:	88 50 06             	mov    %dl,0x6(%eax)
   139e8:	83 c4 20             	add    $0x20,%esp
   139eb:	5b                   	pop    %ebx
   139ec:	5e                   	pop    %esi
   139ed:	5d                   	pop    %ebp
   139ee:	c3                   	ret    

000139ef <Init_Data_Segment_Descriptor>:
   139ef:	55                   	push   %ebp
   139f0:	89 e5                	mov    %esp,%ebp
   139f2:	56                   	push   %esi
   139f3:	53                   	push   %ebx
   139f4:	83 ec 20             	sub    $0x20,%esp
   139f7:	8b 45 08             	mov    0x8(%ebp),%eax
   139fa:	8b 55 0c             	mov    0xc(%ebp),%edx
   139fd:	8b 5d 10             	mov    0x10(%ebp),%ebx
   13a00:	83 7d 14 03          	cmpl   $0x3,0x14(%ebp)
   13a04:	76 4a                	jbe    13a50 <Init_Data_Segment_Descriptor+0x61>
   13a06:	c7 04 24 4f 00 00 00 	movl   $0x4f,(%esp)
   13a0d:	e8 a9 d7 ff ff       	call   111bb <Set_Current_Attr>
   13a12:	a1 6c 5e 02 00       	mov    0x25e6c,%eax
   13a17:	89 44 24 18          	mov    %eax,0x18(%esp)
   13a1b:	8b 45 04             	mov    0x4(%ebp),%eax
   13a1e:	89 44 24 14          	mov    %eax,0x14(%esp)
   13a22:	c7 44 24 10 5f 00 00 	movl   $0x5f,0x10(%esp)
   13a29:	00 
   13a2a:	c7 44 24 0c 64 fa 01 	movl   $0x1fa64,0xc(%esp)
   13a31:	00 
   13a32:	c7 44 24 08 8c fa 01 	movl   $0x1fa8c,0x8(%esp)
   13a39:	00 
   13a3a:	c7 44 24 04 b7 fa 01 	movl   $0x1fab7,0x4(%esp)
   13a41:	00 
   13a42:	c7 04 24 b4 ee 01 00 	movl   $0x1eeb4,(%esp)
   13a49:	e8 18 d6 ff ff       	call   11066 <Print>
   13a4e:	eb fe                	jmp    13a4e <Init_Data_Segment_Descriptor+0x5f>
   13a50:	85 db                	test   %ebx,%ebx
   13a52:	75 4a                	jne    13a9e <Init_Data_Segment_Descriptor+0xaf>
   13a54:	c7 04 24 4f 00 00 00 	movl   $0x4f,(%esp)
   13a5b:	e8 5b d7 ff ff       	call   111bb <Set_Current_Attr>
   13a60:	a1 6c 5e 02 00       	mov    0x25e6c,%eax
   13a65:	89 44 24 18          	mov    %eax,0x18(%esp)
   13a69:	8b 45 04             	mov    0x4(%ebp),%eax
   13a6c:	89 44 24 14          	mov    %eax,0x14(%esp)
   13a70:	c7 44 24 10 21 00 00 	movl   $0x21,0x10(%esp)
   13a77:	00 
   13a78:	c7 44 24 0c 64 fa 01 	movl   $0x1fa64,0xc(%esp)
   13a7f:	00 
   13a80:	c7 44 24 08 7c fa 01 	movl   $0x1fa7c,0x8(%esp)
   13a87:	00 
   13a88:	c7 44 24 04 d4 fa 01 	movl   $0x1fad4,0x4(%esp)
   13a8f:	00 
   13a90:	c7 04 24 b4 ee 01 00 	movl   $0x1eeb4,(%esp)
   13a97:	e8 ca d5 ff ff       	call   11066 <Print>
   13a9c:	eb fe                	jmp    13a9c <Init_Data_Segment_Descriptor+0xad>
   13a9e:	83 eb 01             	sub    $0x1,%ebx
   13aa1:	66 89 18             	mov    %bx,(%eax)
   13aa4:	c1 eb 10             	shr    $0x10,%ebx
   13aa7:	83 e3 0f             	and    $0xf,%ebx
   13aaa:	0f b6 70 06          	movzbl 0x6(%eax),%esi
   13aae:	83 e6 10             	and    $0x10,%esi
   13ab1:	88 50 02             	mov    %dl,0x2(%eax)
   13ab4:	0f b6 ce             	movzbl %dh,%ecx
   13ab7:	88 48 03             	mov    %cl,0x3(%eax)
   13aba:	89 d1                	mov    %edx,%ecx
   13abc:	c1 e9 10             	shr    $0x10,%ecx
   13abf:	88 48 04             	mov    %cl,0x4(%eax)
   13ac2:	c1 ea 18             	shr    $0x18,%edx
   13ac5:	88 50 07             	mov    %dl,0x7(%eax)
   13ac8:	0f b6 55 14          	movzbl 0x14(%ebp),%edx
   13acc:	83 e2 03             	and    $0x3,%edx
   13acf:	c1 e2 05             	shl    $0x5,%edx
   13ad2:	83 ca 92             	or     $0xffffff92,%edx
   13ad5:	88 50 05             	mov    %dl,0x5(%eax)
   13ad8:	89 f2                	mov    %esi,%edx
   13ada:	09 da                	or     %ebx,%edx
   13adc:	83 ca c0             	or     $0xffffffc0,%edx
   13adf:	88 50 06             	mov    %dl,0x6(%eax)
   13ae2:	83 c4 20             	add    $0x20,%esp
   13ae5:	5b                   	pop    %ebx
   13ae6:	5e                   	pop    %esi
   13ae7:	5d                   	pop    %ebp
   13ae8:	c3                   	ret    

00013ae9 <Init_TSS_Descriptor>:
   13ae9:	55                   	push   %ebp
   13aea:	89 e5                	mov    %esp,%ebp
   13aec:	8b 45 08             	mov    0x8(%ebp),%eax
   13aef:	8b 55 0c             	mov    0xc(%ebp),%edx
   13af2:	66 c7 00 68 00       	movw   $0x68,(%eax)
   13af7:	88 50 02             	mov    %dl,0x2(%eax)
   13afa:	0f b6 ce             	movzbl %dh,%ecx
   13afd:	88 48 03             	mov    %cl,0x3(%eax)
   13b00:	89 d1                	mov    %edx,%ecx
   13b02:	c1 e9 10             	shr    $0x10,%ecx
   13b05:	88 48 04             	mov    %cl,0x4(%eax)
   13b08:	c1 ea 18             	shr    $0x18,%edx
   13b0b:	88 50 07             	mov    %dl,0x7(%eax)
   13b0e:	c6 40 05 89          	movb   $0x89,0x5(%eax)
   13b12:	0f b6 50 06          	movzbl 0x6(%eax),%edx
   13b16:	83 e2 10             	and    $0x10,%edx
   13b19:	88 50 06             	mov    %dl,0x6(%eax)
   13b1c:	5d                   	pop    %ebp
   13b1d:	c3                   	ret    

00013b1e <Init_LDT_Descriptor>:
   13b1e:	55                   	push   %ebp
   13b1f:	89 e5                	mov    %esp,%ebp
   13b21:	57                   	push   %edi
   13b22:	56                   	push   %esi
   13b23:	53                   	push   %ebx
   13b24:	8b 45 08             	mov    0x8(%ebp),%eax
   13b27:	8b 55 0c             	mov    0xc(%ebp),%edx
   13b2a:	8b 5d 10             	mov    0x10(%ebp),%ebx
   13b2d:	8d 0c dd 00 00 00 00 	lea    0x0(,%ebx,8),%ecx
   13b34:	66 89 08             	mov    %cx,(%eax)
   13b37:	c1 e9 10             	shr    $0x10,%ecx
   13b3a:	89 cf                	mov    %ecx,%edi
   13b3c:	83 e7 0f             	and    $0xf,%edi
   13b3f:	0f b6 58 06          	movzbl 0x6(%eax),%ebx
   13b43:	83 e3 10             	and    $0x10,%ebx
   13b46:	88 50 02             	mov    %dl,0x2(%eax)
   13b49:	0f b6 f6             	movzbl %dh,%esi
   13b4c:	89 f1                	mov    %esi,%ecx
   13b4e:	88 48 03             	mov    %cl,0x3(%eax)
   13b51:	89 d6                	mov    %edx,%esi
   13b53:	c1 ee 10             	shr    $0x10,%esi
   13b56:	89 f1                	mov    %esi,%ecx
   13b58:	88 48 04             	mov    %cl,0x4(%eax)
   13b5b:	c1 ea 18             	shr    $0x18,%edx
   13b5e:	88 50 07             	mov    %dl,0x7(%eax)
   13b61:	c6 40 05 82          	movb   $0x82,0x5(%eax)
   13b65:	89 f9                	mov    %edi,%ecx
   13b67:	09 d9                	or     %ebx,%ecx
   13b69:	88 48 06             	mov    %cl,0x6(%eax)
   13b6c:	5b                   	pop    %ebx
   13b6d:	5e                   	pop    %esi
   13b6e:	5f                   	pop    %edi
   13b6f:	5d                   	pop    %ebp
   13b70:	c3                   	ret    

00013b71 <bget>:
   13b71:	55                   	push   %ebp
   13b72:	89 e5                	mov    %esp,%ebp
   13b74:	57                   	push   %edi
   13b75:	56                   	push   %esi
   13b76:	53                   	push   %ebx
   13b77:	83 ec 2c             	sub    $0x2c,%esp
   13b7a:	8b 45 08             	mov    0x8(%ebp),%eax
   13b7d:	85 c0                	test   %eax,%eax
   13b7f:	7f 4a                	jg     13bcb <bget+0x5a>
   13b81:	c7 04 24 4f 00 00 00 	movl   $0x4f,(%esp)
   13b88:	e8 2e d6 ff ff       	call   111bb <Set_Current_Attr>
   13b8d:	a1 6c 5e 02 00       	mov    0x25e6c,%eax
   13b92:	89 44 24 18          	mov    %eax,0x18(%esp)
   13b96:	8b 45 04             	mov    0x4(%ebp),%eax
   13b99:	89 44 24 14          	mov    %eax,0x14(%esp)
   13b9d:	c7 44 24 10 4d 02 00 	movl   $0x24d,0x10(%esp)
   13ba4:	00 
   13ba5:	c7 44 24 0c 09 fb 01 	movl   $0x1fb09,0xc(%esp)
   13bac:	00 
   13bad:	c7 44 24 08 09 fc 01 	movl   $0x1fc09,0x8(%esp)
   13bb4:	00 
   13bb5:	c7 44 24 04 cb fd 01 	movl   $0x1fdcb,0x4(%esp)
   13bbc:	00 
   13bbd:	c7 04 24 b4 ee 01 00 	movl   $0x1eeb4,(%esp)
   13bc4:	e8 9d d4 ff ff       	call   11066 <Print>
   13bc9:	eb fe                	jmp    13bc9 <bget+0x58>
   13bcb:	83 f8 07             	cmp    $0x7,%eax
   13bce:	ba 08 00 00 00       	mov    $0x8,%edx
   13bd3:	0f 46 c2             	cmovbe %edx,%eax
   13bd6:	83 c0 03             	add    $0x3,%eax
   13bd9:	83 e0 fc             	and    $0xfffffffc,%eax
   13bdc:	89 c6                	mov    %eax,%esi
   13bde:	83 c6 08             	add    $0x8,%esi
   13be1:	89 f3                	mov    %esi,%ebx
   13be3:	8b 15 18 40 02 00    	mov    0x24018,%edx
   13be9:	81 fa 10 40 02 00    	cmp    $0x24010,%edx
   13bef:	0f 84 e6 01 00 00    	je     13ddb <bget+0x26a>
   13bf5:	b8 10 40 02 00       	mov    $0x24010,%eax
   13bfa:	8b 4a 04             	mov    0x4(%edx),%ecx
   13bfd:	39 cb                	cmp    %ecx,%ebx
   13bff:	7f 11                	jg     13c12 <bget+0xa1>
   13c01:	3d 10 40 02 00       	cmp    $0x24010,%eax
   13c06:	74 08                	je     13c10 <bget+0x9f>
   13c08:	3b 48 04             	cmp    0x4(%eax),%ecx
   13c0b:	0f 4c c2             	cmovl  %edx,%eax
   13c0e:	eb 02                	jmp    13c12 <bget+0xa1>
   13c10:	89 d0                	mov    %edx,%eax
   13c12:	8b 52 08             	mov    0x8(%edx),%edx
   13c15:	81 fa 10 40 02 00    	cmp    $0x24010,%edx
   13c1b:	75 dd                	jne    13bfa <bget+0x89>
   13c1d:	3d 10 40 02 00       	cmp    $0x24010,%eax
   13c22:	0f 84 ba 01 00 00    	je     13de2 <bget+0x271>
   13c28:	8b 50 04             	mov    0x4(%eax),%edx
   13c2b:	39 d6                	cmp    %edx,%esi
   13c2d:	0f 8f 93 01 00 00    	jg     13dc6 <bget+0x255>
   13c33:	eb 0b                	jmp    13c40 <bget+0xcf>
   13c35:	8b 50 04             	mov    0x4(%eax),%edx
   13c38:	39 d3                	cmp    %edx,%ebx
   13c3a:	0f 8f 86 01 00 00    	jg     13dc6 <bget+0x255>
   13c40:	89 d3                	mov    %edx,%ebx
   13c42:	29 f3                	sub    %esi,%ebx
   13c44:	83 fb 10             	cmp    $0x10,%ebx
   13c47:	76 6c                	jbe    13cb5 <bget+0x144>
   13c49:	8d 0c 18             	lea    (%eax,%ebx,1),%ecx
   13c4c:	8d 3c 31             	lea    (%ecx,%esi,1),%edi
   13c4f:	3b 17                	cmp    (%edi),%edx
   13c51:	74 4a                	je     13c9d <bget+0x12c>
   13c53:	c7 04 24 4f 00 00 00 	movl   $0x4f,(%esp)
   13c5a:	e8 5c d5 ff ff       	call   111bb <Set_Current_Attr>
   13c5f:	a1 6c 5e 02 00       	mov    0x25e6c,%eax
   13c64:	89 44 24 18          	mov    %eax,0x18(%esp)
   13c68:	8b 45 04             	mov    0x4(%ebp),%eax
   13c6b:	89 44 24 14          	mov    %eax,0x14(%esp)
   13c6f:	c7 44 24 10 88 02 00 	movl   $0x288,0x10(%esp)
   13c76:	00 
   13c77:	c7 44 24 0c 09 fb 01 	movl   $0x1fb09,0xc(%esp)
   13c7e:	00 
   13c7f:	c7 44 24 08 1e fb 01 	movl   $0x1fb1e,0x8(%esp)
   13c86:	00 
   13c87:	c7 44 24 04 cb fd 01 	movl   $0x1fdcb,0x4(%esp)
   13c8e:	00 
   13c8f:	c7 04 24 b4 ee 01 00 	movl   $0x1eeb4,(%esp)
   13c96:	e8 cb d3 ff ff       	call   11066 <Print>
   13c9b:	eb fe                	jmp    13c9b <bget+0x12a>
   13c9d:	89 58 04             	mov    %ebx,0x4(%eax)
   13ca0:	89 19                	mov    %ebx,(%ecx)
   13ca2:	f7 de                	neg    %esi
   13ca4:	89 71 04             	mov    %esi,0x4(%ecx)
   13ca7:	c7 07 00 00 00 00    	movl   $0x0,(%edi)
   13cad:	8d 41 08             	lea    0x8(%ecx),%eax
   13cb0:	e9 32 01 00 00       	jmp    13de7 <bget+0x276>
   13cb5:	8d 0c 10             	lea    (%eax,%edx,1),%ecx
   13cb8:	3b 11                	cmp    (%ecx),%edx
   13cba:	74 4a                	je     13d06 <bget+0x195>
   13cbc:	c7 04 24 4f 00 00 00 	movl   $0x4f,(%esp)
   13cc3:	e8 f3 d4 ff ff       	call   111bb <Set_Current_Attr>
   13cc8:	a1 6c 5e 02 00       	mov    0x25e6c,%eax
   13ccd:	89 44 24 18          	mov    %eax,0x18(%esp)
   13cd1:	8b 45 04             	mov    0x4(%ebp),%eax
   13cd4:	89 44 24 14          	mov    %eax,0x14(%esp)
   13cd8:	c7 44 24 10 9c 02 00 	movl   $0x29c,0x10(%esp)
   13cdf:	00 
   13ce0:	c7 44 24 0c 09 fb 01 	movl   $0x1fb09,0xc(%esp)
   13ce7:	00 
   13ce8:	c7 44 24 08 3a fb 01 	movl   $0x1fb3a,0x8(%esp)
   13cef:	00 
   13cf0:	c7 44 24 04 cb fd 01 	movl   $0x1fdcb,0x4(%esp)
   13cf7:	00 
   13cf8:	c7 04 24 b4 ee 01 00 	movl   $0x1eeb4,(%esp)
   13cff:	e8 62 d3 ff ff       	call   11066 <Print>
   13d04:	eb fe                	jmp    13d04 <bget+0x193>
   13d06:	8b 58 0c             	mov    0xc(%eax),%ebx
   13d09:	8b 53 08             	mov    0x8(%ebx),%edx
   13d0c:	39 c2                	cmp    %eax,%edx
   13d0e:	74 4a                	je     13d5a <bget+0x1e9>
   13d10:	c7 04 24 4f 00 00 00 	movl   $0x4f,(%esp)
   13d17:	e8 9f d4 ff ff       	call   111bb <Set_Current_Attr>
   13d1c:	a1 6c 5e 02 00       	mov    0x25e6c,%eax
   13d21:	89 44 24 18          	mov    %eax,0x18(%esp)
   13d25:	8b 45 04             	mov    0x4(%ebp),%eax
   13d28:	89 44 24 14          	mov    %eax,0x14(%esp)
   13d2c:	c7 44 24 10 a1 02 00 	movl   $0x2a1,0x10(%esp)
   13d33:	00 
   13d34:	c7 44 24 0c 09 fb 01 	movl   $0x1fb09,0xc(%esp)
   13d3b:	00 
   13d3c:	c7 44 24 08 56 fb 01 	movl   $0x1fb56,0x8(%esp)
   13d43:	00 
   13d44:	c7 44 24 04 cb fd 01 	movl   $0x1fdcb,0x4(%esp)
   13d4b:	00 
   13d4c:	c7 04 24 b4 ee 01 00 	movl   $0x1eeb4,(%esp)
   13d53:	e8 0e d3 ff ff       	call   11066 <Print>
   13d58:	eb fe                	jmp    13d58 <bget+0x1e7>
   13d5a:	8b 42 08             	mov    0x8(%edx),%eax
   13d5d:	3b 50 0c             	cmp    0xc(%eax),%edx
   13d60:	74 4a                	je     13dac <bget+0x23b>
   13d62:	c7 04 24 4f 00 00 00 	movl   $0x4f,(%esp)
   13d69:	e8 4d d4 ff ff       	call   111bb <Set_Current_Attr>
   13d6e:	a1 6c 5e 02 00       	mov    0x25e6c,%eax
   13d73:	89 44 24 18          	mov    %eax,0x18(%esp)
   13d77:	8b 45 04             	mov    0x4(%ebp),%eax
   13d7a:	89 44 24 14          	mov    %eax,0x14(%esp)
   13d7e:	c7 44 24 10 a2 02 00 	movl   $0x2a2,0x10(%esp)
   13d85:	00 
   13d86:	c7 44 24 0c 09 fb 01 	movl   $0x1fb09,0xc(%esp)
   13d8d:	00 
   13d8e:	c7 44 24 08 71 fb 01 	movl   $0x1fb71,0x8(%esp)
   13d95:	00 
   13d96:	c7 44 24 04 cb fd 01 	movl   $0x1fdcb,0x4(%esp)
   13d9d:	00 
   13d9e:	c7 04 24 b4 ee 01 00 	movl   $0x1eeb4,(%esp)
   13da5:	e8 bc d2 ff ff       	call   11066 <Print>
   13daa:	eb fe                	jmp    13daa <bget+0x239>
   13dac:	89 43 08             	mov    %eax,0x8(%ebx)
   13daf:	8b 42 08             	mov    0x8(%edx),%eax
   13db2:	8b 5a 0c             	mov    0xc(%edx),%ebx
   13db5:	89 58 0c             	mov    %ebx,0xc(%eax)
   13db8:	f7 5a 04             	negl   0x4(%edx)
   13dbb:	c7 01 00 00 00 00    	movl   $0x0,(%ecx)
   13dc1:	8d 42 08             	lea    0x8(%edx),%eax
   13dc4:	eb 21                	jmp    13de7 <bget+0x276>
   13dc6:	8b 40 08             	mov    0x8(%eax),%eax
   13dc9:	3d 10 40 02 00       	cmp    $0x24010,%eax
   13dce:	0f 85 61 fe ff ff    	jne    13c35 <bget+0xc4>
   13dd4:	b8 00 00 00 00       	mov    $0x0,%eax
   13dd9:	eb 0c                	jmp    13de7 <bget+0x276>
   13ddb:	b8 00 00 00 00       	mov    $0x0,%eax
   13de0:	eb 05                	jmp    13de7 <bget+0x276>
   13de2:	b8 00 00 00 00       	mov    $0x0,%eax
   13de7:	83 c4 2c             	add    $0x2c,%esp
   13dea:	5b                   	pop    %ebx
   13deb:	5e                   	pop    %esi
   13dec:	5f                   	pop    %edi
   13ded:	5d                   	pop    %ebp
   13dee:	c3                   	ret    

00013def <bgetz>:
   13def:	55                   	push   %ebp
   13df0:	89 e5                	mov    %esp,%ebp
   13df2:	56                   	push   %esi
   13df3:	53                   	push   %ebx
   13df4:	83 ec 20             	sub    $0x20,%esp
   13df7:	8b 75 08             	mov    0x8(%ebp),%esi
   13dfa:	89 34 24             	mov    %esi,(%esp)
   13dfd:	e8 6f fd ff ff       	call   13b71 <bget>
   13e02:	89 c3                	mov    %eax,%ebx
   13e04:	85 c0                	test   %eax,%eax
   13e06:	74 74                	je     13e7c <bgetz+0x8d>
   13e08:	8b 40 fc             	mov    -0x4(%eax),%eax
   13e0b:	f7 d8                	neg    %eax
   13e0d:	75 08                	jne    13e17 <bgetz+0x28>
   13e0f:	8b 43 f4             	mov    -0xc(%ebx),%eax
   13e12:	83 e8 0c             	sub    $0xc,%eax
   13e15:	eb 03                	jmp    13e1a <bgetz+0x2b>
   13e17:	83 e8 08             	sub    $0x8,%eax
   13e1a:	39 f0                	cmp    %esi,%eax
   13e1c:	7d 4a                	jge    13e68 <bgetz+0x79>
   13e1e:	c7 04 24 4f 00 00 00 	movl   $0x4f,(%esp)
   13e25:	e8 91 d3 ff ff       	call   111bb <Set_Current_Attr>
   13e2a:	a1 6c 5e 02 00       	mov    0x25e6c,%eax
   13e2f:	89 44 24 18          	mov    %eax,0x18(%esp)
   13e33:	8b 45 04             	mov    0x4(%ebp),%eax
   13e36:	89 44 24 14          	mov    %eax,0x14(%esp)
   13e3a:	c7 44 24 10 0d 03 00 	movl   $0x30d,0x10(%esp)
   13e41:	00 
   13e42:	c7 44 24 0c 09 fb 01 	movl   $0x1fb09,0xc(%esp)
   13e49:	00 
   13e4a:	c7 44 24 08 8c fb 01 	movl   $0x1fb8c,0x8(%esp)
   13e51:	00 
   13e52:	c7 44 24 04 c5 fd 01 	movl   $0x1fdc5,0x4(%esp)
   13e59:	00 
   13e5a:	c7 04 24 b4 ee 01 00 	movl   $0x1eeb4,(%esp)
   13e61:	e8 00 d2 ff ff       	call   11066 <Print>
   13e66:	eb fe                	jmp    13e66 <bgetz+0x77>
   13e68:	89 44 24 08          	mov    %eax,0x8(%esp)
   13e6c:	c7 44 24 04 00 00 00 	movl   $0x0,0x4(%esp)
   13e73:	00 
   13e74:	89 1c 24             	mov    %ebx,(%esp)
   13e77:	e8 55 ab 00 00       	call   1e9d1 <memset>
   13e7c:	89 d8                	mov    %ebx,%eax
   13e7e:	83 c4 20             	add    $0x20,%esp
   13e81:	5b                   	pop    %ebx
   13e82:	5e                   	pop    %esi
   13e83:	5d                   	pop    %ebp
   13e84:	c3                   	ret    

00013e85 <brel>:
   13e85:	55                   	push   %ebp
   13e86:	89 e5                	mov    %esp,%ebp
   13e88:	53                   	push   %ebx
   13e89:	83 ec 24             	sub    $0x24,%esp
   13e8c:	8b 55 08             	mov    0x8(%ebp),%edx
   13e8f:	85 d2                	test   %edx,%edx
   13e91:	75 4a                	jne    13edd <brel+0x58>
   13e93:	c7 04 24 4f 00 00 00 	movl   $0x4f,(%esp)
   13e9a:	e8 1c d3 ff ff       	call   111bb <Set_Current_Attr>
   13e9f:	a1 6c 5e 02 00       	mov    0x25e6c,%eax
   13ea4:	89 44 24 18          	mov    %eax,0x18(%esp)
   13ea8:	8b 45 04             	mov    0x4(%ebp),%eax
   13eab:	89 44 24 14          	mov    %eax,0x14(%esp)
   13eaf:	c7 44 24 10 44 03 00 	movl   $0x344,0x10(%esp)
   13eb6:	00 
   13eb7:	c7 44 24 0c 09 fb 01 	movl   $0x1fb09,0xc(%esp)
   13ebe:	00 
   13ebf:	c7 44 24 08 9a fb 01 	movl   $0x1fb9a,0x8(%esp)
   13ec6:	00 
   13ec7:	c7 44 24 04 ba fd 01 	movl   $0x1fdba,0x4(%esp)
   13ece:	00 
   13ecf:	c7 04 24 b4 ee 01 00 	movl   $0x1eeb4,(%esp)
   13ed6:	e8 8b d1 ff ff       	call   11066 <Print>
   13edb:	eb fe                	jmp    13edb <brel+0x56>
   13edd:	8b 5a fc             	mov    -0x4(%edx),%ebx
   13ee0:	85 db                	test   %ebx,%ebx
   13ee2:	78 4a                	js     13f2e <brel+0xa9>
   13ee4:	c7 04 24 4f 00 00 00 	movl   $0x4f,(%esp)
   13eeb:	e8 cb d2 ff ff       	call   111bb <Set_Current_Attr>
   13ef0:	a1 6c 5e 02 00       	mov    0x25e6c,%eax
   13ef5:	89 44 24 18          	mov    %eax,0x18(%esp)
   13ef9:	8b 45 04             	mov    0x4(%ebp),%eax
   13efc:	89 44 24 14          	mov    %eax,0x14(%esp)
   13f00:	c7 44 24 10 61 03 00 	movl   $0x361,0x10(%esp)
   13f07:	00 
   13f08:	c7 44 24 0c 09 fb 01 	movl   $0x1fb09,0xc(%esp)
   13f0f:	00 
   13f10:	c7 44 24 08 ad fb 01 	movl   $0x1fbad,0x8(%esp)
   13f17:	00 
   13f18:	c7 44 24 04 ba fd 01 	movl   $0x1fdba,0x4(%esp)
   13f1f:	00 
   13f20:	c7 04 24 b4 ee 01 00 	movl   $0x1eeb4,(%esp)
   13f27:	e8 3a d1 ff ff       	call   11066 <Print>
   13f2c:	eb fe                	jmp    13f2c <brel+0xa7>
   13f2e:	8d 42 f8             	lea    -0x8(%edx),%eax
   13f31:	89 c1                	mov    %eax,%ecx
   13f33:	29 d9                	sub    %ebx,%ecx
   13f35:	83 39 00             	cmpl   $0x0,(%ecx)
   13f38:	74 4a                	je     13f84 <brel+0xff>
   13f3a:	c7 04 24 4f 00 00 00 	movl   $0x4f,(%esp)
   13f41:	e8 75 d2 ff ff       	call   111bb <Set_Current_Attr>
   13f46:	a1 6c 5e 02 00       	mov    0x25e6c,%eax
   13f4b:	89 44 24 18          	mov    %eax,0x18(%esp)
   13f4f:	8b 45 04             	mov    0x4(%ebp),%eax
   13f52:	89 44 24 14          	mov    %eax,0x14(%esp)
   13f56:	c7 44 24 10 66 03 00 	movl   $0x366,0x10(%esp)
   13f5d:	00 
   13f5e:	c7 44 24 0c 09 fb 01 	movl   $0x1fb09,0xc(%esp)
   13f65:	00 
   13f66:	c7 44 24 08 14 fc 01 	movl   $0x1fc14,0x8(%esp)
   13f6d:	00 
   13f6e:	c7 44 24 04 ba fd 01 	movl   $0x1fdba,0x4(%esp)
   13f75:	00 
   13f76:	c7 04 24 b4 ee 01 00 	movl   $0x1eeb4,(%esp)
   13f7d:	e8 e4 d0 ff ff       	call   11066 <Print>
   13f82:	eb fe                	jmp    13f82 <brel+0xfd>
   13f84:	8b 4a f8             	mov    -0x8(%edx),%ecx
   13f87:	85 c9                	test   %ecx,%ecx
   13f89:	74 5b                	je     13fe6 <brel+0x161>
   13f8b:	29 c8                	sub    %ecx,%eax
   13f8d:	3b 48 04             	cmp    0x4(%eax),%ecx
   13f90:	74 4a                	je     13fdc <brel+0x157>
   13f92:	c7 04 24 4f 00 00 00 	movl   $0x4f,(%esp)
   13f99:	e8 1d d2 ff ff       	call   111bb <Set_Current_Attr>
   13f9e:	a1 6c 5e 02 00       	mov    0x25e6c,%eax
   13fa3:	89 44 24 18          	mov    %eax,0x18(%esp)
   13fa7:	8b 45 04             	mov    0x4(%ebp),%eax
   13faa:	89 44 24 14          	mov    %eax,0x14(%esp)
   13fae:	c7 44 24 10 7a 03 00 	movl   $0x37a,0x10(%esp)
   13fb5:	00 
   13fb6:	c7 44 24 0c 09 fb 01 	movl   $0x1fb09,0xc(%esp)
   13fbd:	00 
   13fbe:	c7 44 24 08 54 fc 01 	movl   $0x1fc54,0x8(%esp)
   13fc5:	00 
   13fc6:	c7 44 24 04 ba fd 01 	movl   $0x1fdba,0x4(%esp)
   13fcd:	00 
   13fce:	c7 04 24 b4 ee 01 00 	movl   $0x1eeb4,(%esp)
   13fd5:	e8 8c d0 ff ff       	call   11066 <Print>
   13fda:	eb fe                	jmp    13fda <brel+0x155>
   13fdc:	29 d9                	sub    %ebx,%ecx
   13fde:	89 48 04             	mov    %ecx,0x4(%eax)
   13fe1:	e9 cf 00 00 00       	jmp    140b5 <brel+0x230>
   13fe6:	8b 0d 1c 40 02 00    	mov    0x2401c,%ecx
   13fec:	81 79 08 10 40 02 00 	cmpl   $0x24010,0x8(%ecx)
   13ff3:	74 4a                	je     1403f <brel+0x1ba>
   13ff5:	c7 04 24 4f 00 00 00 	movl   $0x4f,(%esp)
   13ffc:	e8 ba d1 ff ff       	call   111bb <Set_Current_Attr>
   14001:	a1 6c 5e 02 00       	mov    0x25e6c,%eax
   14006:	89 44 24 18          	mov    %eax,0x18(%esp)
   1400a:	8b 45 04             	mov    0x4(%ebp),%eax
   1400d:	89 44 24 14          	mov    %eax,0x14(%esp)
   14011:	c7 44 24 10 82 03 00 	movl   $0x382,0x10(%esp)
   14018:	00 
   14019:	c7 44 24 0c 09 fb 01 	movl   $0x1fb09,0xc(%esp)
   14020:	00 
   14021:	c7 44 24 08 a0 fc 01 	movl   $0x1fca0,0x8(%esp)
   14028:	00 
   14029:	c7 44 24 04 ba fd 01 	movl   $0x1fdba,0x4(%esp)
   14030:	00 
   14031:	c7 04 24 b4 ee 01 00 	movl   $0x1eeb4,(%esp)
   14038:	e8 29 d0 ff ff       	call   11066 <Print>
   1403d:	eb fe                	jmp    1403d <brel+0x1b8>
   1403f:	8b 0d 18 40 02 00    	mov    0x24018,%ecx
   14045:	81 79 0c 10 40 02 00 	cmpl   $0x24010,0xc(%ecx)
   1404c:	74 4a                	je     14098 <brel+0x213>
   1404e:	c7 04 24 4f 00 00 00 	movl   $0x4f,(%esp)
   14055:	e8 61 d1 ff ff       	call   111bb <Set_Current_Attr>
   1405a:	a1 6c 5e 02 00       	mov    0x25e6c,%eax
   1405f:	89 44 24 18          	mov    %eax,0x18(%esp)
   14063:	8b 45 04             	mov    0x4(%ebp),%eax
   14066:	89 44 24 14          	mov    %eax,0x14(%esp)
   1406a:	c7 44 24 10 83 03 00 	movl   $0x383,0x10(%esp)
   14071:	00 
   14072:	c7 44 24 0c 09 fb 01 	movl   $0x1fb09,0xc(%esp)
   14079:	00 
   1407a:	c7 44 24 08 cc fc 01 	movl   $0x1fccc,0x8(%esp)
   14081:	00 
   14082:	c7 44 24 04 ba fd 01 	movl   $0x1fdba,0x4(%esp)
   14089:	00 
   1408a:	c7 04 24 b4 ee 01 00 	movl   $0x1eeb4,(%esp)
   14091:	e8 d0 cf ff ff       	call   11066 <Print>
   14096:	eb fe                	jmp    14096 <brel+0x211>
   14098:	c7 02 10 40 02 00    	movl   $0x24010,(%edx)
   1409e:	8b 0d 1c 40 02 00    	mov    0x2401c,%ecx
   140a4:	89 4a 04             	mov    %ecx,0x4(%edx)
   140a7:	a3 1c 40 02 00       	mov    %eax,0x2401c
   140ac:	8b 4a 04             	mov    0x4(%edx),%ecx
   140af:	89 41 08             	mov    %eax,0x8(%ecx)
   140b2:	f7 5a fc             	negl   -0x4(%edx)
   140b5:	89 c2                	mov    %eax,%edx
   140b7:	03 50 04             	add    0x4(%eax),%edx
   140ba:	8b 4a 04             	mov    0x4(%edx),%ecx
   140bd:	85 c9                	test   %ecx,%ecx
   140bf:	0f 8e 0c 01 00 00    	jle    141d1 <brel+0x34c>
   140c5:	3b 0c 0a             	cmp    (%edx,%ecx,1),%ecx
   140c8:	74 4a                	je     14114 <brel+0x28f>
   140ca:	c7 04 24 4f 00 00 00 	movl   $0x4f,(%esp)
   140d1:	e8 e5 d0 ff ff       	call   111bb <Set_Current_Attr>
   140d6:	a1 6c 5e 02 00       	mov    0x25e6c,%eax
   140db:	89 44 24 18          	mov    %eax,0x18(%esp)
   140df:	8b 45 04             	mov    0x4(%ebp),%eax
   140e2:	89 44 24 14          	mov    %eax,0x14(%esp)
   140e6:	c7 44 24 10 96 03 00 	movl   $0x396,0x10(%esp)
   140ed:	00 
   140ee:	c7 44 24 0c 09 fb 01 	movl   $0x1fb09,0xc(%esp)
   140f5:	00 
   140f6:	c7 44 24 08 f8 fc 01 	movl   $0x1fcf8,0x8(%esp)
   140fd:	00 
   140fe:	c7 44 24 04 ba fd 01 	movl   $0x1fdba,0x4(%esp)
   14105:	00 
   14106:	c7 04 24 b4 ee 01 00 	movl   $0x1eeb4,(%esp)
   1410d:	e8 54 cf ff ff       	call   11066 <Print>
   14112:	eb fe                	jmp    14112 <brel+0x28d>
   14114:	8b 5a 0c             	mov    0xc(%edx),%ebx
   14117:	8b 4b 08             	mov    0x8(%ebx),%ecx
   1411a:	39 d1                	cmp    %edx,%ecx
   1411c:	74 4a                	je     14168 <brel+0x2e3>
   1411e:	c7 04 24 4f 00 00 00 	movl   $0x4f,(%esp)
   14125:	e8 91 d0 ff ff       	call   111bb <Set_Current_Attr>
   1412a:	a1 6c 5e 02 00       	mov    0x25e6c,%eax
   1412f:	89 44 24 18          	mov    %eax,0x18(%esp)
   14133:	8b 45 04             	mov    0x4(%ebp),%eax
   14136:	89 44 24 14          	mov    %eax,0x14(%esp)
   1413a:	c7 44 24 10 97 03 00 	movl   $0x397,0x10(%esp)
   14141:	00 
   14142:	c7 44 24 0c 09 fb 01 	movl   $0x1fb09,0xc(%esp)
   14149:	00 
   1414a:	c7 44 24 08 bd fb 01 	movl   $0x1fbbd,0x8(%esp)
   14151:	00 
   14152:	c7 44 24 04 ba fd 01 	movl   $0x1fdba,0x4(%esp)
   14159:	00 
   1415a:	c7 04 24 b4 ee 01 00 	movl   $0x1eeb4,(%esp)
   14161:	e8 00 cf ff ff       	call   11066 <Print>
   14166:	eb fe                	jmp    14166 <brel+0x2e1>
   14168:	8b 51 08             	mov    0x8(%ecx),%edx
   1416b:	3b 4a 0c             	cmp    0xc(%edx),%ecx
   1416e:	74 4a                	je     141ba <brel+0x335>
   14170:	c7 04 24 4f 00 00 00 	movl   $0x4f,(%esp)
   14177:	e8 3f d0 ff ff       	call   111bb <Set_Current_Attr>
   1417c:	a1 6c 5e 02 00       	mov    0x25e6c,%eax
   14181:	89 44 24 18          	mov    %eax,0x18(%esp)
   14185:	8b 45 04             	mov    0x4(%ebp),%eax
   14188:	89 44 24 14          	mov    %eax,0x14(%esp)
   1418c:	c7 44 24 10 98 03 00 	movl   $0x398,0x10(%esp)
   14193:	00 
   14194:	c7 44 24 0c 09 fb 01 	movl   $0x1fb09,0xc(%esp)
   1419b:	00 
   1419c:	c7 44 24 08 da fb 01 	movl   $0x1fbda,0x8(%esp)
   141a3:	00 
   141a4:	c7 44 24 04 ba fd 01 	movl   $0x1fdba,0x4(%esp)
   141ab:	00 
   141ac:	c7 04 24 b4 ee 01 00 	movl   $0x1eeb4,(%esp)
   141b3:	e8 ae ce ff ff       	call   11066 <Print>
   141b8:	eb fe                	jmp    141b8 <brel+0x333>
   141ba:	89 53 08             	mov    %edx,0x8(%ebx)
   141bd:	8b 51 08             	mov    0x8(%ecx),%edx
   141c0:	8b 59 0c             	mov    0xc(%ecx),%ebx
   141c3:	89 5a 0c             	mov    %ebx,0xc(%edx)
   141c6:	8b 50 04             	mov    0x4(%eax),%edx
   141c9:	03 51 04             	add    0x4(%ecx),%edx
   141cc:	89 50 04             	mov    %edx,0x4(%eax)
   141cf:	01 c2                	add    %eax,%edx
   141d1:	83 7a 04 00          	cmpl   $0x0,0x4(%edx)
   141d5:	78 4a                	js     14221 <brel+0x39c>
   141d7:	c7 04 24 4f 00 00 00 	movl   $0x4f,(%esp)
   141de:	e8 d8 cf ff ff       	call   111bb <Set_Current_Attr>
   141e3:	a1 6c 5e 02 00       	mov    0x25e6c,%eax
   141e8:	89 44 24 18          	mov    %eax,0x18(%esp)
   141ec:	8b 45 04             	mov    0x4(%ebp),%eax
   141ef:	89 44 24 14          	mov    %eax,0x14(%esp)
   141f3:	c7 44 24 10 aa 03 00 	movl   $0x3aa,0x10(%esp)
   141fa:	00 
   141fb:	c7 44 24 0c 09 fb 01 	movl   $0x1fb09,0xc(%esp)
   14202:	00 
   14203:	c7 44 24 08 f7 fb 01 	movl   $0x1fbf7,0x8(%esp)
   1420a:	00 
   1420b:	c7 44 24 04 ba fd 01 	movl   $0x1fdba,0x4(%esp)
   14212:	00 
   14213:	c7 04 24 b4 ee 01 00 	movl   $0x1eeb4,(%esp)
   1421a:	e8 47 ce ff ff       	call   11066 <Print>
   1421f:	eb fe                	jmp    1421f <brel+0x39a>
   14221:	8b 40 04             	mov    0x4(%eax),%eax
   14224:	89 02                	mov    %eax,(%edx)
   14226:	83 c4 24             	add    $0x24,%esp
   14229:	5b                   	pop    %ebx
   1422a:	5d                   	pop    %ebp
   1422b:	c3                   	ret    

0001422c <bgetr>:
   1422c:	55                   	push   %ebp
   1422d:	89 e5                	mov    %esp,%ebp
   1422f:	57                   	push   %edi
   14230:	56                   	push   %esi
   14231:	53                   	push   %ebx
   14232:	83 ec 2c             	sub    $0x2c,%esp
   14235:	8b 75 08             	mov    0x8(%ebp),%esi
   14238:	8b 7d 0c             	mov    0xc(%ebp),%edi
   1423b:	89 3c 24             	mov    %edi,(%esp)
   1423e:	e8 2e f9 ff ff       	call   13b71 <bget>
   14243:	89 c3                	mov    %eax,%ebx
   14245:	85 c0                	test   %eax,%eax
   14247:	74 7b                	je     142c4 <bgetr+0x98>
   14249:	85 f6                	test   %esi,%esi
   1424b:	74 7e                	je     142cb <bgetr+0x9f>
   1424d:	b8 f8 ff ff ff       	mov    $0xfffffff8,%eax
   14252:	2b 46 fc             	sub    -0x4(%esi),%eax
   14255:	85 c0                	test   %eax,%eax
   14257:	7f 4a                	jg     142a3 <bgetr+0x77>
   14259:	c7 04 24 4f 00 00 00 	movl   $0x4f,(%esp)
   14260:	e8 56 cf ff ff       	call   111bb <Set_Current_Attr>
   14265:	a1 6c 5e 02 00       	mov    0x25e6c,%eax
   1426a:	89 44 24 18          	mov    %eax,0x18(%esp)
   1426e:	8b 45 04             	mov    0x4(%ebp),%eax
   14271:	89 44 24 14          	mov    %eax,0x14(%esp)
   14275:	c7 44 24 10 32 03 00 	movl   $0x332,0x10(%esp)
   1427c:	00 
   1427d:	c7 44 24 0c 09 fb 01 	movl   $0x1fb09,0xc(%esp)
   14284:	00 
   14285:	c7 44 24 08 08 fc 01 	movl   $0x1fc08,0x8(%esp)
   1428c:	00 
   1428d:	c7 44 24 04 bf fd 01 	movl   $0x1fdbf,0x4(%esp)
   14294:	00 
   14295:	c7 04 24 b4 ee 01 00 	movl   $0x1eeb4,(%esp)
   1429c:	e8 c5 cd ff ff       	call   11066 <Print>
   142a1:	eb fe                	jmp    142a1 <bgetr+0x75>
   142a3:	39 f8                	cmp    %edi,%eax
   142a5:	0f 4f c7             	cmovg  %edi,%eax
   142a8:	89 44 24 08          	mov    %eax,0x8(%esp)
   142ac:	89 74 24 04          	mov    %esi,0x4(%esp)
   142b0:	89 1c 24             	mov    %ebx,(%esp)
   142b3:	e8 3b a7 00 00       	call   1e9f3 <memcpy>
   142b8:	89 34 24             	mov    %esi,(%esp)
   142bb:	e8 c5 fb ff ff       	call   13e85 <brel>
   142c0:	89 d8                	mov    %ebx,%eax
   142c2:	eb 07                	jmp    142cb <bgetr+0x9f>
   142c4:	b8 00 00 00 00       	mov    $0x0,%eax
   142c9:	eb 00                	jmp    142cb <bgetr+0x9f>
   142cb:	83 c4 2c             	add    $0x2c,%esp
   142ce:	5b                   	pop    %ebx
   142cf:	5e                   	pop    %esi
   142d0:	5f                   	pop    %edi
   142d1:	5d                   	pop    %ebp
   142d2:	c3                   	ret    

000142d3 <bpool>:
   142d3:	55                   	push   %ebp
   142d4:	89 e5                	mov    %esp,%ebp
   142d6:	83 ec 28             	sub    $0x28,%esp
   142d9:	8b 45 08             	mov    0x8(%ebp),%eax
   142dc:	8b 55 0c             	mov    0xc(%ebp),%edx
   142df:	83 e2 fc             	and    $0xfffffffc,%edx
   142e2:	83 ea 08             	sub    $0x8,%edx
   142e5:	79 4a                	jns    14331 <bpool+0x5e>
   142e7:	c7 04 24 4f 00 00 00 	movl   $0x4f,(%esp)
   142ee:	e8 c8 ce ff ff       	call   111bb <Set_Current_Attr>
   142f3:	a1 6c 5e 02 00       	mov    0x25e6c,%eax
   142f8:	89 44 24 18          	mov    %eax,0x18(%esp)
   142fc:	8b 45 04             	mov    0x4(%ebp),%eax
   142ff:	89 44 24 14          	mov    %eax,0x14(%esp)
   14303:	c7 44 24 10 fa 03 00 	movl   $0x3fa,0x10(%esp)
   1430a:	00 
   1430b:	c7 44 24 0c 09 fb 01 	movl   $0x1fb09,0xc(%esp)
   14312:	00 
   14313:	c7 44 24 08 44 fd 01 	movl   $0x1fd44,0x8(%esp)
   1431a:	00 
   1431b:	c7 44 24 04 b4 fd 01 	movl   $0x1fdb4,0x4(%esp)
   14322:	00 
   14323:	c7 04 24 b4 ee 01 00 	movl   $0x1eeb4,(%esp)
   1432a:	e8 37 cd ff ff       	call   11066 <Print>
   1432f:	eb fe                	jmp    1432f <bpool+0x5c>
   14331:	c7 00 00 00 00 00    	movl   $0x0,(%eax)
   14337:	8b 0d 1c 40 02 00    	mov    0x2401c,%ecx
   1433d:	81 79 08 10 40 02 00 	cmpl   $0x24010,0x8(%ecx)
   14344:	74 4a                	je     14390 <bpool+0xbd>
   14346:	c7 04 24 4f 00 00 00 	movl   $0x4f,(%esp)
   1434d:	e8 69 ce ff ff       	call   111bb <Set_Current_Attr>
   14352:	a1 6c 5e 02 00       	mov    0x25e6c,%eax
   14357:	89 44 24 18          	mov    %eax,0x18(%esp)
   1435b:	8b 45 04             	mov    0x4(%ebp),%eax
   1435e:	89 44 24 14          	mov    %eax,0x14(%esp)
   14362:	c7 44 24 10 04 04 00 	movl   $0x404,0x10(%esp)
   14369:	00 
   1436a:	c7 44 24 0c 09 fb 01 	movl   $0x1fb09,0xc(%esp)
   14371:	00 
   14372:	c7 44 24 08 a0 fc 01 	movl   $0x1fca0,0x8(%esp)
   14379:	00 
   1437a:	c7 44 24 04 b4 fd 01 	movl   $0x1fdb4,0x4(%esp)
   14381:	00 
   14382:	c7 04 24 b4 ee 01 00 	movl   $0x1eeb4,(%esp)
   14389:	e8 d8 cc ff ff       	call   11066 <Print>
   1438e:	eb fe                	jmp    1438e <bpool+0xbb>
   14390:	8b 0d 18 40 02 00    	mov    0x24018,%ecx
   14396:	81 79 0c 10 40 02 00 	cmpl   $0x24010,0xc(%ecx)
   1439d:	74 4a                	je     143e9 <bpool+0x116>
   1439f:	c7 04 24 4f 00 00 00 	movl   $0x4f,(%esp)
   143a6:	e8 10 ce ff ff       	call   111bb <Set_Current_Attr>
   143ab:	a1 6c 5e 02 00       	mov    0x25e6c,%eax
   143b0:	89 44 24 18          	mov    %eax,0x18(%esp)
   143b4:	8b 45 04             	mov    0x4(%ebp),%eax
   143b7:	89 44 24 14          	mov    %eax,0x14(%esp)
   143bb:	c7 44 24 10 05 04 00 	movl   $0x405,0x10(%esp)
   143c2:	00 
   143c3:	c7 44 24 0c 09 fb 01 	movl   $0x1fb09,0xc(%esp)
   143ca:	00 
   143cb:	c7 44 24 08 cc fc 01 	movl   $0x1fccc,0x8(%esp)
   143d2:	00 
   143d3:	c7 44 24 04 b4 fd 01 	movl   $0x1fdb4,0x4(%esp)
   143da:	00 
   143db:	c7 04 24 b4 ee 01 00 	movl   $0x1eeb4,(%esp)
   143e2:	e8 7f cc ff ff       	call   11066 <Print>
   143e7:	eb fe                	jmp    143e7 <bpool+0x114>
   143e9:	c7 40 08 10 40 02 00 	movl   $0x24010,0x8(%eax)
   143f0:	8b 0d 1c 40 02 00    	mov    0x2401c,%ecx
   143f6:	89 48 0c             	mov    %ecx,0xc(%eax)
   143f9:	a3 1c 40 02 00       	mov    %eax,0x2401c
   143fe:	8b 48 0c             	mov    0xc(%eax),%ecx
   14401:	89 41 08             	mov    %eax,0x8(%ecx)
   14404:	89 50 04             	mov    %edx,0x4(%eax)
   14407:	01 d0                	add    %edx,%eax
   14409:	89 10                	mov    %edx,(%eax)
   1440b:	c7 40 04 00 00 00 80 	movl   $0x80000000,0x4(%eax)
   14412:	c9                   	leave  
   14413:	c3                   	ret    
   14414:	66 90                	xchg   %ax,%ax
   14416:	66 90                	xchg   %ax,%ax
   14418:	66 90                	xchg   %ax,%ax
   1441a:	66 90                	xchg   %ax,%ax
   1441c:	66 90                	xchg   %ax,%ax
   1441e:	66 90                	xchg   %ax,%ax

00014420 <Init_Heap>:
   14420:	55                   	push   %ebp
   14421:	89 e5                	mov    %esp,%ebp
   14423:	83 ec 18             	sub    $0x18,%esp
   14426:	8b 45 0c             	mov    0xc(%ebp),%eax
   14429:	89 44 24 04          	mov    %eax,0x4(%esp)
   1442d:	8b 45 08             	mov    0x8(%ebp),%eax
   14430:	89 04 24             	mov    %eax,(%esp)
   14433:	e8 9b fe ff ff       	call   142d3 <bpool>
   14438:	c9                   	leave  
   14439:	c3                   	ret    

0001443a <Malloc>:
   1443a:	55                   	push   %ebp
   1443b:	89 e5                	mov    %esp,%ebp
   1443d:	53                   	push   %ebx
   1443e:	83 ec 24             	sub    $0x24,%esp
   14441:	8b 5d 08             	mov    0x8(%ebp),%ebx
   14444:	85 db                	test   %ebx,%ebx
   14446:	75 4a                	jne    14492 <Malloc+0x58>
   14448:	c7 04 24 4f 00 00 00 	movl   $0x4f,(%esp)
   1444f:	e8 67 cd ff ff       	call   111bb <Set_Current_Attr>
   14454:	a1 6c 5e 02 00       	mov    0x25e6c,%eax
   14459:	89 44 24 18          	mov    %eax,0x18(%esp)
   1445d:	8b 45 04             	mov    0x4(%ebp),%eax
   14460:	89 44 24 14          	mov    %eax,0x14(%esp)
   14464:	c7 44 24 10 24 00 00 	movl   $0x24,0x10(%esp)
   1446b:	00 
   1446c:	c7 44 24 0c d0 fd 01 	movl   $0x1fdd0,0xc(%esp)
   14473:	00 
   14474:	c7 44 24 08 09 fc 01 	movl   $0x1fc09,0x8(%esp)
   1447b:	00 
   1447c:	c7 44 24 04 07 fe 01 	movl   $0x1fe07,0x4(%esp)
   14483:	00 
   14484:	c7 04 24 b4 ee 01 00 	movl   $0x1eeb4,(%esp)
   1448b:	e8 d6 cb ff ff       	call   11066 <Print>
   14490:	eb fe                	jmp    14490 <Malloc+0x56>
   14492:	e8 a8 bd ff ff       	call   1023f <Interrupts_Enabled>
   14497:	84 c0                	test   %al,%al
   14499:	0f 84 08 01 00 00    	je     145a7 <Malloc+0x16d>
   1449f:	90                   	nop
   144a0:	e8 9a bd ff ff       	call   1023f <Interrupts_Enabled>
   144a5:	84 c0                	test   %al,%al
   144a7:	75 4a                	jne    144f3 <Malloc+0xb9>
   144a9:	c7 04 24 4f 00 00 00 	movl   $0x4f,(%esp)
   144b0:	e8 06 cd ff ff       	call   111bb <Set_Current_Attr>
   144b5:	a1 6c 5e 02 00       	mov    0x25e6c,%eax
   144ba:	89 44 24 18          	mov    %eax,0x18(%esp)
   144be:	8b 45 04             	mov    0x4(%ebp),%eax
   144c1:	89 44 24 14          	mov    %eax,0x14(%esp)
   144c5:	c7 44 24 10 8f 00 00 	movl   $0x8f,0x10(%esp)
   144cc:	00 
   144cd:	c7 44 24 0c 7e f1 01 	movl   $0x1f17e,0xc(%esp)
   144d4:	00 
   144d5:	c7 44 24 08 d3 ef 01 	movl   $0x1efd3,0x8(%esp)
   144dc:	00 
   144dd:	c7 44 24 04 f6 fd 01 	movl   $0x1fdf6,0x4(%esp)
   144e4:	00 
   144e5:	c7 04 24 b4 ee 01 00 	movl   $0x1eeb4,(%esp)
   144ec:	e8 75 cb ff ff       	call   11066 <Print>
   144f1:	eb fe                	jmp    144f1 <Malloc+0xb7>
   144f3:	fa                   	cli    
   144f4:	89 1c 24             	mov    %ebx,(%esp)
   144f7:	e8 75 f6 ff ff       	call   13b71 <bget>
   144fc:	89 c3                	mov    %eax,%ebx
   144fe:	e8 3c bd ff ff       	call   1023f <Interrupts_Enabled>
   14503:	84 c0                	test   %al,%al
   14505:	74 4a                	je     14551 <Malloc+0x117>
   14507:	c7 04 24 4f 00 00 00 	movl   $0x4f,(%esp)
   1450e:	e8 a8 cc ff ff       	call   111bb <Set_Current_Attr>
   14513:	a1 6c 5e 02 00       	mov    0x25e6c,%eax
   14518:	89 44 24 18          	mov    %eax,0x18(%esp)
   1451c:	8b 45 04             	mov    0x4(%ebp),%eax
   1451f:	89 44 24 14          	mov    %eax,0x14(%esp)
   14523:	c7 44 24 10 99 00 00 	movl   $0x99,0x10(%esp)
   1452a:	00 
   1452b:	c7 44 24 0c 7e f1 01 	movl   $0x1f17e,0xc(%esp)
   14532:	00 
   14533:	c7 44 24 08 d2 ef 01 	movl   $0x1efd2,0x8(%esp)
   1453a:	00 
   1453b:	c7 44 24 04 e7 fd 01 	movl   $0x1fde7,0x4(%esp)
   14542:	00 
   14543:	c7 04 24 b4 ee 01 00 	movl   $0x1eeb4,(%esp)
   1454a:	e8 17 cb ff ff       	call   11066 <Print>
   1454f:	eb fe                	jmp    1454f <Malloc+0x115>
   14551:	e8 e9 bc ff ff       	call   1023f <Interrupts_Enabled>
   14556:	84 c0                	test   %al,%al
   14558:	74 4a                	je     145a4 <Malloc+0x16a>
   1455a:	c7 04 24 4f 00 00 00 	movl   $0x4f,(%esp)
   14561:	e8 55 cc ff ff       	call   111bb <Set_Current_Attr>
   14566:	a1 6c 5e 02 00       	mov    0x25e6c,%eax
   1456b:	89 44 24 18          	mov    %eax,0x18(%esp)
   1456f:	8b 45 04             	mov    0x4(%ebp),%eax
   14572:	89 44 24 14          	mov    %eax,0x14(%esp)
   14576:	c7 44 24 10 9c 00 00 	movl   $0x9c,0x10(%esp)
   1457d:	00 
   1457e:	c7 44 24 0c 7e f1 01 	movl   $0x1f17e,0xc(%esp)
   14585:	00 
   14586:	c7 44 24 08 d2 ef 01 	movl   $0x1efd2,0x8(%esp)
   1458d:	00 
   1458e:	c7 44 24 04 e7 fd 01 	movl   $0x1fde7,0x4(%esp)
   14595:	00 
   14596:	c7 04 24 b4 ee 01 00 	movl   $0x1eeb4,(%esp)
   1459d:	e8 c4 ca ff ff       	call   11066 <Print>
   145a2:	eb fe                	jmp    145a2 <Malloc+0x168>
   145a4:	fb                   	sti    
   145a5:	eb 1d                	jmp    145c4 <Malloc+0x18a>
   145a7:	89 1c 24             	mov    %ebx,(%esp)
   145aa:	8d b6 00 00 00 00    	lea    0x0(%esi),%esi
   145b0:	e8 bc f5 ff ff       	call   13b71 <bget>
   145b5:	89 c3                	mov    %eax,%ebx
   145b7:	e8 83 bc ff ff       	call   1023f <Interrupts_Enabled>
   145bc:	84 c0                	test   %al,%al
   145be:	0f 85 43 ff ff ff    	jne    14507 <Malloc+0xcd>
   145c4:	89 d8                	mov    %ebx,%eax
   145c6:	83 c4 24             	add    $0x24,%esp
   145c9:	5b                   	pop    %ebx
   145ca:	5d                   	pop    %ebp
   145cb:	c3                   	ret    

000145cc <Free>:
   145cc:	55                   	push   %ebp
   145cd:	89 e5                	mov    %esp,%ebp
   145cf:	53                   	push   %ebx
   145d0:	83 ec 24             	sub    $0x24,%esp
   145d3:	8b 5d 08             	mov    0x8(%ebp),%ebx
   145d6:	e8 64 bc ff ff       	call   1023f <Interrupts_Enabled>
   145db:	84 c0                	test   %al,%al
   145dd:	0f 84 0c 01 00 00    	je     146ef <Free+0x123>
   145e3:	e8 57 bc ff ff       	call   1023f <Interrupts_Enabled>
   145e8:	84 c0                	test   %al,%al
   145ea:	75 4a                	jne    14636 <Free+0x6a>
   145ec:	c7 04 24 4f 00 00 00 	movl   $0x4f,(%esp)
   145f3:	e8 c3 cb ff ff       	call   111bb <Set_Current_Attr>
   145f8:	a1 6c 5e 02 00       	mov    0x25e6c,%eax
   145fd:	89 44 24 18          	mov    %eax,0x18(%esp)
   14601:	8b 45 04             	mov    0x4(%ebp),%eax
   14604:	89 44 24 14          	mov    %eax,0x14(%esp)
   14608:	c7 44 24 10 8f 00 00 	movl   $0x8f,0x10(%esp)
   1460f:	00 
   14610:	c7 44 24 0c 7e f1 01 	movl   $0x1f17e,0xc(%esp)
   14617:	00 
   14618:	c7 44 24 08 d3 ef 01 	movl   $0x1efd3,0x8(%esp)
   1461f:	00 
   14620:	c7 44 24 04 f6 fd 01 	movl   $0x1fdf6,0x4(%esp)
   14627:	00 
   14628:	c7 04 24 b4 ee 01 00 	movl   $0x1eeb4,(%esp)
   1462f:	e8 32 ca ff ff       	call   11066 <Print>
   14634:	eb fe                	jmp    14634 <Free+0x68>
   14636:	fa                   	cli    
   14637:	89 1c 24             	mov    %ebx,(%esp)
   1463a:	e8 46 f8 ff ff       	call   13e85 <brel>
   1463f:	90                   	nop
   14640:	e8 fa bb ff ff       	call   1023f <Interrupts_Enabled>
   14645:	84 c0                	test   %al,%al
   14647:	74 4a                	je     14693 <Free+0xc7>
   14649:	c7 04 24 4f 00 00 00 	movl   $0x4f,(%esp)
   14650:	e8 66 cb ff ff       	call   111bb <Set_Current_Attr>
   14655:	a1 6c 5e 02 00       	mov    0x25e6c,%eax
   1465a:	89 44 24 18          	mov    %eax,0x18(%esp)
   1465e:	8b 45 04             	mov    0x4(%ebp),%eax
   14661:	89 44 24 14          	mov    %eax,0x14(%esp)
   14665:	c7 44 24 10 99 00 00 	movl   $0x99,0x10(%esp)
   1466c:	00 
   1466d:	c7 44 24 0c 7e f1 01 	movl   $0x1f17e,0xc(%esp)
   14674:	00 
   14675:	c7 44 24 08 d2 ef 01 	movl   $0x1efd2,0x8(%esp)
   1467c:	00 
   1467d:	c7 44 24 04 e7 fd 01 	movl   $0x1fde7,0x4(%esp)
   14684:	00 
   14685:	c7 04 24 b4 ee 01 00 	movl   $0x1eeb4,(%esp)
   1468c:	e8 d5 c9 ff ff       	call   11066 <Print>
   14691:	eb fe                	jmp    14691 <Free+0xc5>
   14693:	e8 a7 bb ff ff       	call   1023f <Interrupts_Enabled>
   14698:	84 c0                	test   %al,%al
   1469a:	8d b6 00 00 00 00    	lea    0x0(%esi),%esi
   146a0:	74 4a                	je     146ec <Free+0x120>
   146a2:	c7 04 24 4f 00 00 00 	movl   $0x4f,(%esp)
   146a9:	e8 0d cb ff ff       	call   111bb <Set_Current_Attr>
   146ae:	a1 6c 5e 02 00       	mov    0x25e6c,%eax
   146b3:	89 44 24 18          	mov    %eax,0x18(%esp)
   146b7:	8b 45 04             	mov    0x4(%ebp),%eax
   146ba:	89 44 24 14          	mov    %eax,0x14(%esp)
   146be:	c7 44 24 10 9c 00 00 	movl   $0x9c,0x10(%esp)
   146c5:	00 
   146c6:	c7 44 24 0c 7e f1 01 	movl   $0x1f17e,0xc(%esp)
   146cd:	00 
   146ce:	c7 44 24 08 d2 ef 01 	movl   $0x1efd2,0x8(%esp)
   146d5:	00 
   146d6:	c7 44 24 04 e7 fd 01 	movl   $0x1fde7,0x4(%esp)
   146dd:	00 
   146de:	c7 04 24 b4 ee 01 00 	movl   $0x1eeb4,(%esp)
   146e5:	e8 7c c9 ff ff       	call   11066 <Print>
   146ea:	eb fe                	jmp    146ea <Free+0x11e>
   146ec:	fb                   	sti    
   146ed:	eb 15                	jmp    14704 <Free+0x138>
   146ef:	89 1c 24             	mov    %ebx,(%esp)
   146f2:	e8 8e f7 ff ff       	call   13e85 <brel>
   146f7:	e8 43 bb ff ff       	call   1023f <Interrupts_Enabled>
   146fc:	84 c0                	test   %al,%al
   146fe:	0f 85 45 ff ff ff    	jne    14649 <Free+0x7d>
   14704:	83 c4 24             	add    $0x24,%esp
   14707:	5b                   	pop    %ebx
   14708:	5d                   	pop    %ebp
   14709:	c3                   	ret    
   1470a:	66 90                	xchg   %ax,%ax
   1470c:	66 90                	xchg   %ax,%ax
   1470e:	66 90                	xchg   %ax,%ax

00014710 <Mutex_Wait>:
   14710:	55                   	push   %ebp
   14711:	89 e5                	mov    %esp,%ebp
   14713:	53                   	push   %ebx
   14714:	83 ec 24             	sub    $0x24,%esp
   14717:	89 c3                	mov    %eax,%ebx
   14719:	83 38 01             	cmpl   $0x1,(%eax)
   1471c:	74 4a                	je     14768 <Mutex_Wait+0x58>
   1471e:	c7 04 24 4f 00 00 00 	movl   $0x4f,(%esp)
   14725:	e8 91 ca ff ff       	call   111bb <Set_Current_Attr>
   1472a:	a1 6c 5e 02 00       	mov    0x25e6c,%eax
   1472f:	89 44 24 18          	mov    %eax,0x18(%esp)
   14733:	8b 45 04             	mov    0x4(%ebp),%eax
   14736:	89 44 24 14          	mov    %eax,0x14(%esp)
   1473a:	c7 44 24 10 25 00 00 	movl   $0x25,0x10(%esp)
   14741:	00 
   14742:	c7 44 24 0c 0e fe 01 	movl   $0x1fe0e,0xc(%esp)
   14749:	00 
   1474a:	c7 44 24 08 24 fe 01 	movl   $0x1fe24,0x8(%esp)
   14751:	00 
   14752:	c7 44 24 04 94 fe 01 	movl   $0x1fe94,0x4(%esp)
   14759:	00 
   1475a:	c7 04 24 b4 ee 01 00 	movl   $0x1eeb4,(%esp)
   14761:	e8 00 c9 ff ff       	call   11066 <Print>
   14766:	eb fe                	jmp    14766 <Mutex_Wait+0x56>
   14768:	a1 68 5e 02 00       	mov    0x25e68,%eax
   1476d:	85 c0                	test   %eax,%eax
   1476f:	75 4a                	jne    147bb <Mutex_Wait+0xab>
   14771:	c7 04 24 4f 00 00 00 	movl   $0x4f,(%esp)
   14778:	e8 3e ca ff ff       	call   111bb <Set_Current_Attr>
   1477d:	a1 6c 5e 02 00       	mov    0x25e6c,%eax
   14782:	89 44 24 18          	mov    %eax,0x18(%esp)
   14786:	8b 45 04             	mov    0x4(%ebp),%eax
   14789:	89 44 24 14          	mov    %eax,0x14(%esp)
   1478d:	c7 44 24 10 26 00 00 	movl   $0x26,0x10(%esp)
   14794:	00 
   14795:	c7 44 24 0c 0e fe 01 	movl   $0x1fe0e,0xc(%esp)
   1479c:	00 
   1479d:	c7 44 24 08 f8 fe 01 	movl   $0x1fef8,0x8(%esp)
   147a4:	00 
   147a5:	c7 44 24 04 94 fe 01 	movl   $0x1fe94,0x4(%esp)
   147ac:	00 
   147ad:	c7 04 24 b4 ee 01 00 	movl   $0x1eeb4,(%esp)
   147b4:	e8 ad c8 ff ff       	call   11066 <Print>
   147b9:	eb fe                	jmp    147b9 <Mutex_Wait+0xa9>
   147bb:	e8 7f ba ff ff       	call   1023f <Interrupts_Enabled>
   147c0:	84 c0                	test   %al,%al
   147c2:	75 4a                	jne    1480e <Mutex_Wait+0xfe>
   147c4:	c7 04 24 4f 00 00 00 	movl   $0x4f,(%esp)
   147cb:	e8 eb c9 ff ff       	call   111bb <Set_Current_Attr>
   147d0:	a1 6c 5e 02 00       	mov    0x25e6c,%eax
   147d5:	89 44 24 18          	mov    %eax,0x18(%esp)
   147d9:	8b 45 04             	mov    0x4(%ebp),%eax
   147dc:	89 44 24 14          	mov    %eax,0x14(%esp)
   147e0:	c7 44 24 10 28 00 00 	movl   $0x28,0x10(%esp)
   147e7:	00 
   147e8:	c7 44 24 0c 0e fe 01 	movl   $0x1fe0e,0xc(%esp)
   147ef:	00 
   147f0:	c7 44 24 08 d3 ef 01 	movl   $0x1efd3,0x8(%esp)
   147f7:	00 
   147f8:	c7 44 24 04 94 fe 01 	movl   $0x1fe94,0x4(%esp)
   147ff:	00 
   14800:	c7 04 24 b4 ee 01 00 	movl   $0x1eeb4,(%esp)
   14807:	e8 5a c8 ff ff       	call   11066 <Print>
   1480c:	eb fe                	jmp    1480c <Mutex_Wait+0xfc>
   1480e:	fa                   	cli    
   1480f:	c7 05 68 5e 02 00 00 	movl   $0x0,0x25e68
   14816:	00 00 00 
   14819:	83 c3 08             	add    $0x8,%ebx
   1481c:	89 1c 24             	mov    %ebx,(%esp)
   1481f:	e8 60 17 00 00       	call   15f84 <Wait>
   14824:	c7 05 68 5e 02 00 01 	movl   $0x1,0x25e68
   1482b:	00 00 00 
   1482e:	e8 0c ba ff ff       	call   1023f <Interrupts_Enabled>
   14833:	84 c0                	test   %al,%al
   14835:	74 4a                	je     14881 <Mutex_Wait+0x171>
   14837:	c7 04 24 4f 00 00 00 	movl   $0x4f,(%esp)
   1483e:	e8 78 c9 ff ff       	call   111bb <Set_Current_Attr>
   14843:	a1 6c 5e 02 00       	mov    0x25e6c,%eax
   14848:	89 44 24 18          	mov    %eax,0x18(%esp)
   1484c:	8b 45 04             	mov    0x4(%ebp),%eax
   1484f:	89 44 24 14          	mov    %eax,0x14(%esp)
   14853:	c7 44 24 10 2c 00 00 	movl   $0x2c,0x10(%esp)
   1485a:	00 
   1485b:	c7 44 24 0c 0e fe 01 	movl   $0x1fe0e,0xc(%esp)
   14862:	00 
   14863:	c7 44 24 08 d2 ef 01 	movl   $0x1efd2,0x8(%esp)
   1486a:	00 
   1486b:	c7 44 24 04 94 fe 01 	movl   $0x1fe94,0x4(%esp)
   14872:	00 
   14873:	c7 04 24 b4 ee 01 00 	movl   $0x1eeb4,(%esp)
   1487a:	e8 e7 c7 ff ff       	call   11066 <Print>
   1487f:	eb fe                	jmp    1487f <Mutex_Wait+0x16f>
   14881:	fb                   	sti    
   14882:	83 c4 24             	add    $0x24,%esp
   14885:	5b                   	pop    %ebx
   14886:	5d                   	pop    %ebp
   14887:	c3                   	ret    

00014888 <Mutex_Init>:
   14888:	55                   	push   %ebp
   14889:	89 e5                	mov    %esp,%ebp
   1488b:	8b 45 08             	mov    0x8(%ebp),%eax
   1488e:	c7 00 00 00 00 00    	movl   $0x0,(%eax)
   14894:	c7 40 04 00 00 00 00 	movl   $0x0,0x4(%eax)
   1489b:	c7 40 0c 00 00 00 00 	movl   $0x0,0xc(%eax)
   148a2:	c7 40 08 00 00 00 00 	movl   $0x0,0x8(%eax)
   148a9:	5d                   	pop    %ebp
   148aa:	c3                   	ret    

000148ab <Mutex_Lock>:
   148ab:	55                   	push   %ebp
   148ac:	89 e5                	mov    %esp,%ebp
   148ae:	53                   	push   %ebx
   148af:	83 ec 24             	sub    $0x24,%esp
   148b2:	8b 5d 08             	mov    0x8(%ebp),%ebx
   148b5:	e8 85 b9 ff ff       	call   1023f <Interrupts_Enabled>
   148ba:	84 c0                	test   %al,%al
   148bc:	75 4a                	jne    14908 <Mutex_Lock+0x5d>
   148be:	c7 04 24 4f 00 00 00 	movl   $0x4f,(%esp)
   148c5:	e8 f1 c8 ff ff       	call   111bb <Set_Current_Attr>
   148ca:	a1 6c 5e 02 00       	mov    0x25e6c,%eax
   148cf:	89 44 24 18          	mov    %eax,0x18(%esp)
   148d3:	8b 45 04             	mov    0x4(%ebp),%eax
   148d6:	89 44 24 14          	mov    %eax,0x14(%esp)
   148da:	c7 44 24 10 74 00 00 	movl   $0x74,0x10(%esp)
   148e1:	00 
   148e2:	c7 44 24 0c 0e fe 01 	movl   $0x1fe0e,0xc(%esp)
   148e9:	00 
   148ea:	c7 44 24 08 d3 ef 01 	movl   $0x1efd3,0x8(%esp)
   148f1:	00 
   148f2:	c7 44 24 04 ae fe 01 	movl   $0x1feae,0x4(%esp)
   148f9:	00 
   148fa:	c7 04 24 b4 ee 01 00 	movl   $0x1eeb4,(%esp)
   14901:	e8 60 c7 ff ff       	call   11066 <Print>
   14906:	eb fe                	jmp    14906 <Mutex_Lock+0x5b>
   14908:	c7 05 68 5e 02 00 01 	movl   $0x1,0x25e68
   1490f:	00 00 00 
   14912:	a1 68 5e 02 00       	mov    0x25e68,%eax
   14917:	85 c0                	test   %eax,%eax
   14919:	75 4a                	jne    14965 <Mutex_Lock+0xba>
   1491b:	c7 04 24 4f 00 00 00 	movl   $0x4f,(%esp)
   14922:	e8 94 c8 ff ff       	call   111bb <Set_Current_Attr>
   14927:	a1 6c 5e 02 00       	mov    0x25e6c,%eax
   1492c:	89 44 24 18          	mov    %eax,0x18(%esp)
   14930:	8b 45 04             	mov    0x4(%ebp),%eax
   14933:	89 44 24 14          	mov    %eax,0x14(%esp)
   14937:	c7 44 24 10 35 00 00 	movl   $0x35,0x10(%esp)
   1493e:	00 
   1493f:	c7 44 24 0c 0e fe 01 	movl   $0x1fe0e,0xc(%esp)
   14946:	00 
   14947:	c7 44 24 08 f8 fe 01 	movl   $0x1fef8,0x8(%esp)
   1494e:	00 
   1494f:	c7 44 24 04 9f fe 01 	movl   $0x1fe9f,0x4(%esp)
   14956:	00 
   14957:	c7 04 24 b4 ee 01 00 	movl   $0x1eeb4,(%esp)
   1495e:	e8 03 c7 ff ff       	call   11066 <Print>
   14963:	eb fe                	jmp    14963 <Mutex_Lock+0xb8>
   14965:	83 3b 01             	cmpl   $0x1,(%ebx)
   14968:	75 60                	jne    149ca <Mutex_Lock+0x11f>
   1496a:	a1 6c 5e 02 00       	mov    0x25e6c,%eax
   1496f:	39 43 04             	cmp    %eax,0x4(%ebx)
   14972:	75 4a                	jne    149be <Mutex_Lock+0x113>
   14974:	c7 04 24 4f 00 00 00 	movl   $0x4f,(%esp)
   1497b:	e8 3b c8 ff ff       	call   111bb <Set_Current_Attr>
   14980:	a1 6c 5e 02 00       	mov    0x25e6c,%eax
   14985:	89 44 24 18          	mov    %eax,0x18(%esp)
   14989:	8b 45 04             	mov    0x4(%ebp),%eax
   1498c:	89 44 24 14          	mov    %eax,0x14(%esp)
   14990:	c7 44 24 10 38 00 00 	movl   $0x38,0x10(%esp)
   14997:	00 
   14998:	c7 44 24 0c 0e fe 01 	movl   $0x1fe0e,0xc(%esp)
   1499f:	00 
   149a0:	c7 44 24 08 41 fe 01 	movl   $0x1fe41,0x8(%esp)
   149a7:	00 
   149a8:	c7 44 24 04 9f fe 01 	movl   $0x1fe9f,0x4(%esp)
   149af:	00 
   149b0:	c7 04 24 b4 ee 01 00 	movl   $0x1eeb4,(%esp)
   149b7:	e8 aa c6 ff ff       	call   11066 <Print>
   149bc:	eb fe                	jmp    149bc <Mutex_Lock+0x111>
   149be:	89 d8                	mov    %ebx,%eax
   149c0:	e8 4b fd ff ff       	call   14710 <Mutex_Wait>
   149c5:	83 3b 01             	cmpl   $0x1,(%ebx)
   149c8:	74 f4                	je     149be <Mutex_Lock+0x113>
   149ca:	c7 03 01 00 00 00    	movl   $0x1,(%ebx)
   149d0:	a1 6c 5e 02 00       	mov    0x25e6c,%eax
   149d5:	89 43 04             	mov    %eax,0x4(%ebx)
   149d8:	c7 05 68 5e 02 00 00 	movl   $0x0,0x25e68
   149df:	00 00 00 
   149e2:	83 c4 24             	add    $0x24,%esp
   149e5:	5b                   	pop    %ebx
   149e6:	5d                   	pop    %ebp
   149e7:	c3                   	ret    

000149e8 <Mutex_Unlock>:
   149e8:	55                   	push   %ebp
   149e9:	89 e5                	mov    %esp,%ebp
   149eb:	53                   	push   %ebx
   149ec:	83 ec 24             	sub    $0x24,%esp
   149ef:	8b 5d 08             	mov    0x8(%ebp),%ebx
   149f2:	e8 48 b8 ff ff       	call   1023f <Interrupts_Enabled>
   149f7:	84 c0                	test   %al,%al
   149f9:	75 4a                	jne    14a45 <Mutex_Unlock+0x5d>
   149fb:	c7 04 24 4f 00 00 00 	movl   $0x4f,(%esp)
   14a02:	e8 b4 c7 ff ff       	call   111bb <Set_Current_Attr>
   14a07:	a1 6c 5e 02 00       	mov    0x25e6c,%eax
   14a0c:	89 44 24 18          	mov    %eax,0x18(%esp)
   14a10:	8b 45 04             	mov    0x4(%ebp),%eax
   14a13:	89 44 24 14          	mov    %eax,0x14(%esp)
   14a17:	c7 44 24 10 80 00 00 	movl   $0x80,0x10(%esp)
   14a1e:	00 
   14a1f:	c7 44 24 0c 0e fe 01 	movl   $0x1fe0e,0xc(%esp)
   14a26:	00 
   14a27:	c7 44 24 08 d3 ef 01 	movl   $0x1efd3,0x8(%esp)
   14a2e:	00 
   14a2f:	c7 44 24 04 87 fe 01 	movl   $0x1fe87,0x4(%esp)
   14a36:	00 
   14a37:	c7 04 24 b4 ee 01 00 	movl   $0x1eeb4,(%esp)
   14a3e:	e8 23 c6 ff ff       	call   11066 <Print>
   14a43:	eb fe                	jmp    14a43 <Mutex_Unlock+0x5b>
   14a45:	c7 05 68 5e 02 00 01 	movl   $0x1,0x25e68
   14a4c:	00 00 00 
   14a4f:	a1 68 5e 02 00       	mov    0x25e68,%eax
   14a54:	85 c0                	test   %eax,%eax
   14a56:	75 4a                	jne    14aa2 <Mutex_Unlock+0xba>
   14a58:	c7 04 24 4f 00 00 00 	movl   $0x4f,(%esp)
   14a5f:	e8 57 c7 ff ff       	call   111bb <Set_Current_Attr>
   14a64:	a1 6c 5e 02 00       	mov    0x25e6c,%eax
   14a69:	89 44 24 18          	mov    %eax,0x18(%esp)
   14a6d:	8b 45 04             	mov    0x4(%ebp),%eax
   14a70:	89 44 24 14          	mov    %eax,0x14(%esp)
   14a74:	c7 44 24 10 4a 00 00 	movl   $0x4a,0x10(%esp)
   14a7b:	00 
   14a7c:	c7 44 24 0c 0e fe 01 	movl   $0x1fe0e,0xc(%esp)
   14a83:	00 
   14a84:	c7 44 24 08 f8 fe 01 	movl   $0x1fef8,0x8(%esp)
   14a8b:	00 
   14a8c:	c7 44 24 04 76 fe 01 	movl   $0x1fe76,0x4(%esp)
   14a93:	00 
   14a94:	c7 04 24 b4 ee 01 00 	movl   $0x1eeb4,(%esp)
   14a9b:	e8 c6 c5 ff ff       	call   11066 <Print>
   14aa0:	eb fe                	jmp    14aa0 <Mutex_Unlock+0xb8>
   14aa2:	83 3b 01             	cmpl   $0x1,(%ebx)
   14aa5:	75 0a                	jne    14ab1 <Mutex_Unlock+0xc9>
   14aa7:	a1 6c 5e 02 00       	mov    0x25e6c,%eax
   14aac:	39 43 04             	cmp    %eax,0x4(%ebx)
   14aaf:	74 4a                	je     14afb <Mutex_Unlock+0x113>
   14ab1:	c7 04 24 4f 00 00 00 	movl   $0x4f,(%esp)
   14ab8:	e8 fe c6 ff ff       	call   111bb <Set_Current_Attr>
   14abd:	a1 6c 5e 02 00       	mov    0x25e6c,%eax
   14ac2:	89 44 24 18          	mov    %eax,0x18(%esp)
   14ac6:	8b 45 04             	mov    0x4(%ebp),%eax
   14ac9:	89 44 24 14          	mov    %eax,0x14(%esp)
   14acd:	c7 44 24 10 4d 00 00 	movl   $0x4d,0x10(%esp)
   14ad4:	00 
   14ad5:	c7 44 24 0c 0e fe 01 	movl   $0x1fe0e,0xc(%esp)
   14adc:	00 
   14add:	c7 44 24 08 42 fe 01 	movl   $0x1fe42,0x8(%esp)
   14ae4:	00 
   14ae5:	c7 44 24 04 76 fe 01 	movl   $0x1fe76,0x4(%esp)
   14aec:	00 
   14aed:	c7 04 24 b4 ee 01 00 	movl   $0x1eeb4,(%esp)
   14af4:	e8 6d c5 ff ff       	call   11066 <Print>
   14af9:	eb fe                	jmp    14af9 <Mutex_Unlock+0x111>
   14afb:	c7 03 00 00 00 00    	movl   $0x0,(%ebx)
   14b01:	c7 43 04 00 00 00 00 	movl   $0x0,0x4(%ebx)
   14b08:	83 7b 08 00          	cmpl   $0x0,0x8(%ebx)
   14b0c:	0f 84 b3 00 00 00    	je     14bc5 <Mutex_Unlock+0x1dd>
   14b12:	e8 28 b7 ff ff       	call   1023f <Interrupts_Enabled>
   14b17:	84 c0                	test   %al,%al
   14b19:	75 4a                	jne    14b65 <Mutex_Unlock+0x17d>
   14b1b:	c7 04 24 4f 00 00 00 	movl   $0x4f,(%esp)
   14b22:	e8 94 c6 ff ff       	call   111bb <Set_Current_Attr>
   14b27:	a1 6c 5e 02 00       	mov    0x25e6c,%eax
   14b2c:	89 44 24 18          	mov    %eax,0x18(%esp)
   14b30:	8b 45 04             	mov    0x4(%ebp),%eax
   14b33:	89 44 24 14          	mov    %eax,0x14(%esp)
   14b37:	c7 44 24 10 5b 00 00 	movl   $0x5b,0x10(%esp)
   14b3e:	00 
   14b3f:	c7 44 24 0c 0e fe 01 	movl   $0x1fe0e,0xc(%esp)
   14b46:	00 
   14b47:	c7 44 24 08 d3 ef 01 	movl   $0x1efd3,0x8(%esp)
   14b4e:	00 
   14b4f:	c7 44 24 04 76 fe 01 	movl   $0x1fe76,0x4(%esp)
   14b56:	00 
   14b57:	c7 04 24 b4 ee 01 00 	movl   $0x1eeb4,(%esp)
   14b5e:	e8 03 c5 ff ff       	call   11066 <Print>
   14b63:	eb fe                	jmp    14b63 <Mutex_Unlock+0x17b>
   14b65:	fa                   	cli    
   14b66:	83 c3 08             	add    $0x8,%ebx
   14b69:	89 1c 24             	mov    %ebx,(%esp)
   14b6c:	e8 2d 1e 00 00       	call   1699e <Wake_Up_One>
   14b71:	e8 c9 b6 ff ff       	call   1023f <Interrupts_Enabled>
   14b76:	84 c0                	test   %al,%al
   14b78:	74 4a                	je     14bc4 <Mutex_Unlock+0x1dc>
   14b7a:	c7 04 24 4f 00 00 00 	movl   $0x4f,(%esp)
   14b81:	e8 35 c6 ff ff       	call   111bb <Set_Current_Attr>
   14b86:	a1 6c 5e 02 00       	mov    0x25e6c,%eax
   14b8b:	89 44 24 18          	mov    %eax,0x18(%esp)
   14b8f:	8b 45 04             	mov    0x4(%ebp),%eax
   14b92:	89 44 24 14          	mov    %eax,0x14(%esp)
   14b96:	c7 44 24 10 5d 00 00 	movl   $0x5d,0x10(%esp)
   14b9d:	00 
   14b9e:	c7 44 24 0c 0e fe 01 	movl   $0x1fe0e,0xc(%esp)
   14ba5:	00 
   14ba6:	c7 44 24 08 d2 ef 01 	movl   $0x1efd2,0x8(%esp)
   14bad:	00 
   14bae:	c7 44 24 04 76 fe 01 	movl   $0x1fe76,0x4(%esp)
   14bb5:	00 
   14bb6:	c7 04 24 b4 ee 01 00 	movl   $0x1eeb4,(%esp)
   14bbd:	e8 a4 c4 ff ff       	call   11066 <Print>
   14bc2:	eb fe                	jmp    14bc2 <Mutex_Unlock+0x1da>
   14bc4:	fb                   	sti    
   14bc5:	c7 05 68 5e 02 00 00 	movl   $0x0,0x25e68
   14bcc:	00 00 00 
   14bcf:	83 c4 24             	add    $0x24,%esp
   14bd2:	5b                   	pop    %ebx
   14bd3:	5d                   	pop    %ebp
   14bd4:	c3                   	ret    

00014bd5 <Cond_Init>:
   14bd5:	55                   	push   %ebp
   14bd6:	89 e5                	mov    %esp,%ebp
   14bd8:	8b 45 08             	mov    0x8(%ebp),%eax
   14bdb:	c7 40 04 00 00 00 00 	movl   $0x0,0x4(%eax)
   14be2:	c7 00 00 00 00 00    	movl   $0x0,(%eax)
   14be8:	5d                   	pop    %ebp
   14be9:	c3                   	ret    

00014bea <Cond_Wait>:
   14bea:	55                   	push   %ebp
   14beb:	89 e5                	mov    %esp,%ebp
   14bed:	53                   	push   %ebx
   14bee:	83 ec 24             	sub    $0x24,%esp
   14bf1:	8b 5d 0c             	mov    0xc(%ebp),%ebx
   14bf4:	e8 46 b6 ff ff       	call   1023f <Interrupts_Enabled>
   14bf9:	84 c0                	test   %al,%al
   14bfb:	75 4a                	jne    14c47 <Cond_Wait+0x5d>
   14bfd:	c7 04 24 4f 00 00 00 	movl   $0x4f,(%esp)
   14c04:	e8 b2 c5 ff ff       	call   111bb <Set_Current_Attr>
   14c09:	a1 6c 5e 02 00       	mov    0x25e6c,%eax
   14c0e:	89 44 24 18          	mov    %eax,0x18(%esp)
   14c12:	8b 45 04             	mov    0x4(%ebp),%eax
   14c15:	89 44 24 14          	mov    %eax,0x14(%esp)
   14c19:	c7 44 24 10 94 00 00 	movl   $0x94,0x10(%esp)
   14c20:	00 
   14c21:	c7 44 24 0c 0e fe 01 	movl   $0x1fe0e,0xc(%esp)
   14c28:	00 
   14c29:	c7 44 24 08 d3 ef 01 	movl   $0x1efd3,0x8(%esp)
   14c30:	00 
   14c31:	c7 44 24 04 6c fe 01 	movl   $0x1fe6c,0x4(%esp)
   14c38:	00 
   14c39:	c7 04 24 b4 ee 01 00 	movl   $0x1eeb4,(%esp)
   14c40:	e8 21 c4 ff ff       	call   11066 <Print>
   14c45:	eb fe                	jmp    14c45 <Cond_Wait+0x5b>
   14c47:	83 3b 01             	cmpl   $0x1,(%ebx)
   14c4a:	75 0a                	jne    14c56 <Cond_Wait+0x6c>
   14c4c:	a1 6c 5e 02 00       	mov    0x25e6c,%eax
   14c51:	39 43 04             	cmp    %eax,0x4(%ebx)
   14c54:	74 4a                	je     14ca0 <Cond_Wait+0xb6>
   14c56:	c7 04 24 4f 00 00 00 	movl   $0x4f,(%esp)
   14c5d:	e8 59 c5 ff ff       	call   111bb <Set_Current_Attr>
   14c62:	a1 6c 5e 02 00       	mov    0x25e6c,%eax
   14c67:	89 44 24 18          	mov    %eax,0x18(%esp)
   14c6b:	8b 45 04             	mov    0x4(%ebp),%eax
   14c6e:	89 44 24 14          	mov    %eax,0x14(%esp)
   14c72:	c7 44 24 10 97 00 00 	movl   $0x97,0x10(%esp)
   14c79:	00 
   14c7a:	c7 44 24 0c 0e fe 01 	movl   $0x1fe0e,0xc(%esp)
   14c81:	00 
   14c82:	c7 44 24 08 42 fe 01 	movl   $0x1fe42,0x8(%esp)
   14c89:	00 
   14c8a:	c7 44 24 04 6c fe 01 	movl   $0x1fe6c,0x4(%esp)
   14c91:	00 
   14c92:	c7 04 24 b4 ee 01 00 	movl   $0x1eeb4,(%esp)
   14c99:	e8 c8 c3 ff ff       	call   11066 <Print>
   14c9e:	eb fe                	jmp    14c9e <Cond_Wait+0xb4>
   14ca0:	c7 05 68 5e 02 00 01 	movl   $0x1,0x25e68
   14ca7:	00 00 00 
   14caa:	a1 68 5e 02 00       	mov    0x25e68,%eax
   14caf:	85 c0                	test   %eax,%eax
   14cb1:	75 4a                	jne    14cfd <Cond_Wait+0x113>
   14cb3:	c7 04 24 4f 00 00 00 	movl   $0x4f,(%esp)
   14cba:	e8 fc c4 ff ff       	call   111bb <Set_Current_Attr>
   14cbf:	a1 6c 5e 02 00       	mov    0x25e6c,%eax
   14cc4:	89 44 24 18          	mov    %eax,0x18(%esp)
   14cc8:	8b 45 04             	mov    0x4(%ebp),%eax
   14ccb:	89 44 24 14          	mov    %eax,0x14(%esp)
   14ccf:	c7 44 24 10 4a 00 00 	movl   $0x4a,0x10(%esp)
   14cd6:	00 
   14cd7:	c7 44 24 0c 0e fe 01 	movl   $0x1fe0e,0xc(%esp)
   14cde:	00 
   14cdf:	c7 44 24 08 f8 fe 01 	movl   $0x1fef8,0x8(%esp)
   14ce6:	00 
   14ce7:	c7 44 24 04 76 fe 01 	movl   $0x1fe76,0x4(%esp)
   14cee:	00 
   14cef:	c7 04 24 b4 ee 01 00 	movl   $0x1eeb4,(%esp)
   14cf6:	e8 6b c3 ff ff       	call   11066 <Print>
   14cfb:	eb fe                	jmp    14cfb <Cond_Wait+0x111>
   14cfd:	83 3b 01             	cmpl   $0x1,(%ebx)
   14d00:	74 4a                	je     14d4c <Cond_Wait+0x162>
   14d02:	c7 04 24 4f 00 00 00 	movl   $0x4f,(%esp)
   14d09:	e8 ad c4 ff ff       	call   111bb <Set_Current_Attr>
   14d0e:	a1 6c 5e 02 00       	mov    0x25e6c,%eax
   14d13:	89 44 24 18          	mov    %eax,0x18(%esp)
   14d17:	8b 45 04             	mov    0x4(%ebp),%eax
   14d1a:	89 44 24 14          	mov    %eax,0x14(%esp)
   14d1e:	c7 44 24 10 4d 00 00 	movl   $0x4d,0x10(%esp)
   14d25:	00 
   14d26:	c7 44 24 0c 0e fe 01 	movl   $0x1fe0e,0xc(%esp)
   14d2d:	00 
   14d2e:	c7 44 24 08 42 fe 01 	movl   $0x1fe42,0x8(%esp)
   14d35:	00 
   14d36:	c7 44 24 04 76 fe 01 	movl   $0x1fe76,0x4(%esp)
   14d3d:	00 
   14d3e:	c7 04 24 b4 ee 01 00 	movl   $0x1eeb4,(%esp)
   14d45:	e8 1c c3 ff ff       	call   11066 <Print>
   14d4a:	eb fe                	jmp    14d4a <Cond_Wait+0x160>
   14d4c:	c7 03 00 00 00 00    	movl   $0x0,(%ebx)
   14d52:	c7 43 04 00 00 00 00 	movl   $0x0,0x4(%ebx)
   14d59:	83 7b 08 00          	cmpl   $0x0,0x8(%ebx)
   14d5d:	0f 84 b3 00 00 00    	je     14e16 <Cond_Wait+0x22c>
   14d63:	e8 d7 b4 ff ff       	call   1023f <Interrupts_Enabled>
   14d68:	84 c0                	test   %al,%al
   14d6a:	75 4a                	jne    14db6 <Cond_Wait+0x1cc>
   14d6c:	c7 04 24 4f 00 00 00 	movl   $0x4f,(%esp)
   14d73:	e8 43 c4 ff ff       	call   111bb <Set_Current_Attr>
   14d78:	a1 6c 5e 02 00       	mov    0x25e6c,%eax
   14d7d:	89 44 24 18          	mov    %eax,0x18(%esp)
   14d81:	8b 45 04             	mov    0x4(%ebp),%eax
   14d84:	89 44 24 14          	mov    %eax,0x14(%esp)
   14d88:	c7 44 24 10 5b 00 00 	movl   $0x5b,0x10(%esp)
   14d8f:	00 
   14d90:	c7 44 24 0c 0e fe 01 	movl   $0x1fe0e,0xc(%esp)
   14d97:	00 
   14d98:	c7 44 24 08 d3 ef 01 	movl   $0x1efd3,0x8(%esp)
   14d9f:	00 
   14da0:	c7 44 24 04 76 fe 01 	movl   $0x1fe76,0x4(%esp)
   14da7:	00 
   14da8:	c7 04 24 b4 ee 01 00 	movl   $0x1eeb4,(%esp)
   14daf:	e8 b2 c2 ff ff       	call   11066 <Print>
   14db4:	eb fe                	jmp    14db4 <Cond_Wait+0x1ca>
   14db6:	fa                   	cli    
   14db7:	8d 43 08             	lea    0x8(%ebx),%eax
   14dba:	89 04 24             	mov    %eax,(%esp)
   14dbd:	e8 dc 1b 00 00       	call   1699e <Wake_Up_One>
   14dc2:	e8 78 b4 ff ff       	call   1023f <Interrupts_Enabled>
   14dc7:	84 c0                	test   %al,%al
   14dc9:	74 4a                	je     14e15 <Cond_Wait+0x22b>
   14dcb:	c7 04 24 4f 00 00 00 	movl   $0x4f,(%esp)
   14dd2:	e8 e4 c3 ff ff       	call   111bb <Set_Current_Attr>
   14dd7:	a1 6c 5e 02 00       	mov    0x25e6c,%eax
   14ddc:	89 44 24 18          	mov    %eax,0x18(%esp)
   14de0:	8b 45 04             	mov    0x4(%ebp),%eax
   14de3:	89 44 24 14          	mov    %eax,0x14(%esp)
   14de7:	c7 44 24 10 5d 00 00 	movl   $0x5d,0x10(%esp)
   14dee:	00 
   14def:	c7 44 24 0c 0e fe 01 	movl   $0x1fe0e,0xc(%esp)
   14df6:	00 
   14df7:	c7 44 24 08 d2 ef 01 	movl   $0x1efd2,0x8(%esp)
   14dfe:	00 
   14dff:	c7 44 24 04 76 fe 01 	movl   $0x1fe76,0x4(%esp)
   14e06:	00 
   14e07:	c7 04 24 b4 ee 01 00 	movl   $0x1eeb4,(%esp)
   14e0e:	e8 53 c2 ff ff       	call   11066 <Print>
   14e13:	eb fe                	jmp    14e13 <Cond_Wait+0x229>
   14e15:	fb                   	sti    
   14e16:	e8 24 b4 ff ff       	call   1023f <Interrupts_Enabled>
   14e1b:	84 c0                	test   %al,%al
   14e1d:	8d 76 00             	lea    0x0(%esi),%esi
   14e20:	75 4a                	jne    14e6c <Cond_Wait+0x282>
   14e22:	c7 04 24 4f 00 00 00 	movl   $0x4f,(%esp)
   14e29:	e8 8d c3 ff ff       	call   111bb <Set_Current_Attr>
   14e2e:	a1 6c 5e 02 00       	mov    0x25e6c,%eax
   14e33:	89 44 24 18          	mov    %eax,0x18(%esp)
   14e37:	8b 45 04             	mov    0x4(%ebp),%eax
   14e3a:	89 44 24 14          	mov    %eax,0x14(%esp)
   14e3e:	c7 44 24 10 ab 00 00 	movl   $0xab,0x10(%esp)
   14e45:	00 
   14e46:	c7 44 24 0c 0e fe 01 	movl   $0x1fe0e,0xc(%esp)
   14e4d:	00 
   14e4e:	c7 44 24 08 d3 ef 01 	movl   $0x1efd3,0x8(%esp)
   14e55:	00 
   14e56:	c7 44 24 04 6c fe 01 	movl   $0x1fe6c,0x4(%esp)
   14e5d:	00 
   14e5e:	c7 04 24 b4 ee 01 00 	movl   $0x1eeb4,(%esp)
   14e65:	e8 fc c1 ff ff       	call   11066 <Print>
   14e6a:	eb fe                	jmp    14e6a <Cond_Wait+0x280>
   14e6c:	fa                   	cli    
   14e6d:	c7 05 68 5e 02 00 00 	movl   $0x0,0x25e68
   14e74:	00 00 00 
   14e77:	8b 45 08             	mov    0x8(%ebp),%eax
   14e7a:	89 04 24             	mov    %eax,(%esp)
   14e7d:	e8 02 11 00 00       	call   15f84 <Wait>
   14e82:	c7 05 68 5e 02 00 01 	movl   $0x1,0x25e68
   14e89:	00 00 00 
   14e8c:	e8 ae b3 ff ff       	call   1023f <Interrupts_Enabled>
   14e91:	84 c0                	test   %al,%al
   14e93:	74 4a                	je     14edf <Cond_Wait+0x2f5>
   14e95:	c7 04 24 4f 00 00 00 	movl   $0x4f,(%esp)
   14e9c:	e8 1a c3 ff ff       	call   111bb <Set_Current_Attr>
   14ea1:	a1 6c 5e 02 00       	mov    0x25e6c,%eax
   14ea6:	89 44 24 18          	mov    %eax,0x18(%esp)
   14eaa:	8b 45 04             	mov    0x4(%ebp),%eax
   14ead:	89 44 24 14          	mov    %eax,0x14(%esp)
   14eb1:	c7 44 24 10 af 00 00 	movl   $0xaf,0x10(%esp)
   14eb8:	00 
   14eb9:	c7 44 24 0c 0e fe 01 	movl   $0x1fe0e,0xc(%esp)
   14ec0:	00 
   14ec1:	c7 44 24 08 d2 ef 01 	movl   $0x1efd2,0x8(%esp)
   14ec8:	00 
   14ec9:	c7 44 24 04 6c fe 01 	movl   $0x1fe6c,0x4(%esp)
   14ed0:	00 
   14ed1:	c7 04 24 b4 ee 01 00 	movl   $0x1eeb4,(%esp)
   14ed8:	e8 89 c1 ff ff       	call   11066 <Print>
   14edd:	eb fe                	jmp    14edd <Cond_Wait+0x2f3>
   14edf:	fb                   	sti    
   14ee0:	a1 68 5e 02 00       	mov    0x25e68,%eax
   14ee5:	85 c0                	test   %eax,%eax
   14ee7:	75 4a                	jne    14f33 <Cond_Wait+0x349>
   14ee9:	c7 04 24 4f 00 00 00 	movl   $0x4f,(%esp)
   14ef0:	e8 c6 c2 ff ff       	call   111bb <Set_Current_Attr>
   14ef5:	a1 6c 5e 02 00       	mov    0x25e6c,%eax
   14efa:	89 44 24 18          	mov    %eax,0x18(%esp)
   14efe:	8b 45 04             	mov    0x4(%ebp),%eax
   14f01:	89 44 24 14          	mov    %eax,0x14(%esp)
   14f05:	c7 44 24 10 35 00 00 	movl   $0x35,0x10(%esp)
   14f0c:	00 
   14f0d:	c7 44 24 0c 0e fe 01 	movl   $0x1fe0e,0xc(%esp)
   14f14:	00 
   14f15:	c7 44 24 08 f8 fe 01 	movl   $0x1fef8,0x8(%esp)
   14f1c:	00 
   14f1d:	c7 44 24 04 9f fe 01 	movl   $0x1fe9f,0x4(%esp)
   14f24:	00 
   14f25:	c7 04 24 b4 ee 01 00 	movl   $0x1eeb4,(%esp)
   14f2c:	e8 35 c1 ff ff       	call   11066 <Print>
   14f31:	eb fe                	jmp    14f31 <Cond_Wait+0x347>
   14f33:	83 3b 01             	cmpl   $0x1,(%ebx)
   14f36:	75 60                	jne    14f98 <Cond_Wait+0x3ae>
   14f38:	a1 6c 5e 02 00       	mov    0x25e6c,%eax
   14f3d:	39 43 04             	cmp    %eax,0x4(%ebx)
   14f40:	75 4a                	jne    14f8c <Cond_Wait+0x3a2>
   14f42:	c7 04 24 4f 00 00 00 	movl   $0x4f,(%esp)
   14f49:	e8 6d c2 ff ff       	call   111bb <Set_Current_Attr>
   14f4e:	a1 6c 5e 02 00       	mov    0x25e6c,%eax
   14f53:	89 44 24 18          	mov    %eax,0x18(%esp)
   14f57:	8b 45 04             	mov    0x4(%ebp),%eax
   14f5a:	89 44 24 14          	mov    %eax,0x14(%esp)
   14f5e:	c7 44 24 10 38 00 00 	movl   $0x38,0x10(%esp)
   14f65:	00 
   14f66:	c7 44 24 0c 0e fe 01 	movl   $0x1fe0e,0xc(%esp)
   14f6d:	00 
   14f6e:	c7 44 24 08 41 fe 01 	movl   $0x1fe41,0x8(%esp)
   14f75:	00 
   14f76:	c7 44 24 04 9f fe 01 	movl   $0x1fe9f,0x4(%esp)
   14f7d:	00 
   14f7e:	c7 04 24 b4 ee 01 00 	movl   $0x1eeb4,(%esp)
   14f85:	e8 dc c0 ff ff       	call   11066 <Print>
   14f8a:	eb fe                	jmp    14f8a <Cond_Wait+0x3a0>
   14f8c:	89 d8                	mov    %ebx,%eax
   14f8e:	e8 7d f7 ff ff       	call   14710 <Mutex_Wait>
   14f93:	83 3b 01             	cmpl   $0x1,(%ebx)
   14f96:	74 f4                	je     14f8c <Cond_Wait+0x3a2>
   14f98:	c7 03 01 00 00 00    	movl   $0x1,(%ebx)
   14f9e:	a1 6c 5e 02 00       	mov    0x25e6c,%eax
   14fa3:	89 43 04             	mov    %eax,0x4(%ebx)
   14fa6:	c7 05 68 5e 02 00 00 	movl   $0x0,0x25e68
   14fad:	00 00 00 
   14fb0:	83 c4 24             	add    $0x24,%esp
   14fb3:	5b                   	pop    %ebx
   14fb4:	5d                   	pop    %ebp
   14fb5:	c3                   	ret    

00014fb6 <Cond_Signal>:
   14fb6:	55                   	push   %ebp
   14fb7:	89 e5                	mov    %esp,%ebp
   14fb9:	83 ec 28             	sub    $0x28,%esp
   14fbc:	e8 7e b2 ff ff       	call   1023f <Interrupts_Enabled>
   14fc1:	84 c0                	test   %al,%al
   14fc3:	75 4a                	jne    1500f <Cond_Signal+0x59>
   14fc5:	c7 04 24 4f 00 00 00 	movl   $0x4f,(%esp)
   14fcc:	e8 ea c1 ff ff       	call   111bb <Set_Current_Attr>
   14fd1:	a1 6c 5e 02 00       	mov    0x25e6c,%eax
   14fd6:	89 44 24 18          	mov    %eax,0x18(%esp)
   14fda:	8b 45 04             	mov    0x4(%ebp),%eax
   14fdd:	89 44 24 14          	mov    %eax,0x14(%esp)
   14fe1:	c7 44 24 10 be 00 00 	movl   $0xbe,0x10(%esp)
   14fe8:	00 
   14fe9:	c7 44 24 0c 0e fe 01 	movl   $0x1fe0e,0xc(%esp)
   14ff0:	00 
   14ff1:	c7 44 24 08 d3 ef 01 	movl   $0x1efd3,0x8(%esp)
   14ff8:	00 
   14ff9:	c7 44 24 04 60 fe 01 	movl   $0x1fe60,0x4(%esp)
   15000:	00 
   15001:	c7 04 24 b4 ee 01 00 	movl   $0x1eeb4,(%esp)
   15008:	e8 59 c0 ff ff       	call   11066 <Print>
   1500d:	eb fe                	jmp    1500d <Cond_Signal+0x57>
   1500f:	e8 2b b2 ff ff       	call   1023f <Interrupts_Enabled>
   15014:	84 c0                	test   %al,%al
   15016:	75 4a                	jne    15062 <Cond_Signal+0xac>
   15018:	c7 04 24 4f 00 00 00 	movl   $0x4f,(%esp)
   1501f:	e8 97 c1 ff ff       	call   111bb <Set_Current_Attr>
   15024:	a1 6c 5e 02 00       	mov    0x25e6c,%eax
   15029:	89 44 24 18          	mov    %eax,0x18(%esp)
   1502d:	8b 45 04             	mov    0x4(%ebp),%eax
   15030:	89 44 24 14          	mov    %eax,0x14(%esp)
   15034:	c7 44 24 10 bf 00 00 	movl   $0xbf,0x10(%esp)
   1503b:	00 
   1503c:	c7 44 24 0c 0e fe 01 	movl   $0x1fe0e,0xc(%esp)
   15043:	00 
   15044:	c7 44 24 08 d3 ef 01 	movl   $0x1efd3,0x8(%esp)
   1504b:	00 
   1504c:	c7 44 24 04 60 fe 01 	movl   $0x1fe60,0x4(%esp)
   15053:	00 
   15054:	c7 04 24 b4 ee 01 00 	movl   $0x1eeb4,(%esp)
   1505b:	e8 06 c0 ff ff       	call   11066 <Print>
   15060:	eb fe                	jmp    15060 <Cond_Signal+0xaa>
   15062:	fa                   	cli    
   15063:	8b 45 08             	mov    0x8(%ebp),%eax
   15066:	89 04 24             	mov    %eax,(%esp)
   15069:	e8 30 19 00 00       	call   1699e <Wake_Up_One>
   1506e:	e8 cc b1 ff ff       	call   1023f <Interrupts_Enabled>
   15073:	84 c0                	test   %al,%al
   15075:	74 4a                	je     150c1 <Cond_Signal+0x10b>
   15077:	c7 04 24 4f 00 00 00 	movl   $0x4f,(%esp)
   1507e:	e8 38 c1 ff ff       	call   111bb <Set_Current_Attr>
   15083:	a1 6c 5e 02 00       	mov    0x25e6c,%eax
   15088:	89 44 24 18          	mov    %eax,0x18(%esp)
   1508c:	8b 45 04             	mov    0x4(%ebp),%eax
   1508f:	89 44 24 14          	mov    %eax,0x14(%esp)
   15093:	c7 44 24 10 c1 00 00 	movl   $0xc1,0x10(%esp)
   1509a:	00 
   1509b:	c7 44 24 0c 0e fe 01 	movl   $0x1fe0e,0xc(%esp)
   150a2:	00 
   150a3:	c7 44 24 08 d2 ef 01 	movl   $0x1efd2,0x8(%esp)
   150aa:	00 
   150ab:	c7 44 24 04 60 fe 01 	movl   $0x1fe60,0x4(%esp)
   150b2:	00 
   150b3:	c7 04 24 b4 ee 01 00 	movl   $0x1eeb4,(%esp)
   150ba:	e8 a7 bf ff ff       	call   11066 <Print>
   150bf:	eb fe                	jmp    150bf <Cond_Signal+0x109>
   150c1:	fb                   	sti    
   150c2:	c9                   	leave  
   150c3:	c3                   	ret    

000150c4 <Cond_Broadcast>:
   150c4:	55                   	push   %ebp
   150c5:	89 e5                	mov    %esp,%ebp
   150c7:	83 ec 28             	sub    $0x28,%esp
   150ca:	e8 70 b1 ff ff       	call   1023f <Interrupts_Enabled>
   150cf:	84 c0                	test   %al,%al
   150d1:	75 4a                	jne    1511d <Cond_Broadcast+0x59>
   150d3:	c7 04 24 4f 00 00 00 	movl   $0x4f,(%esp)
   150da:	e8 dc c0 ff ff       	call   111bb <Set_Current_Attr>
   150df:	a1 6c 5e 02 00       	mov    0x25e6c,%eax
   150e4:	89 44 24 18          	mov    %eax,0x18(%esp)
   150e8:	8b 45 04             	mov    0x4(%ebp),%eax
   150eb:	89 44 24 14          	mov    %eax,0x14(%esp)
   150ef:	c7 44 24 10 ca 00 00 	movl   $0xca,0x10(%esp)
   150f6:	00 
   150f7:	c7 44 24 0c 0e fe 01 	movl   $0x1fe0e,0xc(%esp)
   150fe:	00 
   150ff:	c7 44 24 08 d3 ef 01 	movl   $0x1efd3,0x8(%esp)
   15106:	00 
   15107:	c7 44 24 04 51 fe 01 	movl   $0x1fe51,0x4(%esp)
   1510e:	00 
   1510f:	c7 04 24 b4 ee 01 00 	movl   $0x1eeb4,(%esp)
   15116:	e8 4b bf ff ff       	call   11066 <Print>
   1511b:	eb fe                	jmp    1511b <Cond_Broadcast+0x57>
   1511d:	e8 1d b1 ff ff       	call   1023f <Interrupts_Enabled>
   15122:	84 c0                	test   %al,%al
   15124:	75 4a                	jne    15170 <Cond_Broadcast+0xac>
   15126:	c7 04 24 4f 00 00 00 	movl   $0x4f,(%esp)
   1512d:	e8 89 c0 ff ff       	call   111bb <Set_Current_Attr>
   15132:	a1 6c 5e 02 00       	mov    0x25e6c,%eax
   15137:	89 44 24 18          	mov    %eax,0x18(%esp)
   1513b:	8b 45 04             	mov    0x4(%ebp),%eax
   1513e:	89 44 24 14          	mov    %eax,0x14(%esp)
   15142:	c7 44 24 10 cb 00 00 	movl   $0xcb,0x10(%esp)
   15149:	00 
   1514a:	c7 44 24 0c 0e fe 01 	movl   $0x1fe0e,0xc(%esp)
   15151:	00 
   15152:	c7 44 24 08 d3 ef 01 	movl   $0x1efd3,0x8(%esp)
   15159:	00 
   1515a:	c7 44 24 04 51 fe 01 	movl   $0x1fe51,0x4(%esp)
   15161:	00 
   15162:	c7 04 24 b4 ee 01 00 	movl   $0x1eeb4,(%esp)
   15169:	e8 f8 be ff ff       	call   11066 <Print>
   1516e:	eb fe                	jmp    1516e <Cond_Broadcast+0xaa>
   15170:	fa                   	cli    
   15171:	8b 45 08             	mov    0x8(%ebp),%eax
   15174:	89 04 24             	mov    %eax,(%esp)
   15177:	e8 e9 11 00 00       	call   16365 <Wake_Up>
   1517c:	e8 be b0 ff ff       	call   1023f <Interrupts_Enabled>
   15181:	84 c0                	test   %al,%al
   15183:	74 4a                	je     151cf <Cond_Broadcast+0x10b>
   15185:	c7 04 24 4f 00 00 00 	movl   $0x4f,(%esp)
   1518c:	e8 2a c0 ff ff       	call   111bb <Set_Current_Attr>
   15191:	a1 6c 5e 02 00       	mov    0x25e6c,%eax
   15196:	89 44 24 18          	mov    %eax,0x18(%esp)
   1519a:	8b 45 04             	mov    0x4(%ebp),%eax
   1519d:	89 44 24 14          	mov    %eax,0x14(%esp)
   151a1:	c7 44 24 10 cd 00 00 	movl   $0xcd,0x10(%esp)
   151a8:	00 
   151a9:	c7 44 24 0c 0e fe 01 	movl   $0x1fe0e,0xc(%esp)
   151b0:	00 
   151b1:	c7 44 24 08 d2 ef 01 	movl   $0x1efd2,0x8(%esp)
   151b8:	00 
   151b9:	c7 44 24 04 51 fe 01 	movl   $0x1fe51,0x4(%esp)
   151c0:	00 
   151c1:	c7 04 24 b4 ee 01 00 	movl   $0x1eeb4,(%esp)
   151c8:	e8 99 be ff ff       	call   11066 <Print>
   151cd:	eb fe                	jmp    151cd <Cond_Broadcast+0x109>
   151cf:	fb                   	sti    
   151d0:	c9                   	leave  
   151d1:	c3                   	ret    
   151d2:	66 90                	xchg   %ax,%ax
   151d4:	66 90                	xchg   %ax,%ax
   151d6:	66 90                	xchg   %ax,%ax
   151d8:	66 90                	xchg   %ax,%ax
   151da:	66 90                	xchg   %ax,%ax
   151dc:	66 90                	xchg   %ax,%ax
   151de:	66 90                	xchg   %ax,%ax

000151e0 <Launch_Thread>:
   151e0:	55                   	push   %ebp
   151e1:	89 e5                	mov    %esp,%ebp
   151e3:	83 ec 28             	sub    $0x28,%esp
   151e6:	e8 54 b0 ff ff       	call   1023f <Interrupts_Enabled>
   151eb:	84 c0                	test   %al,%al
   151ed:	74 4a                	je     15239 <Launch_Thread+0x59>
   151ef:	c7 04 24 4f 00 00 00 	movl   $0x4f,(%esp)
   151f6:	e8 c0 bf ff ff       	call   111bb <Set_Current_Attr>
   151fb:	a1 6c 5e 02 00       	mov    0x25e6c,%eax
   15200:	89 44 24 18          	mov    %eax,0x18(%esp)
   15204:	8b 45 04             	mov    0x4(%ebp),%eax
   15207:	89 44 24 14          	mov    %eax,0x14(%esp)
   1520b:	c7 44 24 10 d5 00 00 	movl   $0xd5,0x10(%esp)
   15212:	00 
   15213:	c7 44 24 0c b9 fe 01 	movl   $0x1feb9,0xc(%esp)
   1521a:	00 
   1521b:	c7 44 24 08 d2 ef 01 	movl   $0x1efd2,0x8(%esp)
   15222:	00 
   15223:	c7 44 24 04 e6 01 02 	movl   $0x201e6,0x4(%esp)
   1522a:	00 
   1522b:	c7 04 24 b4 ee 01 00 	movl   $0x1eeb4,(%esp)
   15232:	e8 2f be ff ff       	call   11066 <Print>
   15237:	eb fe                	jmp    15237 <Launch_Thread+0x57>
   15239:	fb                   	sti    
   1523a:	c9                   	leave  
   1523b:	c3                   	ret    

0001523c <Create_Thread>:
   1523c:	55                   	push   %ebp
   1523d:	89 e5                	mov    %esp,%ebp
   1523f:	57                   	push   %edi
   15240:	56                   	push   %esi
   15241:	53                   	push   %ebx
   15242:	83 ec 3c             	sub    $0x3c,%esp
   15245:	89 45 e4             	mov    %eax,-0x1c(%ebp)
   15248:	89 d6                	mov    %edx,%esi
   1524a:	e8 90 d8 ff ff       	call   12adf <Alloc_Page>
   1524f:	89 c3                	mov    %eax,%ebx
   15251:	85 c0                	test   %eax,%eax
   15253:	0f 84 3d 01 00 00    	je     15396 <Create_Thread+0x15a>
   15259:	e8 81 d8 ff ff       	call   12adf <Alloc_Page>
   1525e:	89 c2                	mov    %eax,%edx
   15260:	85 c0                	test   %eax,%eax
   15262:	75 12                	jne    15276 <Create_Thread+0x3a>
   15264:	89 1c 24             	mov    %ebx,(%esp)
   15267:	e8 64 de ff ff       	call   130d0 <Free_Page>
   1526c:	b8 00 00 00 00       	mov    $0x0,%eax
   15271:	e9 11 02 00 00       	jmp    15487 <Create_Thread+0x24b>
   15276:	89 f0                	mov    %esi,%eax
   15278:	84 c0                	test   %al,%al
   1527a:	0f 85 20 01 00 00    	jne    153a0 <Create_Thread+0x164>
   15280:	a1 6c 5e 02 00       	mov    0x25e6c,%eax
   15285:	89 45 e0             	mov    %eax,-0x20(%ebp)
   15288:	89 df                	mov    %ebx,%edi
   1528a:	be 48 02 00 00       	mov    $0x248,%esi
   1528f:	f6 c3 01             	test   $0x1,%bl
   15292:	74 0a                	je     1529e <Create_Thread+0x62>
   15294:	c6 03 00             	movb   $0x0,(%ebx)
   15297:	8d 7b 01             	lea    0x1(%ebx),%edi
   1529a:	66 be 47 02          	mov    $0x247,%si
   1529e:	f7 c7 02 00 00 00    	test   $0x2,%edi
   152a4:	74 0b                	je     152b1 <Create_Thread+0x75>
   152a6:	66 c7 07 00 00       	movw   $0x0,(%edi)
   152ab:	83 c7 02             	add    $0x2,%edi
   152ae:	83 ee 02             	sub    $0x2,%esi
   152b1:	89 f1                	mov    %esi,%ecx
   152b3:	c1 e9 02             	shr    $0x2,%ecx
   152b6:	b8 00 00 00 00       	mov    $0x0,%eax
   152bb:	f3 ab                	rep stos %eax,%es:(%edi)
   152bd:	f7 c6 02 00 00 00    	test   $0x2,%esi
   152c3:	74 08                	je     152cd <Create_Thread+0x91>
   152c5:	66 c7 07 00 00       	movw   $0x0,(%edi)
   152ca:	83 c7 02             	add    $0x2,%edi
   152cd:	f7 c6 01 00 00 00    	test   $0x1,%esi
   152d3:	74 03                	je     152d8 <Create_Thread+0x9c>
   152d5:	c6 07 00             	movb   $0x0,(%edi)
   152d8:	89 d0                	mov    %edx,%eax
   152da:	89 53 14             	mov    %edx,0x14(%ebx)
   152dd:	05 00 10 00 00       	add    $0x1000,%eax
   152e2:	89 03                	mov    %eax,(%ebx)
   152e4:	c7 43 04 00 00 00 00 	movl   $0x0,0x4(%ebx)
   152eb:	8b 45 e4             	mov    -0x1c(%ebp),%eax
   152ee:	89 43 08             	mov    %eax,0x8(%ebx)
   152f1:	c7 43 18 00 00 00 00 	movl   $0x0,0x18(%ebx)
   152f8:	8b 45 e0             	mov    -0x20(%ebp),%eax
   152fb:	89 43 1c             	mov    %eax,0x1c(%ebx)
   152fe:	b8 02 00 00 00       	mov    $0x2,%eax
   15303:	89 43 20             	mov    %eax,0x20(%ebx)
   15306:	c6 43 24 01          	movb   $0x1,0x24(%ebx)
   1530a:	c7 43 2c 00 00 00 00 	movl   $0x0,0x2c(%ebx)
   15311:	c7 43 28 00 00 00 00 	movl   $0x0,0x28(%ebx)
   15318:	a1 20 40 02 00       	mov    0x24020,%eax
   1531d:	8d 50 01             	lea    0x1(%eax),%edx
   15320:	89 15 20 40 02 00    	mov    %edx,0x24020
   15326:	89 43 34             	mov    %eax,0x34(%ebx)
   15329:	c7 83 40 02 00 00 00 	movl   $0x0,0x240(%ebx)
   15330:	00 00 00 
   15333:	c6 83 44 02 00 00 00 	movb   $0x0,0x244(%ebx)
   1533a:	a1 60 53 02 00       	mov    0x25360,%eax
   1533f:	85 c0                	test   %eax,%eax
   15341:	0f 84 27 01 00 00    	je     1546e <Create_Thread+0x232>
   15347:	39 c3                	cmp    %eax,%ebx
   15349:	75 0d                	jne    15358 <Create_Thread+0x11c>
   1534b:	e9 d1 00 00 00       	jmp    15421 <Create_Thread+0x1e5>
   15350:	39 c3                	cmp    %eax,%ebx
   15352:	0f 84 c9 00 00 00    	je     15421 <Create_Thread+0x1e5>
   15358:	8b 40 3c             	mov    0x3c(%eax),%eax
   1535b:	85 c0                	test   %eax,%eax
   1535d:	8d 76 00             	lea    0x0(%esi),%esi
   15360:	75 ee                	jne    15350 <Create_Thread+0x114>
   15362:	e9 07 01 00 00       	jmp    1546e <Create_Thread+0x232>
   15367:	eb fe                	jmp    15367 <Create_Thread+0x12b>
   15369:	89 1d 64 53 02 00    	mov    %ebx,0x25364
   1536f:	89 1d 60 53 02 00    	mov    %ebx,0x25360
   15375:	c7 43 38 00 00 00 00 	movl   $0x0,0x38(%ebx)
   1537c:	89 d8                	mov    %ebx,%eax
   1537e:	e9 04 01 00 00       	jmp    15487 <Create_Thread+0x24b>
   15383:	89 58 3c             	mov    %ebx,0x3c(%eax)
   15386:	89 43 38             	mov    %eax,0x38(%ebx)
   15389:	89 1d 64 53 02 00    	mov    %ebx,0x25364
   1538f:	89 d8                	mov    %ebx,%eax
   15391:	e9 f1 00 00 00       	jmp    15487 <Create_Thread+0x24b>
   15396:	b8 00 00 00 00       	mov    $0x0,%eax
   1539b:	e9 e7 00 00 00       	jmp    15487 <Create_Thread+0x24b>
   153a0:	89 df                	mov    %ebx,%edi
   153a2:	be 48 02 00 00       	mov    $0x248,%esi
   153a7:	f6 c3 01             	test   $0x1,%bl
   153aa:	74 0a                	je     153b6 <Create_Thread+0x17a>
   153ac:	c6 03 00             	movb   $0x0,(%ebx)
   153af:	8d 7b 01             	lea    0x1(%ebx),%edi
   153b2:	66 be 47 02          	mov    $0x247,%si
   153b6:	f7 c7 02 00 00 00    	test   $0x2,%edi
   153bc:	74 0b                	je     153c9 <Create_Thread+0x18d>
   153be:	66 c7 07 00 00       	movw   $0x0,(%edi)
   153c3:	83 c7 02             	add    $0x2,%edi
   153c6:	83 ee 02             	sub    $0x2,%esi
   153c9:	89 f1                	mov    %esi,%ecx
   153cb:	c1 e9 02             	shr    $0x2,%ecx
   153ce:	b8 00 00 00 00       	mov    $0x0,%eax
   153d3:	f3 ab                	rep stos %eax,%es:(%edi)
   153d5:	f7 c6 02 00 00 00    	test   $0x2,%esi
   153db:	74 08                	je     153e5 <Create_Thread+0x1a9>
   153dd:	66 c7 07 00 00       	movw   $0x0,(%edi)
   153e2:	83 c7 02             	add    $0x2,%edi
   153e5:	f7 c6 01 00 00 00    	test   $0x1,%esi
   153eb:	74 03                	je     153f0 <Create_Thread+0x1b4>
   153ed:	c6 07 00             	movb   $0x0,(%edi)
   153f0:	89 d0                	mov    %edx,%eax
   153f2:	89 53 14             	mov    %edx,0x14(%ebx)
   153f5:	05 00 10 00 00       	add    $0x1000,%eax
   153fa:	89 03                	mov    %eax,(%ebx)
   153fc:	c7 43 04 00 00 00 00 	movl   $0x0,0x4(%ebx)
   15403:	8b 45 e4             	mov    -0x1c(%ebp),%eax
   15406:	89 43 08             	mov    %eax,0x8(%ebx)
   15409:	c7 43 18 00 00 00 00 	movl   $0x0,0x18(%ebx)
   15410:	c7 43 1c 00 00 00 00 	movl   $0x0,0x1c(%ebx)
   15417:	b8 01 00 00 00       	mov    $0x1,%eax
   1541c:	e9 e2 fe ff ff       	jmp    15303 <Create_Thread+0xc7>
   15421:	c7 04 24 4f 00 00 00 	movl   $0x4f,(%esp)
   15428:	e8 8e bd ff ff       	call   111bb <Set_Current_Attr>
   1542d:	a1 6c 5e 02 00       	mov    0x25e6c,%eax
   15432:	89 44 24 18          	mov    %eax,0x18(%esp)
   15436:	8b 45 04             	mov    0x4(%ebp),%eax
   15439:	89 44 24 14          	mov    %eax,0x14(%esp)
   1543d:	c7 44 24 10 4b 00 00 	movl   $0x4b,0x10(%esp)
   15444:	00 
   15445:	c7 44 24 0c d1 fe 01 	movl   $0x1fed1,0xc(%esp)
   1544c:	00 
   1544d:	c7 44 24 08 7c ff 01 	movl   $0x1ff7c,0x8(%esp)
   15454:	00 
   15455:	c7 44 24 04 f4 01 02 	movl   $0x201f4,0x4(%esp)
   1545c:	00 
   1545d:	c7 04 24 b4 ee 01 00 	movl   $0x1eeb4,(%esp)
   15464:	e8 fd bb ff ff       	call   11066 <Print>
   15469:	e9 f9 fe ff ff       	jmp    15367 <Create_Thread+0x12b>
   1546e:	c7 43 3c 00 00 00 00 	movl   $0x0,0x3c(%ebx)
   15475:	a1 64 53 02 00       	mov    0x25364,%eax
   1547a:	85 c0                	test   %eax,%eax
   1547c:	0f 85 01 ff ff ff    	jne    15383 <Create_Thread+0x147>
   15482:	e9 e2 fe ff ff       	jmp    15369 <Create_Thread+0x12d>
   15487:	83 c4 3c             	add    $0x3c,%esp
   1548a:	5b                   	pop    %ebx
   1548b:	5e                   	pop    %esi
   1548c:	5f                   	pop    %edi
   1548d:	5d                   	pop    %ebp
   1548e:	c3                   	ret    

0001548f <Setup_User_Thread>:
   1548f:	55                   	push   %ebp
   15490:	89 e5                	mov    %esp,%ebp
   15492:	57                   	push   %edi
   15493:	56                   	push   %esi
   15494:	53                   	push   %ebx
   15495:	83 ec 1c             	sub    $0x1c,%esp
   15498:	8b 5d 08             	mov    0x8(%ebp),%ebx
   1549b:	8b 75 0c             	mov    0xc(%ebp),%esi
   1549e:	0f b7 7e 20          	movzwl 0x20(%esi),%edi
   154a2:	89 74 24 04          	mov    %esi,0x4(%esp)
   154a6:	89 1c 24             	mov    %ebx,(%esp)
   154a9:	e8 22 1b 00 00       	call   16fd0 <Attach_User_Context>
   154ae:	0f b7 c7             	movzwl %di,%eax
   154b1:	8b 13                	mov    (%ebx),%edx
   154b3:	8d 4a fc             	lea    -0x4(%edx),%ecx
   154b6:	89 0b                	mov    %ecx,(%ebx)
   154b8:	89 42 fc             	mov    %eax,-0x4(%edx)
   154bb:	8b 4e 30             	mov    0x30(%esi),%ecx
   154be:	8b 13                	mov    (%ebx),%edx
   154c0:	8d 7a fc             	lea    -0x4(%edx),%edi
   154c3:	89 3b                	mov    %edi,(%ebx)
   154c5:	89 4a fc             	mov    %ecx,-0x4(%edx)
   154c8:	8b 13                	mov    (%ebx),%edx
   154ca:	8d 4a fc             	lea    -0x4(%edx),%ecx
   154cd:	89 0b                	mov    %ecx,(%ebx)
   154cf:	c7 42 fc 00 02 00 00 	movl   $0x200,-0x4(%edx)
   154d6:	0f b7 4e 1e          	movzwl 0x1e(%esi),%ecx
   154da:	8b 13                	mov    (%ebx),%edx
   154dc:	8d 7a fc             	lea    -0x4(%edx),%edi
   154df:	89 3b                	mov    %edi,(%ebx)
   154e1:	89 4a fc             	mov    %ecx,-0x4(%edx)
   154e4:	8b 4e 28             	mov    0x28(%esi),%ecx
   154e7:	8b 13                	mov    (%ebx),%edx
   154e9:	8d 7a fc             	lea    -0x4(%edx),%edi
   154ec:	89 3b                	mov    %edi,(%ebx)
   154ee:	89 4a fc             	mov    %ecx,-0x4(%edx)
   154f1:	8b 13                	mov    (%ebx),%edx
   154f3:	8d 4a fc             	lea    -0x4(%edx),%ecx
   154f6:	89 0b                	mov    %ecx,(%ebx)
   154f8:	c7 42 fc 00 00 00 00 	movl   $0x0,-0x4(%edx)
   154ff:	8b 13                	mov    (%ebx),%edx
   15501:	8d 4a fc             	lea    -0x4(%edx),%ecx
   15504:	89 0b                	mov    %ecx,(%ebx)
   15506:	c7 42 fc 00 00 00 00 	movl   $0x0,-0x4(%edx)
   1550d:	8b 13                	mov    (%ebx),%edx
   1550f:	8d 4a fc             	lea    -0x4(%edx),%ecx
   15512:	89 0b                	mov    %ecx,(%ebx)
   15514:	c7 42 fc 00 00 00 00 	movl   $0x0,-0x4(%edx)
   1551b:	8b 13                	mov    (%ebx),%edx
   1551d:	8d 4a fc             	lea    -0x4(%edx),%ecx
   15520:	89 0b                	mov    %ecx,(%ebx)
   15522:	c7 42 fc 00 00 00 00 	movl   $0x0,-0x4(%edx)
   15529:	8b 13                	mov    (%ebx),%edx
   1552b:	8d 4a fc             	lea    -0x4(%edx),%ecx
   1552e:	89 0b                	mov    %ecx,(%ebx)
   15530:	c7 42 fc 00 00 00 00 	movl   $0x0,-0x4(%edx)
   15537:	8b 13                	mov    (%ebx),%edx
   15539:	8d 4a fc             	lea    -0x4(%edx),%ecx
   1553c:	89 0b                	mov    %ecx,(%ebx)
   1553e:	c7 42 fc 00 00 00 00 	movl   $0x0,-0x4(%edx)
   15545:	8b 4e 2c             	mov    0x2c(%esi),%ecx
   15548:	8b 13                	mov    (%ebx),%edx
   1554a:	8d 72 fc             	lea    -0x4(%edx),%esi
   1554d:	89 33                	mov    %esi,(%ebx)
   1554f:	89 4a fc             	mov    %ecx,-0x4(%edx)
   15552:	8b 13                	mov    (%ebx),%edx
   15554:	8d 4a fc             	lea    -0x4(%edx),%ecx
   15557:	89 0b                	mov    %ecx,(%ebx)
   15559:	c7 42 fc 00 00 00 00 	movl   $0x0,-0x4(%edx)
   15560:	8b 13                	mov    (%ebx),%edx
   15562:	8d 4a fc             	lea    -0x4(%edx),%ecx
   15565:	89 0b                	mov    %ecx,(%ebx)
   15567:	c7 42 fc 00 00 00 00 	movl   $0x0,-0x4(%edx)
   1556e:	8b 13                	mov    (%ebx),%edx
   15570:	8d 4a fc             	lea    -0x4(%edx),%ecx
   15573:	89 0b                	mov    %ecx,(%ebx)
   15575:	89 42 fc             	mov    %eax,-0x4(%edx)
   15578:	8b 13                	mov    (%ebx),%edx
   1557a:	8d 4a fc             	lea    -0x4(%edx),%ecx
   1557d:	89 0b                	mov    %ecx,(%ebx)
   1557f:	89 42 fc             	mov    %eax,-0x4(%edx)
   15582:	8b 13                	mov    (%ebx),%edx
   15584:	8d 4a fc             	lea    -0x4(%edx),%ecx
   15587:	89 0b                	mov    %ecx,(%ebx)
   15589:	89 42 fc             	mov    %eax,-0x4(%edx)
   1558c:	8b 13                	mov    (%ebx),%edx
   1558e:	8d 4a fc             	lea    -0x4(%edx),%ecx
   15591:	89 0b                	mov    %ecx,(%ebx)
   15593:	89 42 fc             	mov    %eax,-0x4(%edx)
   15596:	83 c4 1c             	add    $0x1c,%esp
   15599:	5b                   	pop    %ebx
   1559a:	5e                   	pop    %esi
   1559b:	5f                   	pop    %edi
   1559c:	5d                   	pop    %ebp
   1559d:	c3                   	ret    

0001559e <Make_Runnable>:
   1559e:	55                   	push   %ebp
   1559f:	89 e5                	mov    %esp,%ebp
   155a1:	53                   	push   %ebx
   155a2:	83 ec 24             	sub    $0x24,%esp
   155a5:	8b 5d 08             	mov    0x8(%ebp),%ebx
   155a8:	e8 92 ac ff ff       	call   1023f <Interrupts_Enabled>
   155ad:	84 c0                	test   %al,%al
   155af:	74 4a                	je     155fb <Make_Runnable+0x5d>
   155b1:	c7 04 24 4f 00 00 00 	movl   $0x4f,(%esp)
   155b8:	e8 fe bb ff ff       	call   111bb <Set_Current_Attr>
   155bd:	a1 6c 5e 02 00       	mov    0x25e6c,%eax
   155c2:	89 44 24 18          	mov    %eax,0x18(%esp)
   155c6:	8b 45 04             	mov    0x4(%ebp),%eax
   155c9:	89 44 24 14          	mov    %eax,0x14(%esp)
   155cd:	c7 44 24 10 45 02 00 	movl   $0x245,0x10(%esp)
   155d4:	00 
   155d5:	c7 44 24 0c b9 fe 01 	movl   $0x1feb9,0xc(%esp)
   155dc:	00 
   155dd:	c7 44 24 08 d2 ef 01 	movl   $0x1efd2,0x8(%esp)
   155e4:	00 
   155e5:	c7 44 24 04 d8 01 02 	movl   $0x201d8,0x4(%esp)
   155ec:	00 
   155ed:	c7 04 24 b4 ee 01 00 	movl   $0x1eeb4,(%esp)
   155f4:	e8 6d ba ff ff       	call   11066 <Print>
   155f9:	eb fe                	jmp    155f9 <Make_Runnable+0x5b>
   155fb:	8b 83 40 02 00 00    	mov    0x240(%ebx),%eax
   15601:	83 f8 03             	cmp    $0x3,%eax
   15604:	76 4a                	jbe    15650 <Make_Runnable+0xb2>
   15606:	c7 04 24 4f 00 00 00 	movl   $0x4f,(%esp)
   1560d:	e8 a9 bb ff ff       	call   111bb <Set_Current_Attr>
   15612:	a1 6c 5e 02 00       	mov    0x25e6c,%eax
   15617:	89 44 24 18          	mov    %eax,0x18(%esp)
   1561b:	8b 45 04             	mov    0x4(%ebp),%eax
   1561e:	89 44 24 14          	mov    %eax,0x14(%esp)
   15622:	c7 44 24 10 48 02 00 	movl   $0x248,0x10(%esp)
   15629:	00 
   1562a:	c7 44 24 0c b9 fe 01 	movl   $0x1feb9,0xc(%esp)
   15631:	00 
   15632:	c7 44 24 08 ac ff 01 	movl   $0x1ffac,0x8(%esp)
   15639:	00 
   1563a:	c7 44 24 04 d8 01 02 	movl   $0x201d8,0x4(%esp)
   15641:	00 
   15642:	c7 04 24 b4 ee 01 00 	movl   $0x1eeb4,(%esp)
   15649:	e8 18 ba ff ff       	call   11066 <Print>
   1564e:	eb fe                	jmp    1564e <Make_Runnable+0xb0>
   15650:	80 bb 44 02 00 00 00 	cmpb   $0x0,0x244(%ebx)
   15657:	74 0d                	je     15666 <Make_Runnable+0xc8>
   15659:	85 c0                	test   %eax,%eax
   1565b:	7e 09                	jle    15666 <Make_Runnable+0xc8>
   1565d:	83 e8 01             	sub    $0x1,%eax
   15660:	89 83 40 02 00 00    	mov    %eax,0x240(%ebx)
   15666:	83 7b 08 00          	cmpl   $0x0,0x8(%ebx)
   1566a:	75 0a                	jne    15676 <Make_Runnable+0xd8>
   1566c:	c7 83 40 02 00 00 03 	movl   $0x3,0x240(%ebx)
   15673:	00 00 00 
   15676:	c6 83 44 02 00 00 00 	movb   $0x0,0x244(%ebx)
   1567d:	8b 8b 40 02 00 00    	mov    0x240(%ebx),%ecx
   15683:	8d 14 cd 40 53 02 00 	lea    0x25340(,%ecx,8),%edx
   1568a:	8b 04 cd 40 53 02 00 	mov    0x25340(,%ecx,8),%eax
   15691:	85 c0                	test   %eax,%eax
   15693:	0f 84 84 00 00 00    	je     1571d <Make_Runnable+0x17f>
   15699:	39 c3                	cmp    %eax,%ebx
   1569b:	75 06                	jne    156a3 <Make_Runnable+0x105>
   1569d:	eb 34                	jmp    156d3 <Make_Runnable+0x135>
   1569f:	39 c3                	cmp    %eax,%ebx
   156a1:	74 30                	je     156d3 <Make_Runnable+0x135>
   156a3:	8b 40 10             	mov    0x10(%eax),%eax
   156a6:	85 c0                	test   %eax,%eax
   156a8:	75 f5                	jne    1569f <Make_Runnable+0x101>
   156aa:	eb 71                	jmp    1571d <Make_Runnable+0x17f>
   156ac:	8d 74 26 00          	lea    0x0(%esi,%eiz,1),%esi
   156b0:	eb fa                	jmp    156ac <Make_Runnable+0x10e>
   156b2:	89 5a 04             	mov    %ebx,0x4(%edx)
   156b5:	89 1c cd 40 53 02 00 	mov    %ebx,0x25340(,%ecx,8)
   156bc:	c7 43 0c 00 00 00 00 	movl   $0x0,0xc(%ebx)
   156c3:	eb 68                	jmp    1572d <Make_Runnable+0x18f>
   156c5:	89 58 10             	mov    %ebx,0x10(%eax)
   156c8:	8b 42 04             	mov    0x4(%edx),%eax
   156cb:	89 43 0c             	mov    %eax,0xc(%ebx)
   156ce:	89 5a 04             	mov    %ebx,0x4(%edx)
   156d1:	eb 5a                	jmp    1572d <Make_Runnable+0x18f>
   156d3:	c7 04 24 4f 00 00 00 	movl   $0x4f,(%esp)
   156da:	e8 dc ba ff ff       	call   111bb <Set_Current_Attr>
   156df:	a1 6c 5e 02 00       	mov    0x25e6c,%eax
   156e4:	89 44 24 18          	mov    %eax,0x18(%esp)
   156e8:	8b 45 04             	mov    0x4(%ebp),%eax
   156eb:	89 44 24 14          	mov    %eax,0x14(%esp)
   156ef:	c7 44 24 10 4a 00 00 	movl   $0x4a,0x10(%esp)
   156f6:	00 
   156f7:	c7 44 24 0c d1 fe 01 	movl   $0x1fed1,0xc(%esp)
   156fe:	00 
   156ff:	c7 44 24 08 d8 ff 01 	movl   $0x1ffd8,0x8(%esp)
   15706:	00 
   15707:	c7 44 24 04 bc 01 02 	movl   $0x201bc,0x4(%esp)
   1570e:	00 
   1570f:	c7 04 24 b4 ee 01 00 	movl   $0x1eeb4,(%esp)
   15716:	e8 4b b9 ff ff       	call   11066 <Print>
   1571b:	eb 8f                	jmp    156ac <Make_Runnable+0x10e>
   1571d:	c7 43 10 00 00 00 00 	movl   $0x0,0x10(%ebx)
   15724:	8b 42 04             	mov    0x4(%edx),%eax
   15727:	85 c0                	test   %eax,%eax
   15729:	75 9a                	jne    156c5 <Make_Runnable+0x127>
   1572b:	eb 85                	jmp    156b2 <Make_Runnable+0x114>
   1572d:	83 c4 24             	add    $0x24,%esp
   15730:	5b                   	pop    %ebx
   15731:	5d                   	pop    %ebp
   15732:	c3                   	ret    

00015733 <Make_Runnable_Atomic>:
   15733:	55                   	push   %ebp
   15734:	89 e5                	mov    %esp,%ebp
   15736:	83 ec 28             	sub    $0x28,%esp
   15739:	e8 01 ab ff ff       	call   1023f <Interrupts_Enabled>
   1573e:	84 c0                	test   %al,%al
   15740:	75 4a                	jne    1578c <Make_Runnable_Atomic+0x59>
   15742:	c7 04 24 4f 00 00 00 	movl   $0x4f,(%esp)
   15749:	e8 6d ba ff ff       	call   111bb <Set_Current_Attr>
   1574e:	a1 6c 5e 02 00       	mov    0x25e6c,%eax
   15753:	89 44 24 18          	mov    %eax,0x18(%esp)
   15757:	8b 45 04             	mov    0x4(%ebp),%eax
   1575a:	89 44 24 14          	mov    %eax,0x14(%esp)
   1575e:	c7 44 24 10 5e 02 00 	movl   $0x25e,0x10(%esp)
   15765:	00 
   15766:	c7 44 24 0c b9 fe 01 	movl   $0x1feb9,0xc(%esp)
   1576d:	00 
   1576e:	c7 44 24 08 d3 ef 01 	movl   $0x1efd3,0x8(%esp)
   15775:	00 
   15776:	c7 44 24 04 a7 01 02 	movl   $0x201a7,0x4(%esp)
   1577d:	00 
   1577e:	c7 04 24 b4 ee 01 00 	movl   $0x1eeb4,(%esp)
   15785:	e8 dc b8 ff ff       	call   11066 <Print>
   1578a:	eb fe                	jmp    1578a <Make_Runnable_Atomic+0x57>
   1578c:	fa                   	cli    
   1578d:	8b 45 08             	mov    0x8(%ebp),%eax
   15790:	89 04 24             	mov    %eax,(%esp)
   15793:	e8 06 fe ff ff       	call   1559e <Make_Runnable>
   15798:	e8 a2 aa ff ff       	call   1023f <Interrupts_Enabled>
   1579d:	84 c0                	test   %al,%al
   1579f:	74 4a                	je     157eb <Make_Runnable_Atomic+0xb8>
   157a1:	c7 04 24 4f 00 00 00 	movl   $0x4f,(%esp)
   157a8:	e8 0e ba ff ff       	call   111bb <Set_Current_Attr>
   157ad:	a1 6c 5e 02 00       	mov    0x25e6c,%eax
   157b2:	89 44 24 18          	mov    %eax,0x18(%esp)
   157b6:	8b 45 04             	mov    0x4(%ebp),%eax
   157b9:	89 44 24 14          	mov    %eax,0x14(%esp)
   157bd:	c7 44 24 10 60 02 00 	movl   $0x260,0x10(%esp)
   157c4:	00 
   157c5:	c7 44 24 0c b9 fe 01 	movl   $0x1feb9,0xc(%esp)
   157cc:	00 
   157cd:	c7 44 24 08 d2 ef 01 	movl   $0x1efd2,0x8(%esp)
   157d4:	00 
   157d5:	c7 44 24 04 a7 01 02 	movl   $0x201a7,0x4(%esp)
   157dc:	00 
   157dd:	c7 04 24 b4 ee 01 00 	movl   $0x1eeb4,(%esp)
   157e4:	e8 7d b8 ff ff       	call   11066 <Print>
   157e9:	eb fe                	jmp    157e9 <Make_Runnable_Atomic+0xb6>
   157eb:	fb                   	sti    
   157ec:	c9                   	leave  
   157ed:	c3                   	ret    

000157ee <Start_Kernel_Thread>:
   157ee:	55                   	push   %ebp
   157ef:	89 e5                	mov    %esp,%ebp
   157f1:	53                   	push   %ebx
   157f2:	83 ec 14             	sub    $0x14,%esp
   157f5:	0f b6 55 14          	movzbl 0x14(%ebp),%edx
   157f9:	8b 45 10             	mov    0x10(%ebp),%eax
   157fc:	e8 3b fa ff ff       	call   1523c <Create_Thread>
   15801:	89 c3                	mov    %eax,%ebx
   15803:	85 c0                	test   %eax,%eax
   15805:	0f 84 10 01 00 00    	je     1591b <Start_Kernel_Thread+0x12d>
   1580b:	8b 00                	mov    (%eax),%eax
   1580d:	8d 50 fc             	lea    -0x4(%eax),%edx
   15810:	89 13                	mov    %edx,(%ebx)
   15812:	8b 55 0c             	mov    0xc(%ebp),%edx
   15815:	89 50 fc             	mov    %edx,-0x4(%eax)
   15818:	8b 03                	mov    (%ebx),%eax
   1581a:	8d 50 fc             	lea    -0x4(%eax),%edx
   1581d:	89 13                	mov    %edx,(%ebx)
   1581f:	c7 40 fc 8c 69 01 00 	movl   $0x1698c,-0x4(%eax)
   15826:	8b 03                	mov    (%ebx),%eax
   15828:	8d 50 fc             	lea    -0x4(%eax),%edx
   1582b:	89 13                	mov    %edx,(%ebx)
   1582d:	8b 55 08             	mov    0x8(%ebp),%edx
   15830:	89 50 fc             	mov    %edx,-0x4(%eax)
   15833:	8b 03                	mov    (%ebx),%eax
   15835:	8d 50 fc             	lea    -0x4(%eax),%edx
   15838:	89 13                	mov    %edx,(%ebx)
   1583a:	c7 40 fc 00 00 00 00 	movl   $0x0,-0x4(%eax)
   15841:	8b 03                	mov    (%ebx),%eax
   15843:	8d 50 fc             	lea    -0x4(%eax),%edx
   15846:	89 13                	mov    %edx,(%ebx)
   15848:	c7 40 fc 08 00 00 00 	movl   $0x8,-0x4(%eax)
   1584f:	8b 03                	mov    (%ebx),%eax
   15851:	8d 50 fc             	lea    -0x4(%eax),%edx
   15854:	89 13                	mov    %edx,(%ebx)
   15856:	c7 40 fc e0 51 01 00 	movl   $0x151e0,-0x4(%eax)
   1585d:	8b 03                	mov    (%ebx),%eax
   1585f:	8d 50 fc             	lea    -0x4(%eax),%edx
   15862:	89 13                	mov    %edx,(%ebx)
   15864:	c7 40 fc 00 00 00 00 	movl   $0x0,-0x4(%eax)
   1586b:	8b 03                	mov    (%ebx),%eax
   1586d:	8d 50 fc             	lea    -0x4(%eax),%edx
   15870:	89 13                	mov    %edx,(%ebx)
   15872:	c7 40 fc 00 00 00 00 	movl   $0x0,-0x4(%eax)
   15879:	8b 03                	mov    (%ebx),%eax
   1587b:	8d 50 fc             	lea    -0x4(%eax),%edx
   1587e:	89 13                	mov    %edx,(%ebx)
   15880:	c7 40 fc 00 00 00 00 	movl   $0x0,-0x4(%eax)
   15887:	8b 03                	mov    (%ebx),%eax
   15889:	8d 50 fc             	lea    -0x4(%eax),%edx
   1588c:	89 13                	mov    %edx,(%ebx)
   1588e:	c7 40 fc 00 00 00 00 	movl   $0x0,-0x4(%eax)
   15895:	8b 03                	mov    (%ebx),%eax
   15897:	8d 50 fc             	lea    -0x4(%eax),%edx
   1589a:	89 13                	mov    %edx,(%ebx)
   1589c:	c7 40 fc 00 00 00 00 	movl   $0x0,-0x4(%eax)
   158a3:	8b 03                	mov    (%ebx),%eax
   158a5:	8d 50 fc             	lea    -0x4(%eax),%edx
   158a8:	89 13                	mov    %edx,(%ebx)
   158aa:	c7 40 fc 00 00 00 00 	movl   $0x0,-0x4(%eax)
   158b1:	8b 03                	mov    (%ebx),%eax
   158b3:	8d 50 fc             	lea    -0x4(%eax),%edx
   158b6:	89 13                	mov    %edx,(%ebx)
   158b8:	c7 40 fc 00 00 00 00 	movl   $0x0,-0x4(%eax)
   158bf:	8b 03                	mov    (%ebx),%eax
   158c1:	8d 50 fc             	lea    -0x4(%eax),%edx
   158c4:	89 13                	mov    %edx,(%ebx)
   158c6:	c7 40 fc 00 00 00 00 	movl   $0x0,-0x4(%eax)
   158cd:	8b 03                	mov    (%ebx),%eax
   158cf:	8d 50 fc             	lea    -0x4(%eax),%edx
   158d2:	89 13                	mov    %edx,(%ebx)
   158d4:	c7 40 fc 00 00 00 00 	movl   $0x0,-0x4(%eax)
   158db:	8b 03                	mov    (%ebx),%eax
   158dd:	8d 50 fc             	lea    -0x4(%eax),%edx
   158e0:	89 13                	mov    %edx,(%ebx)
   158e2:	c7 40 fc 10 00 00 00 	movl   $0x10,-0x4(%eax)
   158e9:	8b 03                	mov    (%ebx),%eax
   158eb:	8d 50 fc             	lea    -0x4(%eax),%edx
   158ee:	89 13                	mov    %edx,(%ebx)
   158f0:	c7 40 fc 10 00 00 00 	movl   $0x10,-0x4(%eax)
   158f7:	8b 03                	mov    (%ebx),%eax
   158f9:	8d 50 fc             	lea    -0x4(%eax),%edx
   158fc:	89 13                	mov    %edx,(%ebx)
   158fe:	c7 40 fc 00 00 00 00 	movl   $0x0,-0x4(%eax)
   15905:	8b 03                	mov    (%ebx),%eax
   15907:	8d 50 fc             	lea    -0x4(%eax),%edx
   1590a:	89 13                	mov    %edx,(%ebx)
   1590c:	c7 40 fc 00 00 00 00 	movl   $0x0,-0x4(%eax)
   15913:	89 1c 24             	mov    %ebx,(%esp)
   15916:	e8 18 fe ff ff       	call   15733 <Make_Runnable_Atomic>
   1591b:	89 d8                	mov    %ebx,%eax
   1591d:	83 c4 14             	add    $0x14,%esp
   15920:	5b                   	pop    %ebx
   15921:	5d                   	pop    %ebp
   15922:	c3                   	ret    

00015923 <Init_Scheduler>:
   15923:	55                   	push   %ebp
   15924:	89 e5                	mov    %esp,%ebp
   15926:	57                   	push   %edi
   15927:	83 ec 24             	sub    $0x24,%esp
   1592a:	ba 00 00 10 00       	mov    $0x100000,%edx
   1592f:	b9 92 00 00 00       	mov    $0x92,%ecx
   15934:	b8 00 00 00 00       	mov    $0x0,%eax
   15939:	89 d7                	mov    %edx,%edi
   1593b:	f3 ab                	rep stos %eax,%es:(%edi)
   1593d:	c7 05 14 00 10 00 00 	movl   $0x101000,0x100014
   15944:	10 10 00 
   15947:	c7 05 00 00 10 00 00 	movl   $0x102000,0x100000
   1594e:	20 10 00 
   15951:	c7 05 04 00 10 00 00 	movl   $0x0,0x100004
   15958:	00 00 00 
   1595b:	c7 05 08 00 10 00 05 	movl   $0x5,0x100008
   15962:	00 00 00 
   15965:	c7 05 18 00 10 00 00 	movl   $0x0,0x100018
   1596c:	00 00 00 
   1596f:	c7 05 1c 00 10 00 00 	movl   $0x0,0x10001c
   15976:	00 00 00 
   15979:	c7 05 20 00 10 00 01 	movl   $0x1,0x100020
   15980:	00 00 00 
   15983:	c6 05 24 00 10 00 01 	movb   $0x1,0x100024
   1598a:	c7 05 2c 00 10 00 00 	movl   $0x0,0x10002c
   15991:	00 00 00 
   15994:	c7 05 28 00 10 00 00 	movl   $0x0,0x100028
   1599b:	00 00 00 
   1599e:	a1 20 40 02 00       	mov    0x24020,%eax
   159a3:	8d 50 01             	lea    0x1(%eax),%edx
   159a6:	89 15 20 40 02 00    	mov    %edx,0x24020
   159ac:	a3 34 00 10 00       	mov    %eax,0x100034
   159b1:	c7 05 40 02 10 00 00 	movl   $0x0,0x100240
   159b8:	00 00 00 
   159bb:	c6 05 44 02 10 00 00 	movb   $0x0,0x100244
   159c2:	c7 05 6c 5e 02 00 00 	movl   $0x100000,0x25e6c
   159c9:	00 10 00 
   159cc:	a1 60 53 02 00       	mov    0x25360,%eax
   159d1:	85 c0                	test   %eax,%eax
   159d3:	0f 84 f6 00 00 00    	je     15acf <Init_Scheduler+0x1ac>
   159d9:	3d 00 00 10 00       	cmp    $0x100000,%eax
   159de:	75 10                	jne    159f0 <Init_Scheduler+0xcd>
   159e0:	e9 9d 00 00 00       	jmp    15a82 <Init_Scheduler+0x15f>
   159e5:	3d 00 00 10 00       	cmp    $0x100000,%eax
   159ea:	0f 84 92 00 00 00    	je     15a82 <Init_Scheduler+0x15f>
   159f0:	8b 40 3c             	mov    0x3c(%eax),%eax
   159f3:	85 c0                	test   %eax,%eax
   159f5:	75 ee                	jne    159e5 <Init_Scheduler+0xc2>
   159f7:	e9 d3 00 00 00       	jmp    15acf <Init_Scheduler+0x1ac>
   159fc:	8d 74 26 00          	lea    0x0(%esi,%eiz,1),%esi
   15a00:	eb fa                	jmp    159fc <Init_Scheduler+0xd9>
   15a02:	c7 05 64 53 02 00 00 	movl   $0x100000,0x25364
   15a09:	00 10 00 
   15a0c:	c7 05 60 53 02 00 00 	movl   $0x100000,0x25360
   15a13:	00 10 00 
   15a16:	c7 05 38 00 10 00 00 	movl   $0x0,0x100038
   15a1d:	00 00 00 
   15a20:	eb 16                	jmp    15a38 <Init_Scheduler+0x115>
   15a22:	c7 40 3c 00 00 10 00 	movl   $0x100000,0x3c(%eax)
   15a29:	a3 38 00 10 00       	mov    %eax,0x100038
   15a2e:	c7 05 64 53 02 00 00 	movl   $0x100000,0x25364
   15a35:	00 10 00 
   15a38:	c7 44 24 0c 01 00 00 	movl   $0x1,0xc(%esp)
   15a3f:	00 
   15a40:	c7 44 24 08 00 00 00 	movl   $0x0,0x8(%esp)
   15a47:	00 
   15a48:	c7 44 24 04 00 00 00 	movl   $0x0,0x4(%esp)
   15a4f:	00 
   15a50:	c7 04 24 23 5e 01 00 	movl   $0x15e23,(%esp)
   15a57:	e8 92 fd ff ff       	call   157ee <Start_Kernel_Thread>
   15a5c:	c7 44 24 0c 01 00 00 	movl   $0x1,0xc(%esp)
   15a63:	00 
   15a64:	c7 44 24 08 05 00 00 	movl   $0x5,0x8(%esp)
   15a6b:	00 
   15a6c:	c7 44 24 04 00 00 00 	movl   $0x0,0x4(%esp)
   15a73:	00 
   15a74:	c7 04 24 94 60 01 00 	movl   $0x16094,(%esp)
   15a7b:	e8 6e fd ff ff       	call   157ee <Start_Kernel_Thread>
   15a80:	eb 69                	jmp    15aeb <Init_Scheduler+0x1c8>
   15a82:	c7 04 24 4f 00 00 00 	movl   $0x4f,(%esp)
   15a89:	e8 2d b7 ff ff       	call   111bb <Set_Current_Attr>
   15a8e:	a1 6c 5e 02 00       	mov    0x25e6c,%eax
   15a93:	89 44 24 18          	mov    %eax,0x18(%esp)
   15a97:	8b 45 04             	mov    0x4(%ebp),%eax
   15a9a:	89 44 24 14          	mov    %eax,0x14(%esp)
   15a9e:	c7 44 24 10 4b 00 00 	movl   $0x4b,0x10(%esp)
   15aa5:	00 
   15aa6:	c7 44 24 0c d1 fe 01 	movl   $0x1fed1,0xc(%esp)
   15aad:	00 
   15aae:	c7 44 24 08 7c ff 01 	movl   $0x1ff7c,0x8(%esp)
   15ab5:	00 
   15ab6:	c7 44 24 04 f4 01 02 	movl   $0x201f4,0x4(%esp)
   15abd:	00 
   15abe:	c7 04 24 b4 ee 01 00 	movl   $0x1eeb4,(%esp)
   15ac5:	e8 9c b5 ff ff       	call   11066 <Print>
   15aca:	e9 2d ff ff ff       	jmp    159fc <Init_Scheduler+0xd9>
   15acf:	c7 05 3c 00 10 00 00 	movl   $0x0,0x10003c
   15ad6:	00 00 00 
   15ad9:	a1 64 53 02 00       	mov    0x25364,%eax
   15ade:	85 c0                	test   %eax,%eax
   15ae0:	0f 85 3c ff ff ff    	jne    15a22 <Init_Scheduler+0xff>
   15ae6:	e9 17 ff ff ff       	jmp    15a02 <Init_Scheduler+0xdf>
   15aeb:	83 c4 24             	add    $0x24,%esp
   15aee:	5f                   	pop    %edi
   15aef:	5d                   	pop    %ebp
   15af0:	c3                   	ret    

00015af1 <Start_User_Thread>:
   15af1:	55                   	push   %ebp
   15af2:	89 e5                	mov    %esp,%ebp
   15af4:	53                   	push   %ebx
   15af5:	83 ec 14             	sub    $0x14,%esp
   15af8:	0f b6 55 0c          	movzbl 0xc(%ebp),%edx
   15afc:	b8 01 00 00 00       	mov    $0x1,%eax
   15b01:	e8 36 f7 ff ff       	call   1523c <Create_Thread>
   15b06:	89 c3                	mov    %eax,%ebx
   15b08:	85 c0                	test   %eax,%eax
   15b0a:	74 17                	je     15b23 <Start_User_Thread+0x32>
   15b0c:	8b 45 08             	mov    0x8(%ebp),%eax
   15b0f:	89 44 24 04          	mov    %eax,0x4(%esp)
   15b13:	89 1c 24             	mov    %ebx,(%esp)
   15b16:	e8 74 f9 ff ff       	call   1548f <Setup_User_Thread>
   15b1b:	89 1c 24             	mov    %ebx,(%esp)
   15b1e:	e8 10 fc ff ff       	call   15733 <Make_Runnable_Atomic>
   15b23:	89 d8                	mov    %ebx,%eax
   15b25:	83 c4 14             	add    $0x14,%esp
   15b28:	5b                   	pop    %ebx
   15b29:	5d                   	pop    %ebp
   15b2a:	c3                   	ret    

00015b2b <Get_Current>:
   15b2b:	55                   	push   %ebp
   15b2c:	89 e5                	mov    %esp,%ebp
   15b2e:	a1 6c 5e 02 00       	mov    0x25e6c,%eax
   15b33:	5d                   	pop    %ebp
   15b34:	c3                   	ret    

00015b35 <Get_Next_Runnable>:
   15b35:	55                   	push   %ebp
   15b36:	89 e5                	mov    %esp,%ebp
   15b38:	56                   	push   %esi
   15b39:	53                   	push   %ebx
   15b3a:	83 ec 20             	sub    $0x20,%esp
   15b3d:	bb 00 00 00 00       	mov    $0x0,%ebx
   15b42:	8b 04 dd 40 53 02 00 	mov    0x25340(,%ebx,8),%eax
   15b49:	89 c2                	mov    %eax,%edx
   15b4b:	85 c0                	test   %eax,%eax
   15b4d:	75 13                	jne    15b62 <Get_Next_Runnable+0x2d>
   15b4f:	eb 20                	jmp    15b71 <Get_Next_Runnable+0x3c>
   15b51:	85 c0                	test   %eax,%eax
   15b53:	74 0b                	je     15b60 <Get_Next_Runnable+0x2b>
   15b55:	8b 4a 08             	mov    0x8(%edx),%ecx
   15b58:	3b 48 08             	cmp    0x8(%eax),%ecx
   15b5b:	0f 4f c2             	cmovg  %edx,%eax
   15b5e:	eb 02                	jmp    15b62 <Get_Next_Runnable+0x2d>
   15b60:	89 d0                	mov    %edx,%eax
   15b62:	8b 52 10             	mov    0x10(%edx),%edx
   15b65:	85 d2                	test   %edx,%edx
   15b67:	75 e8                	jne    15b51 <Get_Next_Runnable+0x1c>
   15b69:	85 c0                	test   %eax,%eax
   15b6b:	0f 85 b4 00 00 00    	jne    15c25 <Get_Next_Runnable+0xf0>
   15b71:	83 c3 01             	add    $0x1,%ebx
   15b74:	83 fb 04             	cmp    $0x4,%ebx
   15b77:	75 c9                	jne    15b42 <Get_Next_Runnable+0xd>
   15b79:	eb 5d                	jmp    15bd8 <Get_Next_Runnable+0xa3>
   15b7b:	90                   	nop
   15b7c:	8d 74 26 00          	lea    0x0(%esi,%eiz,1),%esi
   15b80:	eb f9                	jmp    15b7b <Get_Next_Runnable+0x46>
   15b82:	39 d0                	cmp    %edx,%eax
   15b84:	75 10                	jne    15b96 <Get_Next_Runnable+0x61>
   15b86:	e9 03 01 00 00       	jmp    15c8e <Get_Next_Runnable+0x159>
   15b8b:	39 d0                	cmp    %edx,%eax
   15b8d:	8d 76 00             	lea    0x0(%esi),%esi
   15b90:	0f 84 f8 00 00 00    	je     15c8e <Get_Next_Runnable+0x159>
   15b96:	8b 52 10             	mov    0x10(%edx),%edx
   15b99:	85 d2                	test   %edx,%edx
   15b9b:	75 ee                	jne    15b8b <Get_Next_Runnable+0x56>
   15b9d:	8d 76 00             	lea    0x0(%esi),%esi
   15ba0:	e9 9c 00 00 00       	jmp    15c41 <Get_Next_Runnable+0x10c>
   15ba5:	eb fe                	jmp    15ba5 <Get_Next_Runnable+0x70>
   15ba7:	8b 48 10             	mov    0x10(%eax),%ecx
   15baa:	89 4a 10             	mov    %ecx,0x10(%edx)
   15bad:	8d 76 00             	lea    0x0(%esi),%esi
   15bb0:	eb 09                	jmp    15bbb <Get_Next_Runnable+0x86>
   15bb2:	8b 50 10             	mov    0x10(%eax),%edx
   15bb5:	89 91 40 53 02 00    	mov    %edx,0x25340(%ecx)
   15bbb:	8b 50 10             	mov    0x10(%eax),%edx
   15bbe:	85 d2                	test   %edx,%edx
   15bc0:	74 0b                	je     15bcd <Get_Next_Runnable+0x98>
   15bc2:	8b 48 0c             	mov    0xc(%eax),%ecx
   15bc5:	89 4a 0c             	mov    %ecx,0xc(%edx)
   15bc8:	e9 d1 00 00 00       	jmp    15c9e <Get_Next_Runnable+0x169>
   15bcd:	8b 50 0c             	mov    0xc(%eax),%edx
   15bd0:	89 56 04             	mov    %edx,0x4(%esi)
   15bd3:	e9 c6 00 00 00       	jmp    15c9e <Get_Next_Runnable+0x169>
   15bd8:	c7 04 24 4f 00 00 00 	movl   $0x4f,(%esp)
   15bdf:	e8 d7 b5 ff ff       	call   111bb <Set_Current_Attr>
   15be4:	a1 6c 5e 02 00       	mov    0x25e6c,%eax
   15be9:	89 44 24 18          	mov    %eax,0x18(%esp)
   15bed:	8b 45 04             	mov    0x4(%ebp),%eax
   15bf0:	89 44 24 14          	mov    %eax,0x14(%esp)
   15bf4:	c7 44 24 10 7b 02 00 	movl   $0x27b,0x10(%esp)
   15bfb:	00 
   15bfc:	c7 44 24 0c b9 fe 01 	movl   $0x1feb9,0xc(%esp)
   15c03:	00 
   15c04:	c7 44 24 08 ed fe 01 	movl   $0x1feed,0x8(%esp)
   15c0b:	00 
   15c0c:	c7 44 24 04 95 01 02 	movl   $0x20195,0x4(%esp)
   15c13:	00 
   15c14:	c7 04 24 b4 ee 01 00 	movl   $0x1eeb4,(%esp)
   15c1b:	e8 46 b4 ff ff       	call   11066 <Print>
   15c20:	e9 56 ff ff ff       	jmp    15b7b <Get_Next_Runnable+0x46>
   15c25:	8d 0c dd 00 00 00 00 	lea    0x0(,%ebx,8),%ecx
   15c2c:	8d b1 40 53 02 00    	lea    0x25340(%ecx),%esi
   15c32:	8b 14 dd 40 53 02 00 	mov    0x25340(,%ebx,8),%edx
   15c39:	85 d2                	test   %edx,%edx
   15c3b:	0f 85 41 ff ff ff    	jne    15b82 <Get_Next_Runnable+0x4d>
   15c41:	c7 04 24 4f 00 00 00 	movl   $0x4f,(%esp)
   15c48:	e8 6e b5 ff ff       	call   111bb <Set_Current_Attr>
   15c4d:	a1 6c 5e 02 00       	mov    0x25e6c,%eax
   15c52:	89 44 24 18          	mov    %eax,0x18(%esp)
   15c56:	8b 45 04             	mov    0x4(%ebp),%eax
   15c59:	89 44 24 14          	mov    %eax,0x14(%esp)
   15c5d:	c7 44 24 10 4a 00 00 	movl   $0x4a,0x10(%esp)
   15c64:	00 
   15c65:	c7 44 24 0c d1 fe 01 	movl   $0x1fed1,0xc(%esp)
   15c6c:	00 
   15c6d:	c7 44 24 08 08 00 02 	movl   $0x20008,0x8(%esp)
   15c74:	00 
   15c75:	c7 44 24 04 7c 01 02 	movl   $0x2017c,0x4(%esp)
   15c7c:	00 
   15c7d:	c7 04 24 b4 ee 01 00 	movl   $0x1eeb4,(%esp)
   15c84:	e8 dd b3 ff ff       	call   11066 <Print>
   15c89:	e9 17 ff ff ff       	jmp    15ba5 <Get_Next_Runnable+0x70>
   15c8e:	8b 50 0c             	mov    0xc(%eax),%edx
   15c91:	85 d2                	test   %edx,%edx
   15c93:	0f 85 0e ff ff ff    	jne    15ba7 <Get_Next_Runnable+0x72>
   15c99:	e9 14 ff ff ff       	jmp    15bb2 <Get_Next_Runnable+0x7d>
   15c9e:	83 c4 20             	add    $0x20,%esp
   15ca1:	5b                   	pop    %ebx
   15ca2:	5e                   	pop    %esi
   15ca3:	5d                   	pop    %ebp
   15ca4:	c3                   	ret    

00015ca5 <Schedule>:
   15ca5:	55                   	push   %ebp
   15ca6:	89 e5                	mov    %esp,%ebp
   15ca8:	83 ec 28             	sub    $0x28,%esp
   15cab:	e8 8f a5 ff ff       	call   1023f <Interrupts_Enabled>
   15cb0:	84 c0                	test   %al,%al
   15cb2:	74 4a                	je     15cfe <Schedule+0x59>
   15cb4:	c7 04 24 4f 00 00 00 	movl   $0x4f,(%esp)
   15cbb:	e8 fb b4 ff ff       	call   111bb <Set_Current_Attr>
   15cc0:	a1 6c 5e 02 00       	mov    0x25e6c,%eax
   15cc5:	89 44 24 18          	mov    %eax,0x18(%esp)
   15cc9:	8b 45 04             	mov    0x4(%ebp),%eax
   15ccc:	89 44 24 14          	mov    %eax,0x14(%esp)
   15cd0:	c7 44 24 10 92 02 00 	movl   $0x292,0x10(%esp)
   15cd7:	00 
   15cd8:	c7 44 24 0c b9 fe 01 	movl   $0x1feb9,0xc(%esp)
   15cdf:	00 
   15ce0:	c7 44 24 08 d2 ef 01 	movl   $0x1efd2,0x8(%esp)
   15ce7:	00 
   15ce8:	c7 44 24 04 73 01 02 	movl   $0x20173,0x4(%esp)
   15cef:	00 
   15cf0:	c7 04 24 b4 ee 01 00 	movl   $0x1eeb4,(%esp)
   15cf7:	e8 6a b3 ff ff       	call   11066 <Print>
   15cfc:	eb fe                	jmp    15cfc <Schedule+0x57>
   15cfe:	a1 68 5e 02 00       	mov    0x25e68,%eax
   15d03:	85 c0                	test   %eax,%eax
   15d05:	74 4a                	je     15d51 <Schedule+0xac>
   15d07:	c7 04 24 4f 00 00 00 	movl   $0x4f,(%esp)
   15d0e:	e8 a8 b4 ff ff       	call   111bb <Set_Current_Attr>
   15d13:	a1 6c 5e 02 00       	mov    0x25e6c,%eax
   15d18:	89 44 24 18          	mov    %eax,0x18(%esp)
   15d1c:	8b 45 04             	mov    0x4(%ebp),%eax
   15d1f:	89 44 24 14          	mov    %eax,0x14(%esp)
   15d23:	c7 44 24 10 95 02 00 	movl   $0x295,0x10(%esp)
   15d2a:	00 
   15d2b:	c7 44 24 0c b9 fe 01 	movl   $0x1feb9,0xc(%esp)
   15d32:	00 
   15d33:	c7 44 24 08 f7 fe 01 	movl   $0x1fef7,0x8(%esp)
   15d3a:	00 
   15d3b:	c7 44 24 04 73 01 02 	movl   $0x20173,0x4(%esp)
   15d42:	00 
   15d43:	c7 04 24 b4 ee 01 00 	movl   $0x1eeb4,(%esp)
   15d4a:	e8 17 b3 ff ff       	call   11066 <Print>
   15d4f:	eb fe                	jmp    15d4f <Schedule+0xaa>
   15d51:	e8 df fd ff ff       	call   15b35 <Get_Next_Runnable>
   15d56:	89 04 24             	mov    %eax,(%esp)
   15d59:	e8 12 74 00 00       	call   1d170 <Switch_To_Thread>
   15d5e:	c9                   	leave  
   15d5f:	90                   	nop
   15d60:	c3                   	ret    

00015d61 <Yield>:
   15d61:	55                   	push   %ebp
   15d62:	89 e5                	mov    %esp,%ebp
   15d64:	83 ec 28             	sub    $0x28,%esp
   15d67:	e8 d3 a4 ff ff       	call   1023f <Interrupts_Enabled>
   15d6c:	84 c0                	test   %al,%al
   15d6e:	75 4a                	jne    15dba <Yield+0x59>
   15d70:	c7 04 24 4f 00 00 00 	movl   $0x4f,(%esp)
   15d77:	e8 3f b4 ff ff       	call   111bb <Set_Current_Attr>
   15d7c:	a1 6c 5e 02 00       	mov    0x25e6c,%eax
   15d81:	89 44 24 18          	mov    %eax,0x18(%esp)
   15d85:	8b 45 04             	mov    0x4(%ebp),%eax
   15d88:	89 44 24 14          	mov    %eax,0x14(%esp)
   15d8c:	c7 44 24 10 a9 02 00 	movl   $0x2a9,0x10(%esp)
   15d93:	00 
   15d94:	c7 44 24 0c b9 fe 01 	movl   $0x1feb9,0xc(%esp)
   15d9b:	00 
   15d9c:	c7 44 24 08 d3 ef 01 	movl   $0x1efd3,0x8(%esp)
   15da3:	00 
   15da4:	c7 44 24 04 6d 01 02 	movl   $0x2016d,0x4(%esp)
   15dab:	00 
   15dac:	c7 04 24 b4 ee 01 00 	movl   $0x1eeb4,(%esp)
   15db3:	e8 ae b2 ff ff       	call   11066 <Print>
   15db8:	eb fe                	jmp    15db8 <Yield+0x57>
   15dba:	fa                   	cli    
   15dbb:	a1 6c 5e 02 00       	mov    0x25e6c,%eax
   15dc0:	89 04 24             	mov    %eax,(%esp)
   15dc3:	e8 d6 f7 ff ff       	call   1559e <Make_Runnable>
   15dc8:	e8 d8 fe ff ff       	call   15ca5 <Schedule>
   15dcd:	e8 6d a4 ff ff       	call   1023f <Interrupts_Enabled>
   15dd2:	84 c0                	test   %al,%al
   15dd4:	74 4a                	je     15e20 <Yield+0xbf>
   15dd6:	c7 04 24 4f 00 00 00 	movl   $0x4f,(%esp)
   15ddd:	e8 d9 b3 ff ff       	call   111bb <Set_Current_Attr>
   15de2:	a1 6c 5e 02 00       	mov    0x25e6c,%eax
   15de7:	89 44 24 18          	mov    %eax,0x18(%esp)
   15deb:	8b 45 04             	mov    0x4(%ebp),%eax
   15dee:	89 44 24 14          	mov    %eax,0x14(%esp)
   15df2:	c7 44 24 10 ac 02 00 	movl   $0x2ac,0x10(%esp)
   15df9:	00 
   15dfa:	c7 44 24 0c b9 fe 01 	movl   $0x1feb9,0xc(%esp)
   15e01:	00 
   15e02:	c7 44 24 08 d2 ef 01 	movl   $0x1efd2,0x8(%esp)
   15e09:	00 
   15e0a:	c7 44 24 04 6d 01 02 	movl   $0x2016d,0x4(%esp)
   15e11:	00 
   15e12:	c7 04 24 b4 ee 01 00 	movl   $0x1eeb4,(%esp)
   15e19:	e8 48 b2 ff ff       	call   11066 <Print>
   15e1e:	eb fe                	jmp    15e1e <Yield+0xbd>
   15e20:	fb                   	sti    
   15e21:	c9                   	leave  
   15e22:	c3                   	ret    

00015e23 <Idle>:
   15e23:	55                   	push   %ebp
   15e24:	89 e5                	mov    %esp,%ebp
   15e26:	83 ec 08             	sub    $0x8,%esp
   15e29:	e8 33 ff ff ff       	call   15d61 <Yield>
   15e2e:	eb f9                	jmp    15e29 <Idle+0x6>

00015e30 <Lookup_Thread>:
   15e30:	55                   	push   %ebp
   15e31:	89 e5                	mov    %esp,%ebp
   15e33:	57                   	push   %edi
   15e34:	56                   	push   %esi
   15e35:	53                   	push   %ebx
   15e36:	83 ec 2c             	sub    $0x2c,%esp
   15e39:	8b 75 08             	mov    0x8(%ebp),%esi
   15e3c:	e8 fe a3 ff ff       	call   1023f <Interrupts_Enabled>
   15e41:	89 c7                	mov    %eax,%edi
   15e43:	84 c0                	test   %al,%al
   15e45:	74 56                	je     15e9d <Lookup_Thread+0x6d>
   15e47:	e8 f3 a3 ff ff       	call   1023f <Interrupts_Enabled>
   15e4c:	84 c0                	test   %al,%al
   15e4e:	66 90                	xchg   %ax,%ax
   15e50:	75 4a                	jne    15e9c <Lookup_Thread+0x6c>
   15e52:	c7 04 24 4f 00 00 00 	movl   $0x4f,(%esp)
   15e59:	e8 5d b3 ff ff       	call   111bb <Set_Current_Attr>
   15e5e:	a1 6c 5e 02 00       	mov    0x25e6c,%eax
   15e63:	89 44 24 18          	mov    %eax,0x18(%esp)
   15e67:	8b 45 04             	mov    0x4(%ebp),%eax
   15e6a:	89 44 24 14          	mov    %eax,0x14(%esp)
   15e6e:	c7 44 24 10 8f 00 00 	movl   $0x8f,0x10(%esp)
   15e75:	00 
   15e76:	c7 44 24 0c 7e f1 01 	movl   $0x1f17e,0xc(%esp)
   15e7d:	00 
   15e7e:	c7 44 24 08 d3 ef 01 	movl   $0x1efd3,0x8(%esp)
   15e85:	00 
   15e86:	c7 44 24 04 2c 01 02 	movl   $0x2012c,0x4(%esp)
   15e8d:	00 
   15e8e:	c7 04 24 b4 ee 01 00 	movl   $0x1eeb4,(%esp)
   15e95:	e8 cc b1 ff ff       	call   11066 <Print>
   15e9a:	eb fe                	jmp    15e9a <Lookup_Thread+0x6a>
   15e9c:	fa                   	cli    
   15e9d:	8b 1d 60 53 02 00    	mov    0x25360,%ebx
   15ea3:	85 db                	test   %ebx,%ebx
   15ea5:	74 26                	je     15ecd <Lookup_Thread+0x9d>
   15ea7:	39 73 34             	cmp    %esi,0x34(%ebx)
   15eaa:	75 1a                	jne    15ec6 <Lookup_Thread+0x96>
   15eac:	eb 05                	jmp    15eb3 <Lookup_Thread+0x83>
   15eae:	39 73 34             	cmp    %esi,0x34(%ebx)
   15eb1:	75 13                	jne    15ec6 <Lookup_Thread+0x96>
   15eb3:	8b 43 1c             	mov    0x1c(%ebx),%eax
   15eb6:	3b 05 6c 5e 02 00    	cmp    0x25e6c,%eax
   15ebc:	b8 00 00 00 00       	mov    $0x0,%eax
   15ec1:	0f 45 d8             	cmovne %eax,%ebx
   15ec4:	eb 07                	jmp    15ecd <Lookup_Thread+0x9d>
   15ec6:	8b 5b 3c             	mov    0x3c(%ebx),%ebx
   15ec9:	85 db                	test   %ebx,%ebx
   15ecb:	75 e1                	jne    15eae <Lookup_Thread+0x7e>
   15ecd:	e8 6d a3 ff ff       	call   1023f <Interrupts_Enabled>
   15ed2:	84 c0                	test   %al,%al
   15ed4:	74 4a                	je     15f20 <Lookup_Thread+0xf0>
   15ed6:	c7 04 24 4f 00 00 00 	movl   $0x4f,(%esp)
   15edd:	e8 d9 b2 ff ff       	call   111bb <Set_Current_Attr>
   15ee2:	a1 6c 5e 02 00       	mov    0x25e6c,%eax
   15ee7:	89 44 24 18          	mov    %eax,0x18(%esp)
   15eeb:	8b 45 04             	mov    0x4(%ebp),%eax
   15eee:	89 44 24 14          	mov    %eax,0x14(%esp)
   15ef2:	c7 44 24 10 99 00 00 	movl   $0x99,0x10(%esp)
   15ef9:	00 
   15efa:	c7 44 24 0c 7e f1 01 	movl   $0x1f17e,0xc(%esp)
   15f01:	00 
   15f02:	c7 44 24 08 d2 ef 01 	movl   $0x1efd2,0x8(%esp)
   15f09:	00 
   15f0a:	c7 44 24 04 1d 01 02 	movl   $0x2011d,0x4(%esp)
   15f11:	00 
   15f12:	c7 04 24 b4 ee 01 00 	movl   $0x1eeb4,(%esp)
   15f19:	e8 48 b1 ff ff       	call   11066 <Print>
   15f1e:	eb fe                	jmp    15f1e <Lookup_Thread+0xee>
   15f20:	89 f8                	mov    %edi,%eax
   15f22:	84 c0                	test   %al,%al
   15f24:	74 54                	je     15f7a <Lookup_Thread+0x14a>
   15f26:	e8 14 a3 ff ff       	call   1023f <Interrupts_Enabled>
   15f2b:	84 c0                	test   %al,%al
   15f2d:	74 4a                	je     15f79 <Lookup_Thread+0x149>
   15f2f:	c7 04 24 4f 00 00 00 	movl   $0x4f,(%esp)
   15f36:	e8 80 b2 ff ff       	call   111bb <Set_Current_Attr>
   15f3b:	a1 6c 5e 02 00       	mov    0x25e6c,%eax
   15f40:	89 44 24 18          	mov    %eax,0x18(%esp)
   15f44:	8b 45 04             	mov    0x4(%ebp),%eax
   15f47:	89 44 24 14          	mov    %eax,0x14(%esp)
   15f4b:	c7 44 24 10 9c 00 00 	movl   $0x9c,0x10(%esp)
   15f52:	00 
   15f53:	c7 44 24 0c 7e f1 01 	movl   $0x1f17e,0xc(%esp)
   15f5a:	00 
   15f5b:	c7 44 24 08 d2 ef 01 	movl   $0x1efd2,0x8(%esp)
   15f62:	00 
   15f63:	c7 44 24 04 1d 01 02 	movl   $0x2011d,0x4(%esp)
   15f6a:	00 
   15f6b:	c7 04 24 b4 ee 01 00 	movl   $0x1eeb4,(%esp)
   15f72:	e8 ef b0 ff ff       	call   11066 <Print>
   15f77:	eb fe                	jmp    15f77 <Lookup_Thread+0x147>
   15f79:	fb                   	sti    
   15f7a:	89 d8                	mov    %ebx,%eax
   15f7c:	83 c4 2c             	add    $0x2c,%esp
   15f7f:	5b                   	pop    %ebx
   15f80:	5e                   	pop    %esi
   15f81:	5f                   	pop    %edi
   15f82:	5d                   	pop    %ebp
   15f83:	c3                   	ret    

00015f84 <Wait>:
   15f84:	55                   	push   %ebp
   15f85:	89 e5                	mov    %esp,%ebp
   15f87:	56                   	push   %esi
   15f88:	53                   	push   %ebx
   15f89:	83 ec 20             	sub    $0x20,%esp
   15f8c:	8b 75 08             	mov    0x8(%ebp),%esi
   15f8f:	8b 1d 6c 5e 02 00    	mov    0x25e6c,%ebx
   15f95:	e8 a5 a2 ff ff       	call   1023f <Interrupts_Enabled>
   15f9a:	84 c0                	test   %al,%al
   15f9c:	74 4a                	je     15fe8 <Wait+0x64>
   15f9e:	c7 04 24 4f 00 00 00 	movl   $0x4f,(%esp)
   15fa5:	e8 11 b2 ff ff       	call   111bb <Set_Current_Attr>
   15faa:	a1 6c 5e 02 00       	mov    0x25e6c,%eax
   15faf:	89 44 24 18          	mov    %eax,0x18(%esp)
   15fb3:	8b 45 04             	mov    0x4(%ebp),%eax
   15fb6:	89 44 24 14          	mov    %eax,0x14(%esp)
   15fba:	c7 44 24 10 20 03 00 	movl   $0x320,0x10(%esp)
   15fc1:	00 
   15fc2:	c7 44 24 0c b9 fe 01 	movl   $0x1feb9,0xc(%esp)
   15fc9:	00 
   15fca:	c7 44 24 08 d2 ef 01 	movl   $0x1efd2,0x8(%esp)
   15fd1:	00 
   15fd2:	c7 44 24 04 18 01 02 	movl   $0x20118,0x4(%esp)
   15fd9:	00 
   15fda:	c7 04 24 b4 ee 01 00 	movl   $0x1eeb4,(%esp)
   15fe1:	e8 80 b0 ff ff       	call   11066 <Print>
   15fe6:	eb fe                	jmp    15fe6 <Wait+0x62>
   15fe8:	c6 83 44 02 00 00 01 	movb   $0x1,0x244(%ebx)
   15fef:	8b 06                	mov    (%esi),%eax
   15ff1:	85 c0                	test   %eax,%eax
   15ff3:	0f 84 84 00 00 00    	je     1607d <Wait+0xf9>
   15ff9:	39 c3                	cmp    %eax,%ebx
   15ffb:	75 06                	jne    16003 <Wait+0x7f>
   15ffd:	eb 34                	jmp    16033 <Wait+0xaf>
   15fff:	39 c3                	cmp    %eax,%ebx
   16001:	74 30                	je     16033 <Wait+0xaf>
   16003:	8b 40 10             	mov    0x10(%eax),%eax
   16006:	85 c0                	test   %eax,%eax
   16008:	75 f5                	jne    15fff <Wait+0x7b>
   1600a:	eb 71                	jmp    1607d <Wait+0xf9>
   1600c:	8d 74 26 00          	lea    0x0(%esi,%eiz,1),%esi
   16010:	eb fa                	jmp    1600c <Wait+0x88>
   16012:	89 5e 04             	mov    %ebx,0x4(%esi)
   16015:	89 1e                	mov    %ebx,(%esi)
   16017:	c7 43 0c 00 00 00 00 	movl   $0x0,0xc(%ebx)
   1601e:	eb 0c                	jmp    1602c <Wait+0xa8>
   16020:	89 58 10             	mov    %ebx,0x10(%eax)
   16023:	8b 46 04             	mov    0x4(%esi),%eax
   16026:	89 43 0c             	mov    %eax,0xc(%ebx)
   16029:	89 5e 04             	mov    %ebx,0x4(%esi)
   1602c:	e8 74 fc ff ff       	call   15ca5 <Schedule>
   16031:	eb 5a                	jmp    1608d <Wait+0x109>
   16033:	c7 04 24 4f 00 00 00 	movl   $0x4f,(%esp)
   1603a:	e8 7c b1 ff ff       	call   111bb <Set_Current_Attr>
   1603f:	a1 6c 5e 02 00       	mov    0x25e6c,%eax
   16044:	89 44 24 18          	mov    %eax,0x18(%esp)
   16048:	8b 45 04             	mov    0x4(%ebp),%eax
   1604b:	89 44 24 14          	mov    %eax,0x14(%esp)
   1604f:	c7 44 24 10 4a 00 00 	movl   $0x4a,0x10(%esp)
   16056:	00 
   16057:	c7 44 24 0c d1 fe 01 	movl   $0x1fed1,0xc(%esp)
   1605e:	00 
   1605f:	c7 44 24 08 d8 ff 01 	movl   $0x1ffd8,0x8(%esp)
   16066:	00 
   16067:	c7 44 24 04 bc 01 02 	movl   $0x201bc,0x4(%esp)
   1606e:	00 
   1606f:	c7 04 24 b4 ee 01 00 	movl   $0x1eeb4,(%esp)
   16076:	e8 eb af ff ff       	call   11066 <Print>
   1607b:	eb 8f                	jmp    1600c <Wait+0x88>
   1607d:	c7 43 10 00 00 00 00 	movl   $0x0,0x10(%ebx)
   16084:	8b 46 04             	mov    0x4(%esi),%eax
   16087:	85 c0                	test   %eax,%eax
   16089:	75 95                	jne    16020 <Wait+0x9c>
   1608b:	eb 85                	jmp    16012 <Wait+0x8e>
   1608d:	83 c4 20             	add    $0x20,%esp
   16090:	5b                   	pop    %ebx
   16091:	5e                   	pop    %esi
   16092:	5d                   	pop    %ebp
   16093:	c3                   	ret    

00016094 <Reaper>:
   16094:	55                   	push   %ebp
   16095:	89 e5                	mov    %esp,%ebp
   16097:	56                   	push   %esi
   16098:	53                   	push   %ebx
   16099:	83 ec 20             	sub    $0x20,%esp
   1609c:	e8 9e a1 ff ff       	call   1023f <Interrupts_Enabled>
   160a1:	84 c0                	test   %al,%al
   160a3:	75 4a                	jne    160ef <Reaper+0x5b>
   160a5:	c7 04 24 4f 00 00 00 	movl   $0x4f,(%esp)
   160ac:	e8 0a b1 ff ff       	call   111bb <Set_Current_Attr>
   160b1:	a1 6c 5e 02 00       	mov    0x25e6c,%eax
   160b6:	89 44 24 18          	mov    %eax,0x18(%esp)
   160ba:	8b 45 04             	mov    0x4(%ebp),%eax
   160bd:	89 44 24 14          	mov    %eax,0x14(%esp)
   160c1:	c7 44 24 10 77 01 00 	movl   $0x177,0x10(%esp)
   160c8:	00 
   160c9:	c7 44 24 0c b9 fe 01 	movl   $0x1feb9,0xc(%esp)
   160d0:	00 
   160d1:	c7 44 24 08 d3 ef 01 	movl   $0x1efd3,0x8(%esp)
   160d8:	00 
   160d9:	c7 44 24 04 3e 02 02 	movl   $0x2023e,0x4(%esp)
   160e0:	00 
   160e1:	c7 04 24 b4 ee 01 00 	movl   $0x1eeb4,(%esp)
   160e8:	e8 79 af ff ff       	call   11066 <Print>
   160ed:	eb fe                	jmp    160ed <Reaper+0x59>
   160ef:	fa                   	cli    
   160f0:	8b 1d 2c 53 02 00    	mov    0x2532c,%ebx
   160f6:	85 db                	test   %ebx,%ebx
   160f8:	75 0e                	jne    16108 <Reaper+0x74>
   160fa:	c7 04 24 24 53 02 00 	movl   $0x25324,(%esp)
   16101:	e8 7e fe ff ff       	call   15f84 <Wait>
   16106:	eb e8                	jmp    160f0 <Reaper+0x5c>
   16108:	c7 05 30 53 02 00 00 	movl   $0x0,0x25330
   1610f:	00 00 00 
   16112:	c7 05 2c 53 02 00 00 	movl   $0x0,0x2532c
   16119:	00 00 00 
   1611c:	e8 1e a1 ff ff       	call   1023f <Interrupts_Enabled>
   16121:	84 c0                	test   %al,%al
   16123:	74 4a                	je     1616f <Reaper+0xdb>
   16125:	c7 04 24 4f 00 00 00 	movl   $0x4f,(%esp)
   1612c:	e8 8a b0 ff ff       	call   111bb <Set_Current_Attr>
   16131:	a1 6c 5e 02 00       	mov    0x25e6c,%eax
   16136:	89 44 24 18          	mov    %eax,0x18(%esp)
   1613a:	8b 45 04             	mov    0x4(%ebp),%eax
   1613d:	89 44 24 14          	mov    %eax,0x14(%esp)
   16141:	c7 44 24 10 87 01 00 	movl   $0x187,0x10(%esp)
   16148:	00 
   16149:	c7 44 24 0c b9 fe 01 	movl   $0x1feb9,0xc(%esp)
   16150:	00 
   16151:	c7 44 24 08 d2 ef 01 	movl   $0x1efd2,0x8(%esp)
   16158:	00 
   16159:	c7 44 24 04 3e 02 02 	movl   $0x2023e,0x4(%esp)
   16160:	00 
   16161:	c7 04 24 b4 ee 01 00 	movl   $0x1eeb4,(%esp)
   16168:	e8 f9 ae ff ff       	call   11066 <Print>
   1616d:	eb fe                	jmp    1616d <Reaper+0xd9>
   1616f:	fb                   	sti    
   16170:	e8 ec fb ff ff       	call   15d61 <Yield>
   16175:	8b 73 10             	mov    0x10(%ebx),%esi
   16178:	89 1c 24             	mov    %ebx,(%esp)
   1617b:	e8 cf 0f 00 00       	call   1714f <Detach_User_Context>
   16180:	e8 ba a0 ff ff       	call   1023f <Interrupts_Enabled>
   16185:	84 c0                	test   %al,%al
   16187:	75 4a                	jne    161d3 <Reaper+0x13f>
   16189:	c7 04 24 4f 00 00 00 	movl   $0x4f,(%esp)
   16190:	e8 26 b0 ff ff       	call   111bb <Set_Current_Attr>
   16195:	a1 6c 5e 02 00       	mov    0x25e6c,%eax
   1619a:	89 44 24 18          	mov    %eax,0x18(%esp)
   1619e:	8b 45 04             	mov    0x4(%ebp),%eax
   161a1:	89 44 24 14          	mov    %eax,0x14(%esp)
   161a5:	c7 44 24 10 a9 00 00 	movl   $0xa9,0x10(%esp)
   161ac:	00 
   161ad:	c7 44 24 0c b9 fe 01 	movl   $0x1feb9,0xc(%esp)
   161b4:	00 
   161b5:	c7 44 24 08 d3 ef 01 	movl   $0x1efd3,0x8(%esp)
   161bc:	00 
   161bd:	c7 44 24 04 2f 02 02 	movl   $0x2022f,0x4(%esp)
   161c4:	00 
   161c5:	c7 04 24 b4 ee 01 00 	movl   $0x1eeb4,(%esp)
   161cc:	e8 95 ae ff ff       	call   11066 <Print>
   161d1:	eb fe                	jmp    161d1 <Reaper+0x13d>
   161d3:	fa                   	cli    
   161d4:	8b 43 14             	mov    0x14(%ebx),%eax
   161d7:	89 04 24             	mov    %eax,(%esp)
   161da:	e8 f1 ce ff ff       	call   130d0 <Free_Page>
   161df:	89 1c 24             	mov    %ebx,(%esp)
   161e2:	e8 e9 ce ff ff       	call   130d0 <Free_Page>
   161e7:	a1 60 53 02 00       	mov    0x25360,%eax
   161ec:	85 c0                	test   %eax,%eax
   161ee:	0f 84 0e 01 00 00    	je     16302 <Reaper+0x26e>
   161f4:	39 d8                	cmp    %ebx,%eax
   161f6:	75 0e                	jne    16206 <Reaper+0x172>
   161f8:	e9 52 01 00 00       	jmp    1634f <Reaper+0x2bb>
   161fd:	39 d8                	cmp    %ebx,%eax
   161ff:	90                   	nop
   16200:	0f 84 49 01 00 00    	je     1634f <Reaper+0x2bb>
   16206:	8b 40 3c             	mov    0x3c(%eax),%eax
   16209:	85 c0                	test   %eax,%eax
   1620b:	75 f0                	jne    161fd <Reaper+0x169>
   1620d:	8d 76 00             	lea    0x0(%esi),%esi
   16210:	e9 ed 00 00 00       	jmp    16302 <Reaper+0x26e>
   16215:	eb fe                	jmp    16215 <Reaper+0x181>
   16217:	8b 53 3c             	mov    0x3c(%ebx),%edx
   1621a:	89 50 3c             	mov    %edx,0x3c(%eax)
   1621d:	8d 76 00             	lea    0x0(%esi),%esi
   16220:	eb 08                	jmp    1622a <Reaper+0x196>
   16222:	8b 43 3c             	mov    0x3c(%ebx),%eax
   16225:	a3 60 53 02 00       	mov    %eax,0x25360
   1622a:	8b 43 3c             	mov    0x3c(%ebx),%eax
   1622d:	85 c0                	test   %eax,%eax
   1622f:	74 08                	je     16239 <Reaper+0x1a5>
   16231:	8b 53 38             	mov    0x38(%ebx),%edx
   16234:	89 50 38             	mov    %edx,0x38(%eax)
   16237:	eb 08                	jmp    16241 <Reaper+0x1ad>
   16239:	8b 43 38             	mov    0x38(%ebx),%eax
   1623c:	a3 64 53 02 00       	mov    %eax,0x25364
   16241:	e8 f9 9f ff ff       	call   1023f <Interrupts_Enabled>
   16246:	84 c0                	test   %al,%al
   16248:	74 4a                	je     16294 <Reaper+0x200>
   1624a:	c7 04 24 4f 00 00 00 	movl   $0x4f,(%esp)
   16251:	e8 65 af ff ff       	call   111bb <Set_Current_Attr>
   16256:	a1 6c 5e 02 00       	mov    0x25e6c,%eax
   1625b:	89 44 24 18          	mov    %eax,0x18(%esp)
   1625f:	8b 45 04             	mov    0x4(%ebp),%eax
   16262:	89 44 24 14          	mov    %eax,0x14(%esp)
   16266:	c7 44 24 10 b0 00 00 	movl   $0xb0,0x10(%esp)
   1626d:	00 
   1626e:	c7 44 24 0c b9 fe 01 	movl   $0x1feb9,0xc(%esp)
   16275:	00 
   16276:	c7 44 24 08 d2 ef 01 	movl   $0x1efd2,0x8(%esp)
   1627d:	00 
   1627e:	c7 44 24 04 2f 02 02 	movl   $0x2022f,0x4(%esp)
   16285:	00 
   16286:	c7 04 24 b4 ee 01 00 	movl   $0x1eeb4,(%esp)
   1628d:	e8 d4 ad ff ff       	call   11066 <Print>
   16292:	eb fe                	jmp    16292 <Reaper+0x1fe>
   16294:	fb                   	sti    
   16295:	85 f6                	test   %esi,%esi
   16297:	74 0c                	je     162a5 <Reaper+0x211>
   16299:	89 f3                	mov    %esi,%ebx
   1629b:	90                   	nop
   1629c:	8d 74 26 00          	lea    0x0(%esi,%eiz,1),%esi
   162a0:	e9 d0 fe ff ff       	jmp    16175 <Reaper+0xe1>
   162a5:	e8 95 9f ff ff       	call   1023f <Interrupts_Enabled>
   162aa:	84 c0                	test   %al,%al
   162ac:	8d 74 26 00          	lea    0x0(%esi,%eiz,1),%esi
   162b0:	75 4a                	jne    162fc <Reaper+0x268>
   162b2:	c7 04 24 4f 00 00 00 	movl   $0x4f,(%esp)
   162b9:	e8 fd ae ff ff       	call   111bb <Set_Current_Attr>
   162be:	a1 6c 5e 02 00       	mov    0x25e6c,%eax
   162c3:	89 44 24 18          	mov    %eax,0x18(%esp)
   162c7:	8b 45 04             	mov    0x4(%ebp),%eax
   162ca:	89 44 24 14          	mov    %eax,0x14(%esp)
   162ce:	c7 44 24 10 99 01 00 	movl   $0x199,0x10(%esp)
   162d5:	00 
   162d6:	c7 44 24 0c b9 fe 01 	movl   $0x1feb9,0xc(%esp)
   162dd:	00 
   162de:	c7 44 24 08 d3 ef 01 	movl   $0x1efd3,0x8(%esp)
   162e5:	00 
   162e6:	c7 44 24 04 3e 02 02 	movl   $0x2023e,0x4(%esp)
   162ed:	00 
   162ee:	c7 04 24 b4 ee 01 00 	movl   $0x1eeb4,(%esp)
   162f5:	e8 6c ad ff ff       	call   11066 <Print>
   162fa:	eb fe                	jmp    162fa <Reaper+0x266>
   162fc:	fa                   	cli    
   162fd:	e9 ee fd ff ff       	jmp    160f0 <Reaper+0x5c>
   16302:	c7 04 24 4f 00 00 00 	movl   $0x4f,(%esp)
   16309:	e8 ad ae ff ff       	call   111bb <Set_Current_Attr>
   1630e:	a1 6c 5e 02 00       	mov    0x25e6c,%eax
   16313:	89 44 24 18          	mov    %eax,0x18(%esp)
   16317:	8b 45 04             	mov    0x4(%ebp),%eax
   1631a:	89 44 24 14          	mov    %eax,0x14(%esp)
   1631e:	c7 44 24 10 4b 00 00 	movl   $0x4b,0x10(%esp)
   16325:	00 
   16326:	c7 44 24 0c d1 fe 01 	movl   $0x1fed1,0xc(%esp)
   1632d:	00 
   1632e:	c7 44 24 08 34 00 02 	movl   $0x20034,0x8(%esp)
   16335:	00 
   16336:	c7 44 24 04 13 02 02 	movl   $0x20213,0x4(%esp)
   1633d:	00 
   1633e:	c7 04 24 b4 ee 01 00 	movl   $0x1eeb4,(%esp)
   16345:	e8 1c ad ff ff       	call   11066 <Print>
   1634a:	e9 c6 fe ff ff       	jmp    16215 <Reaper+0x181>
   1634f:	8b 43 38             	mov    0x38(%ebx),%eax
   16352:	85 c0                	test   %eax,%eax
   16354:	0f 85 bd fe ff ff    	jne    16217 <Reaper+0x183>
   1635a:	8d b6 00 00 00 00    	lea    0x0(%esi),%esi
   16360:	e9 bd fe ff ff       	jmp    16222 <Reaper+0x18e>

00016365 <Wake_Up>:
   16365:	55                   	push   %ebp
   16366:	89 e5                	mov    %esp,%ebp
   16368:	57                   	push   %edi
   16369:	56                   	push   %esi
   1636a:	53                   	push   %ebx
   1636b:	83 ec 2c             	sub    $0x2c,%esp
   1636e:	8b 7d 08             	mov    0x8(%ebp),%edi
   16371:	8b 1f                	mov    (%edi),%ebx
   16373:	e8 c7 9e ff ff       	call   1023f <Interrupts_Enabled>
   16378:	84 c0                	test   %al,%al
   1637a:	75 06                	jne    16382 <Wake_Up+0x1d>
   1637c:	85 db                	test   %ebx,%ebx
   1637e:	75 4c                	jne    163cc <Wake_Up+0x67>
   16380:	eb 5d                	jmp    163df <Wake_Up+0x7a>
   16382:	c7 04 24 4f 00 00 00 	movl   $0x4f,(%esp)
   16389:	e8 2d ae ff ff       	call   111bb <Set_Current_Attr>
   1638e:	a1 6c 5e 02 00       	mov    0x25e6c,%eax
   16393:	89 44 24 18          	mov    %eax,0x18(%esp)
   16397:	8b 45 04             	mov    0x4(%ebp),%eax
   1639a:	89 44 24 14          	mov    %eax,0x14(%esp)
   1639e:	c7 44 24 10 34 03 00 	movl   $0x334,0x10(%esp)
   163a5:	00 
   163a6:	c7 44 24 0c b9 fe 01 	movl   $0x1feb9,0xc(%esp)
   163ad:	00 
   163ae:	c7 44 24 08 d2 ef 01 	movl   $0x1efd2,0x8(%esp)
   163b5:	00 
   163b6:	c7 44 24 04 10 01 02 	movl   $0x20110,0x4(%esp)
   163bd:	00 
   163be:	c7 04 24 b4 ee 01 00 	movl   $0x1eeb4,(%esp)
   163c5:	e8 9c ac ff ff       	call   11066 <Print>
   163ca:	eb fe                	jmp    163ca <Wake_Up+0x65>
   163cc:	8b 73 10             	mov    0x10(%ebx),%esi
   163cf:	89 1c 24             	mov    %ebx,(%esp)
   163d2:	e8 c7 f1 ff ff       	call   1559e <Make_Runnable>
   163d7:	85 f6                	test   %esi,%esi
   163d9:	74 04                	je     163df <Wake_Up+0x7a>
   163db:	89 f3                	mov    %esi,%ebx
   163dd:	eb ed                	jmp    163cc <Wake_Up+0x67>
   163df:	c7 47 04 00 00 00 00 	movl   $0x0,0x4(%edi)
   163e6:	c7 07 00 00 00 00    	movl   $0x0,(%edi)
   163ec:	83 c4 2c             	add    $0x2c,%esp
   163ef:	5b                   	pop    %ebx
   163f0:	5e                   	pop    %esi
   163f1:	5f                   	pop    %edi
   163f2:	5d                   	pop    %ebp
   163f3:	c3                   	ret    

000163f4 <Detach_Thread>:
   163f4:	55                   	push   %ebp
   163f5:	89 e5                	mov    %esp,%ebp
   163f7:	53                   	push   %ebx
   163f8:	83 ec 24             	sub    $0x24,%esp
   163fb:	89 c3                	mov    %eax,%ebx
   163fd:	e8 3d 9e ff ff       	call   1023f <Interrupts_Enabled>
   16402:	84 c0                	test   %al,%al
   16404:	74 4a                	je     16450 <Detach_Thread+0x5c>
   16406:	c7 04 24 4f 00 00 00 	movl   $0x4f,(%esp)
   1640d:	e8 a9 ad ff ff       	call   111bb <Set_Current_Attr>
   16412:	a1 6c 5e 02 00       	mov    0x25e6c,%eax
   16417:	89 44 24 18          	mov    %eax,0x18(%esp)
   1641b:	8b 45 04             	mov    0x4(%ebp),%eax
   1641e:	89 44 24 14          	mov    %eax,0x14(%esp)
   16422:	c7 44 24 10 c4 00 00 	movl   $0xc4,0x10(%esp)
   16429:	00 
   1642a:	c7 44 24 0c b9 fe 01 	movl   $0x1feb9,0xc(%esp)
   16431:	00 
   16432:	c7 44 24 08 d2 ef 01 	movl   $0x1efd2,0x8(%esp)
   16439:	00 
   1643a:	c7 44 24 04 4e 01 02 	movl   $0x2014e,0x4(%esp)
   16441:	00 
   16442:	c7 04 24 b4 ee 01 00 	movl   $0x1eeb4,(%esp)
   16449:	e8 18 ac ff ff       	call   11066 <Print>
   1644e:	eb fe                	jmp    1644e <Detach_Thread+0x5a>
   16450:	8b 43 20             	mov    0x20(%ebx),%eax
   16453:	85 c0                	test   %eax,%eax
   16455:	7f 4a                	jg     164a1 <Detach_Thread+0xad>
   16457:	c7 04 24 4f 00 00 00 	movl   $0x4f,(%esp)
   1645e:	e8 58 ad ff ff       	call   111bb <Set_Current_Attr>
   16463:	a1 6c 5e 02 00       	mov    0x25e6c,%eax
   16468:	89 44 24 18          	mov    %eax,0x18(%esp)
   1646c:	8b 45 04             	mov    0x4(%ebp),%eax
   1646f:	89 44 24 14          	mov    %eax,0x14(%esp)
   16473:	c7 44 24 10 c5 00 00 	movl   $0xc5,0x10(%esp)
   1647a:	00 
   1647b:	c7 44 24 0c b9 fe 01 	movl   $0x1feb9,0xc(%esp)
   16482:	00 
   16483:	c7 44 24 08 0d ff 01 	movl   $0x1ff0d,0x8(%esp)
   1648a:	00 
   1648b:	c7 44 24 04 4e 01 02 	movl   $0x2014e,0x4(%esp)
   16492:	00 
   16493:	c7 04 24 b4 ee 01 00 	movl   $0x1eeb4,(%esp)
   1649a:	e8 c7 ab ff ff       	call   11066 <Print>
   1649f:	eb fe                	jmp    1649f <Detach_Thread+0xab>
   164a1:	83 e8 01             	sub    $0x1,%eax
   164a4:	89 43 20             	mov    %eax,0x20(%ebx)
   164a7:	85 c0                	test   %eax,%eax
   164a9:	0f 85 05 01 00 00    	jne    165b4 <Detach_Thread+0x1c0>
   164af:	e8 8b 9d ff ff       	call   1023f <Interrupts_Enabled>
   164b4:	84 c0                	test   %al,%al
   164b6:	74 4a                	je     16502 <Detach_Thread+0x10e>
   164b8:	c7 04 24 4f 00 00 00 	movl   $0x4f,(%esp)
   164bf:	e8 f7 ac ff ff       	call   111bb <Set_Current_Attr>
   164c4:	a1 6c 5e 02 00       	mov    0x25e6c,%eax
   164c9:	89 44 24 18          	mov    %eax,0x18(%esp)
   164cd:	8b 45 04             	mov    0x4(%ebp),%eax
   164d0:	89 44 24 14          	mov    %eax,0x14(%esp)
   164d4:	c7 44 24 10 ba 00 00 	movl   $0xba,0x10(%esp)
   164db:	00 
   164dc:	c7 44 24 0c b9 fe 01 	movl   $0x1feb9,0xc(%esp)
   164e3:	00 
   164e4:	c7 44 24 08 d2 ef 01 	movl   $0x1efd2,0x8(%esp)
   164eb:	00 
   164ec:	c7 44 24 04 42 01 02 	movl   $0x20142,0x4(%esp)
   164f3:	00 
   164f4:	c7 04 24 b4 ee 01 00 	movl   $0x1eeb4,(%esp)
   164fb:	e8 66 ab ff ff       	call   11066 <Print>
   16500:	eb fe                	jmp    16500 <Detach_Thread+0x10c>
   16502:	a1 2c 53 02 00       	mov    0x2532c,%eax
   16507:	85 c0                	test   %eax,%eax
   16509:	0f 84 90 00 00 00    	je     1659f <Detach_Thread+0x1ab>
   1650f:	39 c3                	cmp    %eax,%ebx
   16511:	75 06                	jne    16519 <Detach_Thread+0x125>
   16513:	eb 40                	jmp    16555 <Detach_Thread+0x161>
   16515:	39 c3                	cmp    %eax,%ebx
   16517:	74 3c                	je     16555 <Detach_Thread+0x161>
   16519:	8b 40 10             	mov    0x10(%eax),%eax
   1651c:	85 c0                	test   %eax,%eax
   1651e:	66 90                	xchg   %ax,%ax
   16520:	75 f3                	jne    16515 <Detach_Thread+0x121>
   16522:	eb 7b                	jmp    1659f <Detach_Thread+0x1ab>
   16524:	eb fe                	jmp    16524 <Detach_Thread+0x130>
   16526:	89 1d 30 53 02 00    	mov    %ebx,0x25330
   1652c:	89 1d 2c 53 02 00    	mov    %ebx,0x2532c
   16532:	c7 43 0c 00 00 00 00 	movl   $0x0,0xc(%ebx)
   16539:	eb 0c                	jmp    16547 <Detach_Thread+0x153>
   1653b:	89 58 10             	mov    %ebx,0x10(%eax)
   1653e:	89 43 0c             	mov    %eax,0xc(%ebx)
   16541:	89 1d 30 53 02 00    	mov    %ebx,0x25330
   16547:	c7 04 24 24 53 02 00 	movl   $0x25324,(%esp)
   1654e:	e8 12 fe ff ff       	call   16365 <Wake_Up>
   16553:	eb 5f                	jmp    165b4 <Detach_Thread+0x1c0>
   16555:	c7 04 24 4f 00 00 00 	movl   $0x4f,(%esp)
   1655c:	e8 5a ac ff ff       	call   111bb <Set_Current_Attr>
   16561:	a1 6c 5e 02 00       	mov    0x25e6c,%eax
   16566:	89 44 24 18          	mov    %eax,0x18(%esp)
   1656a:	8b 45 04             	mov    0x4(%ebp),%eax
   1656d:	89 44 24 14          	mov    %eax,0x14(%esp)
   16571:	c7 44 24 10 4a 00 00 	movl   $0x4a,0x10(%esp)
   16578:	00 
   16579:	c7 44 24 0c d1 fe 01 	movl   $0x1fed1,0xc(%esp)
   16580:	00 
   16581:	c7 44 24 08 d8 ff 01 	movl   $0x1ffd8,0x8(%esp)
   16588:	00 
   16589:	c7 44 24 04 bc 01 02 	movl   $0x201bc,0x4(%esp)
   16590:	00 
   16591:	c7 04 24 b4 ee 01 00 	movl   $0x1eeb4,(%esp)
   16598:	e8 c9 aa ff ff       	call   11066 <Print>
   1659d:	eb 85                	jmp    16524 <Detach_Thread+0x130>
   1659f:	c7 43 10 00 00 00 00 	movl   $0x0,0x10(%ebx)
   165a6:	a1 30 53 02 00       	mov    0x25330,%eax
   165ab:	85 c0                	test   %eax,%eax
   165ad:	75 8c                	jne    1653b <Detach_Thread+0x147>
   165af:	e9 72 ff ff ff       	jmp    16526 <Detach_Thread+0x132>
   165b4:	83 c4 24             	add    $0x24,%esp
   165b7:	5b                   	pop    %ebx
   165b8:	5d                   	pop    %ebp
   165b9:	c3                   	ret    

000165ba <Join>:
   165ba:	55                   	push   %ebp
   165bb:	89 e5                	mov    %esp,%ebp
   165bd:	56                   	push   %esi
   165be:	53                   	push   %ebx
   165bf:	83 ec 20             	sub    $0x20,%esp
   165c2:	8b 5d 08             	mov    0x8(%ebp),%ebx
   165c5:	e8 75 9c ff ff       	call   1023f <Interrupts_Enabled>
   165ca:	84 c0                	test   %al,%al
   165cc:	75 4a                	jne    16618 <Join+0x5e>
   165ce:	c7 04 24 4f 00 00 00 	movl   $0x4f,(%esp)
   165d5:	e8 e1 ab ff ff       	call   111bb <Set_Current_Attr>
   165da:	a1 6c 5e 02 00       	mov    0x25e6c,%eax
   165df:	89 44 24 18          	mov    %eax,0x18(%esp)
   165e3:	8b 45 04             	mov    0x4(%ebp),%eax
   165e6:	89 44 24 14          	mov    %eax,0x14(%esp)
   165ea:	c7 44 24 10 db 02 00 	movl   $0x2db,0x10(%esp)
   165f1:	00 
   165f2:	c7 44 24 0c b9 fe 01 	movl   $0x1feb9,0xc(%esp)
   165f9:	00 
   165fa:	c7 44 24 08 d3 ef 01 	movl   $0x1efd3,0x8(%esp)
   16601:	00 
   16602:	c7 44 24 04 3d 01 02 	movl   $0x2013d,0x4(%esp)
   16609:	00 
   1660a:	c7 04 24 b4 ee 01 00 	movl   $0x1eeb4,(%esp)
   16611:	e8 50 aa ff ff       	call   11066 <Print>
   16616:	eb fe                	jmp    16616 <Join+0x5c>
   16618:	a1 6c 5e 02 00       	mov    0x25e6c,%eax
   1661d:	39 43 1c             	cmp    %eax,0x1c(%ebx)
   16620:	74 4a                	je     1666c <Join+0xb2>
   16622:	c7 04 24 4f 00 00 00 	movl   $0x4f,(%esp)
   16629:	e8 8d ab ff ff       	call   111bb <Set_Current_Attr>
   1662e:	a1 6c 5e 02 00       	mov    0x25e6c,%eax
   16633:	89 44 24 18          	mov    %eax,0x18(%esp)
   16637:	8b 45 04             	mov    0x4(%ebp),%eax
   1663a:	89 44 24 14          	mov    %eax,0x14(%esp)
   1663e:	c7 44 24 10 de 02 00 	movl   $0x2de,0x10(%esp)
   16645:	00 
   16646:	c7 44 24 0c b9 fe 01 	movl   $0x1feb9,0xc(%esp)
   1664d:	00 
   1664e:	c7 44 24 08 64 00 02 	movl   $0x20064,0x8(%esp)
   16655:	00 
   16656:	c7 44 24 04 3d 01 02 	movl   $0x2013d,0x4(%esp)
   1665d:	00 
   1665e:	c7 04 24 b4 ee 01 00 	movl   $0x1eeb4,(%esp)
   16665:	e8 fc a9 ff ff       	call   11066 <Print>
   1666a:	eb fe                	jmp    1666a <Join+0xb0>
   1666c:	e8 ce 9b ff ff       	call   1023f <Interrupts_Enabled>
   16671:	84 c0                	test   %al,%al
   16673:	75 4a                	jne    166bf <Join+0x105>
   16675:	c7 04 24 4f 00 00 00 	movl   $0x4f,(%esp)
   1667c:	e8 3a ab ff ff       	call   111bb <Set_Current_Attr>
   16681:	a1 6c 5e 02 00       	mov    0x25e6c,%eax
   16686:	89 44 24 18          	mov    %eax,0x18(%esp)
   1668a:	8b 45 04             	mov    0x4(%ebp),%eax
   1668d:	89 44 24 14          	mov    %eax,0x14(%esp)
   16691:	c7 44 24 10 e0 02 00 	movl   $0x2e0,0x10(%esp)
   16698:	00 
   16699:	c7 44 24 0c b9 fe 01 	movl   $0x1feb9,0xc(%esp)
   166a0:	00 
   166a1:	c7 44 24 08 d3 ef 01 	movl   $0x1efd3,0x8(%esp)
   166a8:	00 
   166a9:	c7 44 24 04 3d 01 02 	movl   $0x2013d,0x4(%esp)
   166b0:	00 
   166b1:	c7 04 24 b4 ee 01 00 	movl   $0x1eeb4,(%esp)
   166b8:	e8 a9 a9 ff ff       	call   11066 <Print>
   166bd:	eb fe                	jmp    166bd <Join+0x103>
   166bf:	fa                   	cli    
   166c0:	80 7b 24 00          	cmpb   $0x0,0x24(%ebx)
   166c4:	74 11                	je     166d7 <Join+0x11d>
   166c6:	8d 73 28             	lea    0x28(%ebx),%esi
   166c9:	89 34 24             	mov    %esi,(%esp)
   166cc:	e8 b3 f8 ff ff       	call   15f84 <Wait>
   166d1:	80 7b 24 00          	cmpb   $0x0,0x24(%ebx)
   166d5:	75 f2                	jne    166c9 <Join+0x10f>
   166d7:	8b 73 30             	mov    0x30(%ebx),%esi
   166da:	89 d8                	mov    %ebx,%eax
   166dc:	e8 13 fd ff ff       	call   163f4 <Detach_Thread>
   166e1:	e8 59 9b ff ff       	call   1023f <Interrupts_Enabled>
   166e6:	84 c0                	test   %al,%al
   166e8:	74 4a                	je     16734 <Join+0x17a>
   166ea:	c7 04 24 4f 00 00 00 	movl   $0x4f,(%esp)
   166f1:	e8 c5 aa ff ff       	call   111bb <Set_Current_Attr>
   166f6:	a1 6c 5e 02 00       	mov    0x25e6c,%eax
   166fb:	89 44 24 18          	mov    %eax,0x18(%esp)
   166ff:	8b 45 04             	mov    0x4(%ebp),%eax
   16702:	89 44 24 14          	mov    %eax,0x14(%esp)
   16706:	c7 44 24 10 ed 02 00 	movl   $0x2ed,0x10(%esp)
   1670d:	00 
   1670e:	c7 44 24 0c b9 fe 01 	movl   $0x1feb9,0xc(%esp)
   16715:	00 
   16716:	c7 44 24 08 d2 ef 01 	movl   $0x1efd2,0x8(%esp)
   1671d:	00 
   1671e:	c7 44 24 04 3d 01 02 	movl   $0x2013d,0x4(%esp)
   16725:	00 
   16726:	c7 04 24 b4 ee 01 00 	movl   $0x1eeb4,(%esp)
   1672d:	e8 34 a9 ff ff       	call   11066 <Print>
   16732:	eb fe                	jmp    16732 <Join+0x178>
   16734:	fb                   	sti    
   16735:	89 f0                	mov    %esi,%eax
   16737:	83 c4 20             	add    $0x20,%esp
   1673a:	5b                   	pop    %ebx
   1673b:	5e                   	pop    %esi
   1673c:	5d                   	pop    %ebp
   1673d:	c3                   	ret    

0001673e <Exit>:
   1673e:	55                   	push   %ebp
   1673f:	89 e5                	mov    %esp,%ebp
   16741:	57                   	push   %edi
   16742:	56                   	push   %esi
   16743:	53                   	push   %ebx
   16744:	83 ec 3c             	sub    $0x3c,%esp
   16747:	a1 6c 5e 02 00       	mov    0x25e6c,%eax
   1674c:	89 45 e0             	mov    %eax,-0x20(%ebp)
   1674f:	e8 eb 9a ff ff       	call   1023f <Interrupts_Enabled>
   16754:	84 c0                	test   %al,%al
   16756:	74 55                	je     167ad <Exit+0x6f>
   16758:	e8 e2 9a ff ff       	call   1023f <Interrupts_Enabled>
   1675d:	84 c0                	test   %al,%al
   1675f:	90                   	nop
   16760:	75 4a                	jne    167ac <Exit+0x6e>
   16762:	c7 04 24 4f 00 00 00 	movl   $0x4f,(%esp)
   16769:	e8 4d aa ff ff       	call   111bb <Set_Current_Attr>
   1676e:	a1 6c 5e 02 00       	mov    0x25e6c,%eax
   16773:	89 44 24 18          	mov    %eax,0x18(%esp)
   16777:	8b 45 04             	mov    0x4(%ebp),%eax
   1677a:	89 44 24 14          	mov    %eax,0x14(%esp)
   1677e:	c7 44 24 10 b8 02 00 	movl   $0x2b8,0x10(%esp)
   16785:	00 
   16786:	c7 44 24 0c b9 fe 01 	movl   $0x1feb9,0xc(%esp)
   1678d:	00 
   1678e:	c7 44 24 08 d3 ef 01 	movl   $0x1efd3,0x8(%esp)
   16795:	00 
   16796:	c7 44 24 04 68 01 02 	movl   $0x20168,0x4(%esp)
   1679d:	00 
   1679e:	c7 04 24 b4 ee 01 00 	movl   $0x1eeb4,(%esp)
   167a5:	e8 bc a8 ff ff       	call   11066 <Print>
   167aa:	eb fe                	jmp    167aa <Exit+0x6c>
   167ac:	fa                   	cli    
   167ad:	8b 45 08             	mov    0x8(%ebp),%eax
   167b0:	8b 4d e0             	mov    -0x20(%ebp),%ecx
   167b3:	89 41 30             	mov    %eax,0x30(%ecx)
   167b6:	c6 41 24 00          	movb   $0x0,0x24(%ecx)
   167ba:	a1 6c 5e 02 00       	mov    0x25e6c,%eax
   167bf:	89 45 e4             	mov    %eax,-0x1c(%ebp)
   167c2:	e8 78 9a ff ff       	call   1023f <Interrupts_Enabled>
   167c7:	84 c0                	test   %al,%al
   167c9:	75 11                	jne    167dc <Exit+0x9e>
   167cb:	c7 45 dc 04 00 00 00 	movl   $0x4,-0x24(%ebp)
   167d2:	b8 00 00 00 00       	mov    $0x0,%eax
   167d7:	e9 3f 01 00 00       	jmp    1691b <Exit+0x1dd>
   167dc:	c7 04 24 4f 00 00 00 	movl   $0x4f,(%esp)
   167e3:	e8 d3 a9 ff ff       	call   111bb <Set_Current_Attr>
   167e8:	a1 6c 5e 02 00       	mov    0x25e6c,%eax
   167ed:	89 44 24 18          	mov    %eax,0x18(%esp)
   167f1:	8b 45 04             	mov    0x4(%ebp),%eax
   167f4:	89 44 24 14          	mov    %eax,0x14(%esp)
   167f8:	c7 44 24 10 c6 01 00 	movl   $0x1c6,0x10(%esp)
   167ff:	00 
   16800:	c7 44 24 0c b9 fe 01 	movl   $0x1feb9,0xc(%esp)
   16807:	00 
   16808:	c7 44 24 08 d2 ef 01 	movl   $0x1efd2,0x8(%esp)
   1680f:	00 
   16810:	c7 44 24 04 5c 01 02 	movl   $0x2015c,0x4(%esp)
   16817:	00 
   16818:	c7 04 24 b4 ee 01 00 	movl   $0x1eeb4,(%esp)
   1681f:	e8 42 a8 ff ff       	call   11066 <Print>
   16824:	eb fe                	jmp    16824 <Exit+0xe6>
   16826:	8b 55 e4             	mov    -0x1c(%ebp),%edx
   16829:	8b 74 9a 40          	mov    0x40(%edx,%ebx,4),%esi
   1682d:	85 f6                	test   %esi,%esi
   1682f:	0f 84 cd 00 00 00    	je     16902 <Exit+0x1c4>
   16835:	83 3c 9d 20 51 02 00 	cmpl   $0x0,0x25120(,%ebx,4)
   1683c:	00 
   1683d:	0f 84 bf 00 00 00    	je     16902 <Exit+0x1c4>
   16843:	c7 44 9a 40 00 00 00 	movl   $0x0,0x40(%edx,%ebx,4)
   1684a:	00 
   1684b:	e8 ef 99 ff ff       	call   1023f <Interrupts_Enabled>
   16850:	84 c0                	test   %al,%al
   16852:	74 4a                	je     1689e <Exit+0x160>
   16854:	c7 04 24 4f 00 00 00 	movl   $0x4f,(%esp)
   1685b:	e8 5b a9 ff ff       	call   111bb <Set_Current_Attr>
   16860:	a1 6c 5e 02 00       	mov    0x25e6c,%eax
   16865:	89 44 24 18          	mov    %eax,0x18(%esp)
   16869:	8b 45 04             	mov    0x4(%ebp),%eax
   1686c:	89 44 24 14          	mov    %eax,0x14(%esp)
   16870:	c7 44 24 10 d2 01 00 	movl   $0x1d2,0x10(%esp)
   16877:	00 
   16878:	c7 44 24 0c b9 fe 01 	movl   $0x1feb9,0xc(%esp)
   1687f:	00 
   16880:	c7 44 24 08 d2 ef 01 	movl   $0x1efd2,0x8(%esp)
   16887:	00 
   16888:	c7 44 24 04 5c 01 02 	movl   $0x2015c,0x4(%esp)
   1688f:	00 
   16890:	c7 04 24 b4 ee 01 00 	movl   $0x1eeb4,(%esp)
   16897:	e8 ca a7 ff ff       	call   11066 <Print>
   1689c:	eb fe                	jmp    1689c <Exit+0x15e>
   1689e:	fb                   	sti    
   1689f:	89 34 24             	mov    %esi,(%esp)
   168a2:	ff 14 9d 20 51 02 00 	call   *0x25120(,%ebx,4)
   168a9:	e8 91 99 ff ff       	call   1023f <Interrupts_Enabled>
   168ae:	84 c0                	test   %al,%al
   168b0:	75 4a                	jne    168fc <Exit+0x1be>
   168b2:	c7 04 24 4f 00 00 00 	movl   $0x4f,(%esp)
   168b9:	e8 fd a8 ff ff       	call   111bb <Set_Current_Attr>
   168be:	a1 6c 5e 02 00       	mov    0x25e6c,%eax
   168c3:	89 44 24 18          	mov    %eax,0x18(%esp)
   168c7:	8b 45 04             	mov    0x4(%ebp),%eax
   168ca:	89 44 24 14          	mov    %eax,0x14(%esp)
   168ce:	c7 44 24 10 d4 01 00 	movl   $0x1d4,0x10(%esp)
   168d5:	00 
   168d6:	c7 44 24 0c b9 fe 01 	movl   $0x1feb9,0xc(%esp)
   168dd:	00 
   168de:	c7 44 24 08 d3 ef 01 	movl   $0x1efd3,0x8(%esp)
   168e5:	00 
   168e6:	c7 44 24 04 5c 01 02 	movl   $0x2015c,0x4(%esp)
   168ed:	00 
   168ee:	c7 04 24 b4 ee 01 00 	movl   $0x1eeb4,(%esp)
   168f5:	e8 6c a7 ff ff       	call   11066 <Print>
   168fa:	eb fe                	jmp    168fa <Exit+0x1bc>
   168fc:	fa                   	cli    
   168fd:	b8 01 00 00 00       	mov    $0x1,%eax
   16902:	83 c3 01             	add    $0x1,%ebx
   16905:	81 fb 80 00 00 00    	cmp    $0x80,%ebx
   1690b:	0f 85 15 ff ff ff    	jne    16826 <Exit+0xe8>
   16911:	85 c0                	test   %eax,%eax
   16913:	74 10                	je     16925 <Exit+0x1e7>
   16915:	83 6d dc 01          	subl   $0x1,-0x24(%ebp)
   16919:	74 0a                	je     16925 <Exit+0x1e7>
   1691b:	bb 00 00 00 00       	mov    $0x0,%ebx
   16920:	e9 01 ff ff ff       	jmp    16826 <Exit+0xe8>
   16925:	8b 45 e0             	mov    -0x20(%ebp),%eax
   16928:	83 c0 28             	add    $0x28,%eax
   1692b:	89 04 24             	mov    %eax,(%esp)
   1692e:	e8 32 fa ff ff       	call   16365 <Wake_Up>
   16933:	a1 6c 5e 02 00       	mov    0x25e6c,%eax
   16938:	e8 b7 fa ff ff       	call   163f4 <Detach_Thread>
   1693d:	e8 63 f3 ff ff       	call   15ca5 <Schedule>
   16942:	c7 04 24 4f 00 00 00 	movl   $0x4f,(%esp)
   16949:	e8 6d a8 ff ff       	call   111bb <Set_Current_Attr>
   1694e:	a1 6c 5e 02 00       	mov    0x25e6c,%eax
   16953:	89 44 24 18          	mov    %eax,0x18(%esp)
   16957:	8b 45 04             	mov    0x4(%ebp),%eax
   1695a:	89 44 24 14          	mov    %eax,0x14(%esp)
   1695e:	c7 44 24 10 cf 02 00 	movl   $0x2cf,0x10(%esp)
   16965:	00 
   16966:	c7 44 24 0c b9 fe 01 	movl   $0x1feb9,0xc(%esp)
   1696d:	00 
   1696e:	c7 44 24 08 6b f4 01 	movl   $0x1f46b,0x8(%esp)
   16975:	00 
   16976:	c7 44 24 04 68 01 02 	movl   $0x20168,0x4(%esp)
   1697d:	00 
   1697e:	c7 04 24 b4 ee 01 00 	movl   $0x1eeb4,(%esp)
   16985:	e8 dc a6 ff ff       	call   11066 <Print>
   1698a:	eb fe                	jmp    1698a <Exit+0x24c>

0001698c <Shutdown_Thread>:
   1698c:	55                   	push   %ebp
   1698d:	89 e5                	mov    %esp,%ebp
   1698f:	83 ec 18             	sub    $0x18,%esp
   16992:	c7 04 24 00 00 00 00 	movl   $0x0,(%esp)
   16999:	e8 a0 fd ff ff       	call   1673e <Exit>

0001699e <Wake_Up_One>:
   1699e:	55                   	push   %ebp
   1699f:	89 e5                	mov    %esp,%ebp
   169a1:	56                   	push   %esi
   169a2:	53                   	push   %ebx
   169a3:	83 ec 20             	sub    $0x20,%esp
   169a6:	8b 5d 08             	mov    0x8(%ebp),%ebx
   169a9:	e8 91 98 ff ff       	call   1023f <Interrupts_Enabled>
   169ae:	84 c0                	test   %al,%al
   169b0:	74 4a                	je     169fc <Wake_Up_One+0x5e>
   169b2:	c7 04 24 4f 00 00 00 	movl   $0x4f,(%esp)
   169b9:	e8 fd a7 ff ff       	call   111bb <Set_Current_Attr>
   169be:	a1 6c 5e 02 00       	mov    0x25e6c,%eax
   169c3:	89 44 24 18          	mov    %eax,0x18(%esp)
   169c7:	8b 45 04             	mov    0x4(%ebp),%eax
   169ca:	89 44 24 14          	mov    %eax,0x14(%esp)
   169ce:	c7 44 24 10 4d 03 00 	movl   $0x34d,0x10(%esp)
   169d5:	00 
   169d6:	c7 44 24 0c b9 fe 01 	movl   $0x1feb9,0xc(%esp)
   169dd:	00 
   169de:	c7 44 24 08 d2 ef 01 	movl   $0x1efd2,0x8(%esp)
   169e5:	00 
   169e6:	c7 44 24 04 04 01 02 	movl   $0x20104,0x4(%esp)
   169ed:	00 
   169ee:	c7 04 24 b4 ee 01 00 	movl   $0x1eeb4,(%esp)
   169f5:	e8 6c a6 ff ff       	call   11066 <Print>
   169fa:	eb fe                	jmp    169fa <Wake_Up_One+0x5c>
   169fc:	8b 13                	mov    (%ebx),%edx
   169fe:	89 d1                	mov    %edx,%ecx
   16a00:	89 d0                	mov    %edx,%eax
   16a02:	85 d2                	test   %edx,%edx
   16a04:	75 16                	jne    16a1c <Wake_Up_One+0x7e>
   16a06:	e9 c7 00 00 00       	jmp    16ad2 <Wake_Up_One+0x134>
   16a0b:	85 c0                	test   %eax,%eax
   16a0d:	74 0b                	je     16a1a <Wake_Up_One+0x7c>
   16a0f:	8b 71 08             	mov    0x8(%ecx),%esi
   16a12:	3b 70 08             	cmp    0x8(%eax),%esi
   16a15:	0f 4f c1             	cmovg  %ecx,%eax
   16a18:	eb 02                	jmp    16a1c <Wake_Up_One+0x7e>
   16a1a:	89 c8                	mov    %ecx,%eax
   16a1c:	8b 49 10             	mov    0x10(%ecx),%ecx
   16a1f:	85 c9                	test   %ecx,%ecx
   16a21:	75 e8                	jne    16a0b <Wake_Up_One+0x6d>
   16a23:	85 c0                	test   %eax,%eax
   16a25:	0f 84 a7 00 00 00    	je     16ad2 <Wake_Up_One+0x134>
   16a2b:	39 c2                	cmp    %eax,%edx
   16a2d:	75 0e                	jne    16a3d <Wake_Up_One+0x9f>
   16a2f:	90                   	nop
   16a30:	e9 8b 00 00 00       	jmp    16ac0 <Wake_Up_One+0x122>
   16a35:	39 d0                	cmp    %edx,%eax
   16a37:	0f 84 83 00 00 00    	je     16ac0 <Wake_Up_One+0x122>
   16a3d:	8b 52 10             	mov    0x10(%edx),%edx
   16a40:	85 d2                	test   %edx,%edx
   16a42:	75 f1                	jne    16a35 <Wake_Up_One+0x97>
   16a44:	eb 30                	jmp    16a76 <Wake_Up_One+0xd8>
   16a46:	eb fe                	jmp    16a46 <Wake_Up_One+0xa8>
   16a48:	8b 48 10             	mov    0x10(%eax),%ecx
   16a4b:	89 4a 10             	mov    %ecx,0x10(%edx)
   16a4e:	66 90                	xchg   %ax,%ax
   16a50:	eb 05                	jmp    16a57 <Wake_Up_One+0xb9>
   16a52:	8b 50 10             	mov    0x10(%eax),%edx
   16a55:	89 13                	mov    %edx,(%ebx)
   16a57:	8b 50 10             	mov    0x10(%eax),%edx
   16a5a:	85 d2                	test   %edx,%edx
   16a5c:	74 08                	je     16a66 <Wake_Up_One+0xc8>
   16a5e:	8b 48 0c             	mov    0xc(%eax),%ecx
   16a61:	89 4a 0c             	mov    %ecx,0xc(%edx)
   16a64:	eb 06                	jmp    16a6c <Wake_Up_One+0xce>
   16a66:	8b 50 0c             	mov    0xc(%eax),%edx
   16a69:	89 53 04             	mov    %edx,0x4(%ebx)
   16a6c:	89 04 24             	mov    %eax,(%esp)
   16a6f:	e8 2a eb ff ff       	call   1559e <Make_Runnable>
   16a74:	eb 5c                	jmp    16ad2 <Wake_Up_One+0x134>
   16a76:	c7 04 24 4f 00 00 00 	movl   $0x4f,(%esp)
   16a7d:	e8 39 a7 ff ff       	call   111bb <Set_Current_Attr>
   16a82:	a1 6c 5e 02 00       	mov    0x25e6c,%eax
   16a87:	89 44 24 18          	mov    %eax,0x18(%esp)
   16a8b:	8b 45 04             	mov    0x4(%ebp),%eax
   16a8e:	89 44 24 14          	mov    %eax,0x14(%esp)
   16a92:	c7 44 24 10 4a 00 00 	movl   $0x4a,0x10(%esp)
   16a99:	00 
   16a9a:	c7 44 24 0c d1 fe 01 	movl   $0x1fed1,0xc(%esp)
   16aa1:	00 
   16aa2:	c7 44 24 08 08 00 02 	movl   $0x20008,0x8(%esp)
   16aa9:	00 
   16aaa:	c7 44 24 04 7c 01 02 	movl   $0x2017c,0x4(%esp)
   16ab1:	00 
   16ab2:	c7 04 24 b4 ee 01 00 	movl   $0x1eeb4,(%esp)
   16ab9:	e8 a8 a5 ff ff       	call   11066 <Print>
   16abe:	eb 86                	jmp    16a46 <Wake_Up_One+0xa8>
   16ac0:	8b 50 0c             	mov    0xc(%eax),%edx
   16ac3:	85 d2                	test   %edx,%edx
   16ac5:	0f 85 7d ff ff ff    	jne    16a48 <Wake_Up_One+0xaa>
   16acb:	90                   	nop
   16acc:	8d 74 26 00          	lea    0x0(%esi,%eiz,1),%esi
   16ad0:	eb 80                	jmp    16a52 <Wake_Up_One+0xb4>
   16ad2:	83 c4 20             	add    $0x20,%esp
   16ad5:	5b                   	pop    %ebx
   16ad6:	5e                   	pop    %esi
   16ad7:	5d                   	pop    %ebp
   16ad8:	c3                   	ret    

00016ad9 <Tlocal_Create>:
   16ad9:	55                   	push   %ebp
   16ada:	89 e5                	mov    %esp,%ebp
   16adc:	56                   	push   %esi
   16add:	53                   	push   %ebx
   16ade:	83 ec 20             	sub    $0x20,%esp
   16ae1:	8b 75 08             	mov    0x8(%ebp),%esi
   16ae4:	85 f6                	test   %esi,%esi
   16ae6:	75 4a                	jne    16b32 <Tlocal_Create+0x59>
   16ae8:	c7 04 24 4f 00 00 00 	movl   $0x4f,(%esp)
   16aef:	e8 c7 a6 ff ff       	call   111bb <Set_Current_Attr>
   16af4:	a1 6c 5e 02 00       	mov    0x25e6c,%eax
   16af9:	89 44 24 18          	mov    %eax,0x18(%esp)
   16afd:	8b 45 04             	mov    0x4(%ebp),%eax
   16b00:	89 44 24 14          	mov    %eax,0x14(%esp)
   16b04:	c7 44 24 10 5d 03 00 	movl   $0x35d,0x10(%esp)
   16b0b:	00 
   16b0c:	c7 44 24 0c b9 fe 01 	movl   $0x1feb9,0xc(%esp)
   16b13:	00 
   16b14:	c7 44 24 08 23 ff 01 	movl   $0x1ff23,0x8(%esp)
   16b1b:	00 
   16b1c:	c7 44 24 04 f6 00 02 	movl   $0x200f6,0x4(%esp)
   16b23:	00 
   16b24:	c7 04 24 b4 ee 01 00 	movl   $0x1eeb4,(%esp)
   16b2b:	e8 36 a5 ff ff       	call   11066 <Print>
   16b30:	eb fe                	jmp    16b30 <Tlocal_Create+0x57>
   16b32:	e8 08 97 ff ff       	call   1023f <Interrupts_Enabled>
   16b37:	89 c3                	mov    %eax,%ebx
   16b39:	84 c0                	test   %al,%al
   16b3b:	74 54                	je     16b91 <Tlocal_Create+0xb8>
   16b3d:	e8 fd 96 ff ff       	call   1023f <Interrupts_Enabled>
   16b42:	84 c0                	test   %al,%al
   16b44:	75 4a                	jne    16b90 <Tlocal_Create+0xb7>
   16b46:	c7 04 24 4f 00 00 00 	movl   $0x4f,(%esp)
   16b4d:	e8 69 a6 ff ff       	call   111bb <Set_Current_Attr>
   16b52:	a1 6c 5e 02 00       	mov    0x25e6c,%eax
   16b57:	89 44 24 18          	mov    %eax,0x18(%esp)
   16b5b:	8b 45 04             	mov    0x4(%ebp),%eax
   16b5e:	89 44 24 14          	mov    %eax,0x14(%esp)
   16b62:	c7 44 24 10 8f 00 00 	movl   $0x8f,0x10(%esp)
   16b69:	00 
   16b6a:	c7 44 24 0c 7e f1 01 	movl   $0x1f17e,0xc(%esp)
   16b71:	00 
   16b72:	c7 44 24 08 d3 ef 01 	movl   $0x1efd3,0x8(%esp)
   16b79:	00 
   16b7a:	c7 44 24 04 2c 01 02 	movl   $0x2012c,0x4(%esp)
   16b81:	00 
   16b82:	c7 04 24 b4 ee 01 00 	movl   $0x1eeb4,(%esp)
   16b89:	e8 d8 a4 ff ff       	call   11066 <Print>
   16b8e:	eb fe                	jmp    16b8e <Tlocal_Create+0xb5>
   16b90:	fa                   	cli    
   16b91:	8b 15 20 53 02 00    	mov    0x25320,%edx
   16b97:	81 fa 80 00 00 00    	cmp    $0x80,%edx
   16b9d:	0f 84 cb 00 00 00    	je     16c6e <Tlocal_Create+0x195>
   16ba3:	8b 45 0c             	mov    0xc(%ebp),%eax
   16ba6:	89 04 95 20 51 02 00 	mov    %eax,0x25120(,%edx,4)
   16bad:	8d 42 01             	lea    0x1(%edx),%eax
   16bb0:	a3 20 53 02 00       	mov    %eax,0x25320
   16bb5:	89 16                	mov    %edx,(%esi)
   16bb7:	e8 83 96 ff ff       	call   1023f <Interrupts_Enabled>
   16bbc:	84 c0                	test   %al,%al
   16bbe:	74 4a                	je     16c0a <Tlocal_Create+0x131>
   16bc0:	c7 04 24 4f 00 00 00 	movl   $0x4f,(%esp)
   16bc7:	e8 ef a5 ff ff       	call   111bb <Set_Current_Attr>
   16bcc:	a1 6c 5e 02 00       	mov    0x25e6c,%eax
   16bd1:	89 44 24 18          	mov    %eax,0x18(%esp)
   16bd5:	8b 45 04             	mov    0x4(%ebp),%eax
   16bd8:	89 44 24 14          	mov    %eax,0x14(%esp)
   16bdc:	c7 44 24 10 99 00 00 	movl   $0x99,0x10(%esp)
   16be3:	00 
   16be4:	c7 44 24 0c 7e f1 01 	movl   $0x1f17e,0xc(%esp)
   16beb:	00 
   16bec:	c7 44 24 08 d2 ef 01 	movl   $0x1efd2,0x8(%esp)
   16bf3:	00 
   16bf4:	c7 44 24 04 1d 01 02 	movl   $0x2011d,0x4(%esp)
   16bfb:	00 
   16bfc:	c7 04 24 b4 ee 01 00 	movl   $0x1eeb4,(%esp)
   16c03:	e8 5e a4 ff ff       	call   11066 <Print>
   16c08:	eb fe                	jmp    16c08 <Tlocal_Create+0x12f>
   16c0a:	b8 00 00 00 00       	mov    $0x0,%eax
   16c0f:	84 db                	test   %bl,%bl
   16c11:	74 60                	je     16c73 <Tlocal_Create+0x19a>
   16c13:	e8 27 96 ff ff       	call   1023f <Interrupts_Enabled>
   16c18:	84 c0                	test   %al,%al
   16c1a:	74 4a                	je     16c66 <Tlocal_Create+0x18d>
   16c1c:	c7 04 24 4f 00 00 00 	movl   $0x4f,(%esp)
   16c23:	e8 93 a5 ff ff       	call   111bb <Set_Current_Attr>
   16c28:	a1 6c 5e 02 00       	mov    0x25e6c,%eax
   16c2d:	89 44 24 18          	mov    %eax,0x18(%esp)
   16c31:	8b 45 04             	mov    0x4(%ebp),%eax
   16c34:	89 44 24 14          	mov    %eax,0x14(%esp)
   16c38:	c7 44 24 10 9c 00 00 	movl   $0x9c,0x10(%esp)
   16c3f:	00 
   16c40:	c7 44 24 0c 7e f1 01 	movl   $0x1f17e,0xc(%esp)
   16c47:	00 
   16c48:	c7 44 24 08 d2 ef 01 	movl   $0x1efd2,0x8(%esp)
   16c4f:	00 
   16c50:	c7 44 24 04 1d 01 02 	movl   $0x2011d,0x4(%esp)
   16c57:	00 
   16c58:	c7 04 24 b4 ee 01 00 	movl   $0x1eeb4,(%esp)
   16c5f:	e8 02 a4 ff ff       	call   11066 <Print>
   16c64:	eb fe                	jmp    16c64 <Tlocal_Create+0x18b>
   16c66:	fb                   	sti    
   16c67:	b8 00 00 00 00       	mov    $0x0,%eax
   16c6c:	eb 05                	jmp    16c73 <Tlocal_Create+0x19a>
   16c6e:	b8 ff ff ff ff       	mov    $0xffffffff,%eax
   16c73:	83 c4 20             	add    $0x20,%esp
   16c76:	5b                   	pop    %ebx
   16c77:	5e                   	pop    %esi
   16c78:	5d                   	pop    %ebp
   16c79:	c3                   	ret    

00016c7a <Tlocal_Put>:
   16c7a:	55                   	push   %ebp
   16c7b:	89 e5                	mov    %esp,%ebp
   16c7d:	83 ec 28             	sub    $0x28,%esp
   16c80:	8b 45 08             	mov    0x8(%ebp),%eax
   16c83:	39 05 20 53 02 00    	cmp    %eax,0x25320
   16c89:	77 4a                	ja     16cd5 <Tlocal_Put+0x5b>
   16c8b:	c7 04 24 4f 00 00 00 	movl   $0x4f,(%esp)
   16c92:	e8 24 a5 ff ff       	call   111bb <Set_Current_Attr>
   16c97:	a1 6c 5e 02 00       	mov    0x25e6c,%eax
   16c9c:	89 44 24 18          	mov    %eax,0x18(%esp)
   16ca0:	8b 45 04             	mov    0x4(%ebp),%eax
   16ca3:	89 44 24 14          	mov    %eax,0x14(%esp)
   16ca7:	c7 44 24 10 71 03 00 	movl   $0x371,0x10(%esp)
   16cae:	00 
   16caf:	c7 44 24 0c b9 fe 01 	movl   $0x1feb9,0xc(%esp)
   16cb6:	00 
   16cb7:	c7 44 24 08 27 ff 01 	movl   $0x1ff27,0x8(%esp)
   16cbe:	00 
   16cbf:	c7 44 24 04 eb 00 02 	movl   $0x200eb,0x4(%esp)
   16cc6:	00 
   16cc7:	c7 04 24 b4 ee 01 00 	movl   $0x1eeb4,(%esp)
   16cce:	e8 93 a3 ff ff       	call   11066 <Print>
   16cd3:	eb fe                	jmp    16cd3 <Tlocal_Put+0x59>
   16cd5:	8b 15 6c 5e 02 00    	mov    0x25e6c,%edx
   16cdb:	83 f8 7f             	cmp    $0x7f,%eax
   16cde:	76 4a                	jbe    16d2a <Tlocal_Put+0xb0>
   16ce0:	c7 04 24 4f 00 00 00 	movl   $0x4f,(%esp)
   16ce7:	e8 cf a4 ff ff       	call   111bb <Set_Current_Attr>
   16cec:	a1 6c 5e 02 00       	mov    0x25e6c,%eax
   16cf1:	89 44 24 18          	mov    %eax,0x18(%esp)
   16cf5:	8b 45 04             	mov    0x4(%ebp),%eax
   16cf8:	89 44 24 14          	mov    %eax,0x14(%esp)
   16cfc:	c7 44 24 10 b6 01 00 	movl   $0x1b6,0x10(%esp)
   16d03:	00 
   16d04:	c7 44 24 0c b9 fe 01 	movl   $0x1feb9,0xc(%esp)
   16d0b:	00 
   16d0c:	c7 44 24 08 3e ff 01 	movl   $0x1ff3e,0x8(%esp)
   16d13:	00 
   16d14:	c7 44 24 04 d8 00 02 	movl   $0x200d8,0x4(%esp)
   16d1b:	00 
   16d1c:	c7 04 24 b4 ee 01 00 	movl   $0x1eeb4,(%esp)
   16d23:	e8 3e a3 ff ff       	call   11066 <Print>
   16d28:	eb fe                	jmp    16d28 <Tlocal_Put+0xae>
   16d2a:	8b 4d 0c             	mov    0xc(%ebp),%ecx
   16d2d:	89 4c 82 40          	mov    %ecx,0x40(%edx,%eax,4)
   16d31:	c9                   	leave  
   16d32:	c3                   	ret    

00016d33 <Tlocal_Get>:
   16d33:	55                   	push   %ebp
   16d34:	89 e5                	mov    %esp,%ebp
   16d36:	83 ec 28             	sub    $0x28,%esp
   16d39:	8b 45 08             	mov    0x8(%ebp),%eax
   16d3c:	39 05 20 53 02 00    	cmp    %eax,0x25320
   16d42:	77 4a                	ja     16d8e <Tlocal_Get+0x5b>
   16d44:	c7 04 24 4f 00 00 00 	movl   $0x4f,(%esp)
   16d4b:	e8 6b a4 ff ff       	call   111bb <Set_Current_Attr>
   16d50:	a1 6c 5e 02 00       	mov    0x25e6c,%eax
   16d55:	89 44 24 18          	mov    %eax,0x18(%esp)
   16d59:	8b 45 04             	mov    0x4(%ebp),%eax
   16d5c:	89 44 24 14          	mov    %eax,0x14(%esp)
   16d60:	c7 44 24 10 7e 03 00 	movl   $0x37e,0x10(%esp)
   16d67:	00 
   16d68:	c7 44 24 0c b9 fe 01 	movl   $0x1feb9,0xc(%esp)
   16d6f:	00 
   16d70:	c7 44 24 08 27 ff 01 	movl   $0x1ff27,0x8(%esp)
   16d77:	00 
   16d78:	c7 44 24 04 cd 00 02 	movl   $0x200cd,0x4(%esp)
   16d7f:	00 
   16d80:	c7 04 24 b4 ee 01 00 	movl   $0x1eeb4,(%esp)
   16d87:	e8 da a2 ff ff       	call   11066 <Print>
   16d8c:	eb fe                	jmp    16d8c <Tlocal_Get+0x59>
   16d8e:	8b 15 6c 5e 02 00    	mov    0x25e6c,%edx
   16d94:	83 f8 7f             	cmp    $0x7f,%eax
   16d97:	76 4a                	jbe    16de3 <Tlocal_Get+0xb0>
   16d99:	c7 04 24 4f 00 00 00 	movl   $0x4f,(%esp)
   16da0:	e8 16 a4 ff ff       	call   111bb <Set_Current_Attr>
   16da5:	a1 6c 5e 02 00       	mov    0x25e6c,%eax
   16daa:	89 44 24 18          	mov    %eax,0x18(%esp)
   16dae:	8b 45 04             	mov    0x4(%ebp),%eax
   16db1:	89 44 24 14          	mov    %eax,0x14(%esp)
   16db5:	c7 44 24 10 b6 01 00 	movl   $0x1b6,0x10(%esp)
   16dbc:	00 
   16dbd:	c7 44 24 0c b9 fe 01 	movl   $0x1feb9,0xc(%esp)
   16dc4:	00 
   16dc5:	c7 44 24 08 3e ff 01 	movl   $0x1ff3e,0x8(%esp)
   16dcc:	00 
   16dcd:	c7 44 24 04 d8 00 02 	movl   $0x200d8,0x4(%esp)
   16dd4:	00 
   16dd5:	c7 04 24 b4 ee 01 00 	movl   $0x1eeb4,(%esp)
   16ddc:	e8 85 a2 ff ff       	call   11066 <Print>
   16de1:	eb fe                	jmp    16de1 <Tlocal_Get+0xae>
   16de3:	8b 44 82 40          	mov    0x40(%edx,%eax,4),%eax
   16de7:	c9                   	leave  
   16de8:	c3                   	ret    

00016de9 <Dump_All_Thread_List>:
   16de9:	55                   	push   %ebp
   16dea:	89 e5                	mov    %esp,%ebp
   16dec:	57                   	push   %edi
   16ded:	56                   	push   %esi
   16dee:	53                   	push   %ebx
   16def:	83 ec 2c             	sub    $0x2c,%esp
   16df2:	e8 48 94 ff ff       	call   1023f <Interrupts_Enabled>
   16df7:	89 c7                	mov    %eax,%edi
   16df9:	84 c0                	test   %al,%al
   16dfb:	74 54                	je     16e51 <Dump_All_Thread_List+0x68>
   16dfd:	e8 3d 94 ff ff       	call   1023f <Interrupts_Enabled>
   16e02:	84 c0                	test   %al,%al
   16e04:	75 4a                	jne    16e50 <Dump_All_Thread_List+0x67>
   16e06:	c7 04 24 4f 00 00 00 	movl   $0x4f,(%esp)
   16e0d:	e8 a9 a3 ff ff       	call   111bb <Set_Current_Attr>
   16e12:	a1 6c 5e 02 00       	mov    0x25e6c,%eax
   16e17:	89 44 24 18          	mov    %eax,0x18(%esp)
   16e1b:	8b 45 04             	mov    0x4(%ebp),%eax
   16e1e:	89 44 24 14          	mov    %eax,0x14(%esp)
   16e22:	c7 44 24 10 8f 00 00 	movl   $0x8f,0x10(%esp)
   16e29:	00 
   16e2a:	c7 44 24 0c 7e f1 01 	movl   $0x1f17e,0xc(%esp)
   16e31:	00 
   16e32:	c7 44 24 08 d3 ef 01 	movl   $0x1efd3,0x8(%esp)
   16e39:	00 
   16e3a:	c7 44 24 04 2c 01 02 	movl   $0x2012c,0x4(%esp)
   16e41:	00 
   16e42:	c7 04 24 b4 ee 01 00 	movl   $0x1eeb4,(%esp)
   16e49:	e8 18 a2 ff ff       	call   11066 <Print>
   16e4e:	eb fe                	jmp    16e4e <Dump_All_Thread_List+0x65>
   16e50:	fa                   	cli    
   16e51:	8b 1d 60 53 02 00    	mov    0x25360,%ebx
   16e57:	c7 04 24 52 ff 01 00 	movl   $0x1ff52,(%esp)
   16e5e:	e8 03 a2 ff ff       	call   11066 <Print>
   16e63:	85 db                	test   %ebx,%ebx
   16e65:	0f 84 82 00 00 00    	je     16eed <Dump_All_Thread_List+0x104>
   16e6b:	be 00 00 00 00       	mov    $0x0,%esi
   16e70:	83 c6 01             	add    $0x1,%esi
   16e73:	8b 43 3c             	mov    0x3c(%ebx),%eax
   16e76:	89 44 24 0c          	mov    %eax,0xc(%esp)
   16e7a:	89 5c 24 08          	mov    %ebx,0x8(%esp)
   16e7e:	8b 43 38             	mov    0x38(%ebx),%eax
   16e81:	89 44 24 04          	mov    %eax,0x4(%esp)
   16e85:	c7 04 24 54 ff 01 00 	movl   $0x1ff54,(%esp)
   16e8c:	e8 d5 a1 ff ff       	call   11066 <Print>
   16e91:	8b 43 3c             	mov    0x3c(%ebx),%eax
   16e94:	39 c3                	cmp    %eax,%ebx
   16e96:	75 4a                	jne    16ee2 <Dump_All_Thread_List+0xf9>
   16e98:	c7 04 24 4f 00 00 00 	movl   $0x4f,(%esp)
   16e9f:	e8 17 a3 ff ff       	call   111bb <Set_Current_Attr>
   16ea4:	a1 6c 5e 02 00       	mov    0x25e6c,%eax
   16ea9:	89 44 24 18          	mov    %eax,0x18(%esp)
   16ead:	8b 45 04             	mov    0x4(%ebp),%eax
   16eb0:	89 44 24 14          	mov    %eax,0x14(%esp)
   16eb4:	c7 44 24 10 97 03 00 	movl   $0x397,0x10(%esp)
   16ebb:	00 
   16ebc:	c7 44 24 0c b9 fe 01 	movl   $0x1feb9,0xc(%esp)
   16ec3:	00 
   16ec4:	c7 44 24 08 88 00 02 	movl   $0x20088,0x8(%esp)
   16ecb:	00 
   16ecc:	c7 44 24 04 b8 00 02 	movl   $0x200b8,0x4(%esp)
   16ed3:	00 
   16ed4:	c7 04 24 b4 ee 01 00 	movl   $0x1eeb4,(%esp)
   16edb:	e8 86 a1 ff ff       	call   11066 <Print>
   16ee0:	eb fe                	jmp    16ee0 <Dump_All_Thread_List+0xf7>
   16ee2:	85 c0                	test   %eax,%eax
   16ee4:	74 0c                	je     16ef2 <Dump_All_Thread_List+0x109>
   16ee6:	89 c3                	mov    %eax,%ebx
   16ee8:	e9 83 ff ff ff       	jmp    16e70 <Dump_All_Thread_List+0x87>
   16eed:	be 00 00 00 00       	mov    $0x0,%esi
   16ef2:	c7 04 24 47 f0 01 00 	movl   $0x1f047,(%esp)
   16ef9:	e8 68 a1 ff ff       	call   11066 <Print>
   16efe:	89 74 24 04          	mov    %esi,0x4(%esp)
   16f02:	c7 04 24 62 ff 01 00 	movl   $0x1ff62,(%esp)
   16f09:	e8 58 a1 ff ff       	call   11066 <Print>
   16f0e:	e8 2c 93 ff ff       	call   1023f <Interrupts_Enabled>
   16f13:	84 c0                	test   %al,%al
   16f15:	74 4a                	je     16f61 <Dump_All_Thread_List+0x178>
   16f17:	c7 04 24 4f 00 00 00 	movl   $0x4f,(%esp)
   16f1e:	e8 98 a2 ff ff       	call   111bb <Set_Current_Attr>
   16f23:	a1 6c 5e 02 00       	mov    0x25e6c,%eax
   16f28:	89 44 24 18          	mov    %eax,0x18(%esp)
   16f2c:	8b 45 04             	mov    0x4(%ebp),%eax
   16f2f:	89 44 24 14          	mov    %eax,0x14(%esp)
   16f33:	c7 44 24 10 99 00 00 	movl   $0x99,0x10(%esp)
   16f3a:	00 
   16f3b:	c7 44 24 0c 7e f1 01 	movl   $0x1f17e,0xc(%esp)
   16f42:	00 
   16f43:	c7 44 24 08 d2 ef 01 	movl   $0x1efd2,0x8(%esp)
   16f4a:	00 
   16f4b:	c7 44 24 04 1d 01 02 	movl   $0x2011d,0x4(%esp)
   16f52:	00 
   16f53:	c7 04 24 b4 ee 01 00 	movl   $0x1eeb4,(%esp)
   16f5a:	e8 07 a1 ff ff       	call   11066 <Print>
   16f5f:	eb fe                	jmp    16f5f <Dump_All_Thread_List+0x176>
   16f61:	89 f8                	mov    %edi,%eax
   16f63:	84 c0                	test   %al,%al
   16f65:	74 56                	je     16fbd <Dump_All_Thread_List+0x1d4>
   16f67:	e8 d3 92 ff ff       	call   1023f <Interrupts_Enabled>
   16f6c:	84 c0                	test   %al,%al
   16f6e:	66 90                	xchg   %ax,%ax
   16f70:	74 4a                	je     16fbc <Dump_All_Thread_List+0x1d3>
   16f72:	c7 04 24 4f 00 00 00 	movl   $0x4f,(%esp)
   16f79:	e8 3d a2 ff ff       	call   111bb <Set_Current_Attr>
   16f7e:	a1 6c 5e 02 00       	mov    0x25e6c,%eax
   16f83:	89 44 24 18          	mov    %eax,0x18(%esp)
   16f87:	8b 45 04             	mov    0x4(%ebp),%eax
   16f8a:	89 44 24 14          	mov    %eax,0x14(%esp)
   16f8e:	c7 44 24 10 9c 00 00 	movl   $0x9c,0x10(%esp)
   16f95:	00 
   16f96:	c7 44 24 0c 7e f1 01 	movl   $0x1f17e,0xc(%esp)
   16f9d:	00 
   16f9e:	c7 44 24 08 d2 ef 01 	movl   $0x1efd2,0x8(%esp)
   16fa5:	00 
   16fa6:	c7 44 24 04 1d 01 02 	movl   $0x2011d,0x4(%esp)
   16fad:	00 
   16fae:	c7 04 24 b4 ee 01 00 	movl   $0x1eeb4,(%esp)
   16fb5:	e8 ac a0 ff ff       	call   11066 <Print>
   16fba:	eb fe                	jmp    16fba <Dump_All_Thread_List+0x1d1>
   16fbc:	fb                   	sti    
   16fbd:	83 c4 2c             	add    $0x2c,%esp
   16fc0:	5b                   	pop    %ebx
   16fc1:	5e                   	pop    %esi
   16fc2:	5f                   	pop    %edi
   16fc3:	5d                   	pop    %ebp
   16fc4:	c3                   	ret    
   16fc5:	66 90                	xchg   %ax,%ax
   16fc7:	66 90                	xchg   %ax,%ax
   16fc9:	66 90                	xchg   %ax,%ax
   16fcb:	66 90                	xchg   %ax,%ax
   16fcd:	66 90                	xchg   %ax,%ax
   16fcf:	90                   	nop

00016fd0 <Attach_User_Context>:
   16fd0:	55                   	push   %ebp
   16fd1:	89 e5                	mov    %esp,%ebp
   16fd3:	56                   	push   %esi
   16fd4:	53                   	push   %ebx
   16fd5:	83 ec 20             	sub    $0x20,%esp
   16fd8:	8b 75 08             	mov    0x8(%ebp),%esi
   16fdb:	8b 5d 0c             	mov    0xc(%ebp),%ebx
   16fde:	85 db                	test   %ebx,%ebx
   16fe0:	75 4a                	jne    1702c <Attach_User_Context+0x5c>
   16fe2:	c7 04 24 4f 00 00 00 	movl   $0x4f,(%esp)
   16fe9:	e8 cd a1 ff ff       	call   111bb <Set_Current_Attr>
   16fee:	a1 6c 5e 02 00       	mov    0x25e6c,%eax
   16ff3:	89 44 24 18          	mov    %eax,0x18(%esp)
   16ff7:	8b 45 04             	mov    0x4(%ebp),%eax
   16ffa:	89 44 24 14          	mov    %eax,0x14(%esp)
   16ffe:	c7 44 24 10 21 00 00 	movl   $0x21,0x10(%esp)
   17005:	00 
   17006:	c7 44 24 0c 45 02 02 	movl   $0x20245,0xc(%esp)
   1700d:	00 
   1700e:	c7 44 24 08 5a 02 02 	movl   $0x2025a,0x8(%esp)
   17015:	00 
   17016:	c7 44 24 04 30 03 02 	movl   $0x20330,0x4(%esp)
   1701d:	00 
   1701e:	c7 04 24 b4 ee 01 00 	movl   $0x1eeb4,(%esp)
   17025:	e8 3c a0 ff ff       	call   11066 <Print>
   1702a:	eb fe                	jmp    1702a <Attach_User_Context+0x5a>
   1702c:	89 5e 18             	mov    %ebx,0x18(%esi)
   1702f:	e8 0b 92 ff ff       	call   1023f <Interrupts_Enabled>
   17034:	84 c0                	test   %al,%al
   17036:	75 4a                	jne    17082 <Attach_User_Context+0xb2>
   17038:	c7 04 24 4f 00 00 00 	movl   $0x4f,(%esp)
   1703f:	e8 77 a1 ff ff       	call   111bb <Set_Current_Attr>
   17044:	a1 6c 5e 02 00       	mov    0x25e6c,%eax
   17049:	89 44 24 18          	mov    %eax,0x18(%esp)
   1704d:	8b 45 04             	mov    0x4(%ebp),%eax
   17050:	89 44 24 14          	mov    %eax,0x14(%esp)
   17054:	c7 44 24 10 24 00 00 	movl   $0x24,0x10(%esp)
   1705b:	00 
   1705c:	c7 44 24 0c 45 02 02 	movl   $0x20245,0xc(%esp)
   17063:	00 
   17064:	c7 44 24 08 d3 ef 01 	movl   $0x1efd3,0x8(%esp)
   1706b:	00 
   1706c:	c7 44 24 04 30 03 02 	movl   $0x20330,0x4(%esp)
   17073:	00 
   17074:	c7 04 24 b4 ee 01 00 	movl   $0x1eeb4,(%esp)
   1707b:	e8 e6 9f ff ff       	call   11066 <Print>
   17080:	eb fe                	jmp    17080 <Attach_User_Context+0xb0>
   17082:	fa                   	cli    
   17083:	8b 46 34             	mov    0x34(%esi),%eax
   17086:	89 44 24 08          	mov    %eax,0x8(%esp)
   1708a:	8b 43 34             	mov    0x34(%ebx),%eax
   1708d:	89 44 24 04          	mov    %eax,0x4(%esp)
   17091:	c7 04 24 d4 02 02 00 	movl   $0x202d4,(%esp)
   17098:	e8 c9 9f ff ff       	call   11066 <Print>
   1709d:	83 7b 34 00          	cmpl   $0x0,0x34(%ebx)
   170a1:	74 4a                	je     170ed <Attach_User_Context+0x11d>
   170a3:	c7 04 24 4f 00 00 00 	movl   $0x4f,(%esp)
   170aa:	e8 0c a1 ff ff       	call   111bb <Set_Current_Attr>
   170af:	a1 6c 5e 02 00       	mov    0x25e6c,%eax
   170b4:	89 44 24 18          	mov    %eax,0x18(%esp)
   170b8:	8b 45 04             	mov    0x4(%ebp),%eax
   170bb:	89 44 24 14          	mov    %eax,0x14(%esp)
   170bf:	c7 44 24 10 2c 00 00 	movl   $0x2c,0x10(%esp)
   170c6:	00 
   170c7:	c7 44 24 0c 45 02 02 	movl   $0x20245,0xc(%esp)
   170ce:	00 
   170cf:	c7 44 24 08 67 02 02 	movl   $0x20267,0x8(%esp)
   170d6:	00 
   170d7:	c7 44 24 04 30 03 02 	movl   $0x20330,0x4(%esp)
   170de:	00 
   170df:	c7 04 24 b4 ee 01 00 	movl   $0x1eeb4,(%esp)
   170e6:	e8 7b 9f ff ff       	call   11066 <Print>
   170eb:	eb fe                	jmp    170eb <Attach_User_Context+0x11b>
   170ed:	c7 43 34 01 00 00 00 	movl   $0x1,0x34(%ebx)
   170f4:	e8 46 91 ff ff       	call   1023f <Interrupts_Enabled>
   170f9:	84 c0                	test   %al,%al
   170fb:	74 4a                	je     17147 <Attach_User_Context+0x177>
   170fd:	c7 04 24 4f 00 00 00 	movl   $0x4f,(%esp)
   17104:	e8 b2 a0 ff ff       	call   111bb <Set_Current_Attr>
   17109:	a1 6c 5e 02 00       	mov    0x25e6c,%eax
   1710e:	89 44 24 18          	mov    %eax,0x18(%esp)
   17112:	8b 45 04             	mov    0x4(%ebp),%eax
   17115:	89 44 24 14          	mov    %eax,0x14(%esp)
   17119:	c7 44 24 10 2f 00 00 	movl   $0x2f,0x10(%esp)
   17120:	00 
   17121:	c7 44 24 0c 45 02 02 	movl   $0x20245,0xc(%esp)
   17128:	00 
   17129:	c7 44 24 08 d2 ef 01 	movl   $0x1efd2,0x8(%esp)
   17130:	00 
   17131:	c7 44 24 04 30 03 02 	movl   $0x20330,0x4(%esp)
   17138:	00 
   17139:	c7 04 24 b4 ee 01 00 	movl   $0x1eeb4,(%esp)
   17140:	e8 21 9f ff ff       	call   11066 <Print>
   17145:	eb fe                	jmp    17145 <Attach_User_Context+0x175>
   17147:	fb                   	sti    
   17148:	83 c4 20             	add    $0x20,%esp
   1714b:	5b                   	pop    %ebx
   1714c:	5e                   	pop    %esi
   1714d:	5d                   	pop    %ebp
   1714e:	c3                   	ret    

0001714f <Detach_User_Context>:
   1714f:	55                   	push   %ebp
   17150:	89 e5                	mov    %esp,%ebp
   17152:	56                   	push   %esi
   17153:	53                   	push   %ebx
   17154:	83 ec 20             	sub    $0x20,%esp
   17157:	8b 45 08             	mov    0x8(%ebp),%eax
   1715a:	8b 58 18             	mov    0x18(%eax),%ebx
   1715d:	c7 40 18 00 00 00 00 	movl   $0x0,0x18(%eax)
   17164:	85 db                	test   %ebx,%ebx
   17166:	0f 84 bd 00 00 00    	je     17229 <Detach_User_Context+0xda>
   1716c:	e8 ce 90 ff ff       	call   1023f <Interrupts_Enabled>
   17171:	84 c0                	test   %al,%al
   17173:	75 4a                	jne    171bf <Detach_User_Context+0x70>
   17175:	c7 04 24 4f 00 00 00 	movl   $0x4f,(%esp)
   1717c:	e8 3a a0 ff ff       	call   111bb <Set_Current_Attr>
   17181:	a1 6c 5e 02 00       	mov    0x25e6c,%eax
   17186:	89 44 24 18          	mov    %eax,0x18(%esp)
   1718a:	8b 45 04             	mov    0x4(%ebp),%eax
   1718d:	89 44 24 14          	mov    %eax,0x14(%esp)
   17191:	c7 44 24 10 40 00 00 	movl   $0x40,0x10(%esp)
   17198:	00 
   17199:	c7 44 24 0c 45 02 02 	movl   $0x20245,0xc(%esp)
   171a0:	00 
   171a1:	c7 44 24 08 d3 ef 01 	movl   $0x1efd3,0x8(%esp)
   171a8:	00 
   171a9:	c7 44 24 04 1c 03 02 	movl   $0x2031c,0x4(%esp)
   171b0:	00 
   171b1:	c7 04 24 b4 ee 01 00 	movl   $0x1eeb4,(%esp)
   171b8:	e8 a9 9e ff ff       	call   11066 <Print>
   171bd:	eb fe                	jmp    171bd <Detach_User_Context+0x6e>
   171bf:	fa                   	cli    
   171c0:	8b 43 34             	mov    0x34(%ebx),%eax
   171c3:	8d 70 ff             	lea    -0x1(%eax),%esi
   171c6:	89 73 34             	mov    %esi,0x34(%ebx)
   171c9:	e8 71 90 ff ff       	call   1023f <Interrupts_Enabled>
   171ce:	84 c0                	test   %al,%al
   171d0:	74 4a                	je     1721c <Detach_User_Context+0xcd>
   171d2:	c7 04 24 4f 00 00 00 	movl   $0x4f,(%esp)
   171d9:	e8 dd 9f ff ff       	call   111bb <Set_Current_Attr>
   171de:	a1 6c 5e 02 00       	mov    0x25e6c,%eax
   171e3:	89 44 24 18          	mov    %eax,0x18(%esp)
   171e7:	8b 45 04             	mov    0x4(%ebp),%eax
   171ea:	89 44 24 14          	mov    %eax,0x14(%esp)
   171ee:	c7 44 24 10 43 00 00 	movl   $0x43,0x10(%esp)
   171f5:	00 
   171f6:	c7 44 24 0c 45 02 02 	movl   $0x20245,0xc(%esp)
   171fd:	00 
   171fe:	c7 44 24 08 d2 ef 01 	movl   $0x1efd2,0x8(%esp)
   17205:	00 
   17206:	c7 44 24 04 1c 03 02 	movl   $0x2031c,0x4(%esp)
   1720d:	00 
   1720e:	c7 04 24 b4 ee 01 00 	movl   $0x1eeb4,(%esp)
   17215:	e8 4c 9e ff ff       	call   11066 <Print>
   1721a:	eb fe                	jmp    1721a <Detach_User_Context+0xcb>
   1721c:	fb                   	sti    
   1721d:	85 f6                	test   %esi,%esi
   1721f:	75 08                	jne    17229 <Detach_User_Context+0xda>
   17221:	89 1c 24             	mov    %ebx,(%esp)
   17224:	e8 95 02 00 00       	call   174be <Destroy_User_Context>
   17229:	83 c4 20             	add    $0x20,%esp
   1722c:	5b                   	pop    %ebx
   1722d:	5e                   	pop    %esi
   1722e:	5d                   	pop    %ebp
   1722f:	c3                   	ret    

00017230 <Spawn>:
   17230:	55                   	push   %ebp
   17231:	89 e5                	mov    %esp,%ebp
   17233:	53                   	push   %ebx
   17234:	83 ec 74             	sub    $0x74,%esp
   17237:	8b 5d 08             	mov    0x8(%ebp),%ebx
   1723a:	c7 45 f4 00 00 00 00 	movl   $0x0,-0xc(%ebp)
   17241:	89 5c 24 04          	mov    %ebx,0x4(%esp)
   17245:	c7 04 24 7e 02 02 00 	movl   $0x2027e,(%esp)
   1724c:	e8 15 9e ff ff       	call   11066 <Print>
   17251:	8d 45 f0             	lea    -0x10(%ebp),%eax
   17254:	89 44 24 08          	mov    %eax,0x8(%esp)
   17258:	8d 45 f4             	lea    -0xc(%ebp),%eax
   1725b:	89 44 24 04          	mov    %eax,0x4(%esp)
   1725f:	89 1c 24             	mov    %ebx,(%esp)
   17262:	e8 0c 43 00 00       	call   1b573 <Read_Fully>
   17267:	85 c0                	test   %eax,%eax
   17269:	74 1a                	je     17285 <Spawn+0x55>
   1726b:	89 5c 24 04          	mov    %ebx,0x4(%esp)
   1726f:	c7 04 24 f4 02 02 00 	movl   $0x202f4,(%esp)
   17276:	e8 eb 9d ff ff       	call   11066 <Print>
   1727b:	b8 ff ff ff ff       	mov    $0xffffffff,%eax
   17280:	e9 8a 00 00 00       	jmp    1730f <Spawn+0xdf>
   17285:	c7 04 24 8d 02 02 00 	movl   $0x2028d,(%esp)
   1728c:	e8 d5 9d ff ff       	call   11066 <Print>
   17291:	8d 45 ac             	lea    -0x54(%ebp),%eax
   17294:	89 44 24 08          	mov    %eax,0x8(%esp)
   17298:	8b 45 f0             	mov    -0x10(%ebp),%eax
   1729b:	89 44 24 04          	mov    %eax,0x4(%esp)
   1729f:	8b 45 f4             	mov    -0xc(%ebp),%eax
   172a2:	89 04 24             	mov    %eax,(%esp)
   172a5:	e8 74 23 00 00       	call   1961e <Parse_ELF_Executable>
   172aa:	85 c0                	test   %eax,%eax
   172ac:	74 13                	je     172c1 <Spawn+0x91>
   172ae:	c7 04 24 9c 02 02 00 	movl   $0x2029c,(%esp)
   172b5:	e8 ac 9d ff ff       	call   11066 <Print>
   172ba:	b8 ff ff ff ff       	mov    $0xffffffff,%eax
   172bf:	eb 4e                	jmp    1730f <Spawn+0xdf>
   172c1:	c7 04 24 b9 02 02 00 	movl   $0x202b9,(%esp)
   172c8:	e8 99 9d ff ff       	call   11066 <Print>
   172cd:	8d 45 a8             	lea    -0x58(%ebp),%eax
   172d0:	89 44 24 10          	mov    %eax,0x10(%esp)
   172d4:	8b 45 0c             	mov    0xc(%ebp),%eax
   172d7:	89 44 24 0c          	mov    %eax,0xc(%esp)
   172db:	8d 45 ac             	lea    -0x54(%ebp),%eax
   172de:	89 44 24 08          	mov    %eax,0x8(%esp)
   172e2:	8b 45 f0             	mov    -0x10(%ebp),%eax
   172e5:	89 44 24 04          	mov    %eax,0x4(%esp)
   172e9:	8b 45 f4             	mov    -0xc(%ebp),%eax
   172ec:	89 04 24             	mov    %eax,(%esp)
   172ef:	e8 1f 03 00 00       	call   17613 <Load_User_Program>
   172f4:	c7 44 24 04 00 00 00 	movl   $0x0,0x4(%esp)
   172fb:	00 
   172fc:	8b 45 a8             	mov    -0x58(%ebp),%eax
   172ff:	89 04 24             	mov    %eax,(%esp)
   17302:	e8 ea e7 ff ff       	call   15af1 <Start_User_Thread>
   17307:	8b 55 10             	mov    0x10(%ebp),%edx
   1730a:	89 02                	mov    %eax,(%edx)
   1730c:	8b 40 34             	mov    0x34(%eax),%eax
   1730f:	83 c4 74             	add    $0x74,%esp
   17312:	5b                   	pop    %ebx
   17313:	5d                   	pop    %ebp
   17314:	c3                   	ret    

00017315 <Switch_To_User_Context>:
   17315:	55                   	push   %ebp
   17316:	89 e5                	mov    %esp,%ebp
   17318:	53                   	push   %ebx
   17319:	83 ec 14             	sub    $0x14,%esp
   1731c:	8b 5d 08             	mov    0x8(%ebp),%ebx
   1731f:	83 7b 18 00          	cmpl   $0x0,0x18(%ebx)
   17323:	74 1b                	je     17340 <Switch_To_User_Context+0x2b>
   17325:	8b 43 14             	mov    0x14(%ebx),%eax
   17328:	05 00 10 00 00       	add    $0x1000,%eax
   1732d:	89 04 24             	mov    %eax,(%esp)
   17330:	e8 79 c5 ff ff       	call   138ae <Set_Kernel_Stack_Pointer>
   17335:	8b 43 18             	mov    0x18(%ebx),%eax
   17338:	89 04 24             	mov    %eax,(%esp)
   1733b:	e8 2c 09 00 00       	call   17c6c <Switch_To_Address_Space>
   17340:	83 c4 14             	add    $0x14,%esp
   17343:	5b                   	pop    %ebx
   17344:	5d                   	pop    %ebp
   17345:	c3                   	ret    

00017346 <dtob>:
   17346:	55                   	push   %ebp
   17347:	89 e5                	mov    %esp,%ebp
   17349:	53                   	push   %ebx
   1734a:	83 ec 14             	sub    $0x14,%esp
   1734d:	8b 5d 08             	mov    0x8(%ebp),%ebx
   17350:	89 d8                	mov    %ebx,%eax
   17352:	83 fb 01             	cmp    $0x1,%ebx
   17355:	76 13                	jbe    1736a <dtob+0x24>
   17357:	d1 e8                	shr    %eax
   17359:	89 04 24             	mov    %eax,(%esp)
   1735c:	e8 e5 ff ff ff       	call   17346 <dtob>
   17361:	8d 04 80             	lea    (%eax,%eax,4),%eax
   17364:	83 e3 01             	and    $0x1,%ebx
   17367:	8d 04 43             	lea    (%ebx,%eax,2),%eax
   1736a:	83 c4 14             	add    $0x14,%esp
   1736d:	5b                   	pop    %ebx
   1736e:	5d                   	pop    %ebp
   1736f:	c3                   	ret    

00017370 <DisplayMemory>:
   17370:	55                   	push   %ebp
   17371:	89 e5                	mov    %esp,%ebp
   17373:	53                   	push   %ebx
   17374:	83 ec 24             	sub    $0x24,%esp
   17377:	8b 5d 08             	mov    0x8(%ebp),%ebx
   1737a:	c7 04 24 0e 00 00 00 	movl   $0xe,(%esp)
   17381:	e8 35 9e ff ff       	call   111bb <Set_Current_Attr>
   17386:	c7 04 24 44 03 02 00 	movl   $0x20344,(%esp)
   1738d:	e8 d4 9c ff ff       	call   11066 <Print>
   17392:	c7 04 24 07 00 00 00 	movl   $0x7,(%esp)
   17399:	e8 1d 9e ff ff       	call   111bb <Set_Current_Attr>
   1739e:	c7 44 24 08 79 03 02 	movl   $0x20379,0x8(%esp)
   173a5:	00 
   173a6:	c7 44 24 04 54 03 02 	movl   $0x20354,0x4(%esp)
   173ad:	00 
   173ae:	c7 04 24 9a 03 02 00 	movl   $0x2039a,(%esp)
   173b5:	e8 ac 9c ff ff       	call   11066 <Print>
   173ba:	8d 83 fc 0f 00 00    	lea    0xffc(%ebx),%eax
   173c0:	8b 93 fc 0f 00 00    	mov    0xffc(%ebx),%edx
   173c6:	89 54 24 08          	mov    %edx,0x8(%esp)
   173ca:	89 44 24 04          	mov    %eax,0x4(%esp)
   173ce:	c7 04 24 b4 03 02 00 	movl   $0x203b4,(%esp)
   173d5:	e8 8c 9c ff ff       	call   11066 <Print>
   173da:	c7 04 24 0e 00 00 00 	movl   $0xe,(%esp)
   173e1:	e8 d5 9d ff ff       	call   111bb <Set_Current_Attr>
   173e6:	c7 04 24 58 03 02 00 	movl   $0x20358,(%esp)
   173ed:	e8 74 9c ff ff       	call   11066 <Print>
   173f2:	c7 04 24 07 00 00 00 	movl   $0x7,(%esp)
   173f9:	e8 bd 9d ff ff       	call   111bb <Set_Current_Attr>
   173fe:	c7 44 24 14 64 03 02 	movl   $0x20364,0x14(%esp)
   17405:	00 
   17406:	c7 44 24 10 6d 03 02 	movl   $0x2036d,0x10(%esp)
   1740d:	00 
   1740e:	c7 44 24 0c 75 03 02 	movl   $0x20375,0xc(%esp)
   17415:	00 
   17416:	c7 44 24 08 7f 03 02 	movl   $0x2037f,0x8(%esp)
   1741d:	00 
   1741e:	c7 44 24 04 88 03 02 	movl   $0x20388,0x4(%esp)
   17425:	00 
   17426:	c7 04 24 8c 03 02 00 	movl   $0x2038c,(%esp)
   1742d:	e8 34 9c ff ff       	call   11066 <Print>
   17432:	8b 9b fc 0f 00 00    	mov    0xffc(%ebx),%ebx
   17438:	81 e3 00 f0 ff ff    	and    $0xfffff000,%ebx
   1743e:	8d 93 f8 0f 00 00    	lea    0xff8(%ebx),%edx
   17444:	8b 83 f8 0f 00 00    	mov    0xff8(%ebx),%eax
   1744a:	25 00 f0 ff ff       	and    $0xfffff000,%eax
   1744f:	8b 08                	mov    (%eax),%ecx
   17451:	89 4c 24 14          	mov    %ecx,0x14(%esp)
   17455:	89 44 24 10          	mov    %eax,0x10(%esp)
   17459:	8b 83 f8 0f 00 00    	mov    0xff8(%ebx),%eax
   1745f:	89 44 24 0c          	mov    %eax,0xc(%esp)
   17463:	89 54 24 08          	mov    %edx,0x8(%esp)
   17467:	c7 44 24 04 fe 03 00 	movl   $0x3fe,0x4(%esp)
   1746e:	00 
   1746f:	c7 04 24 a5 03 02 00 	movl   $0x203a5,(%esp)
   17476:	e8 eb 9b ff ff       	call   11066 <Print>
   1747b:	8d 93 fc 0f 00 00    	lea    0xffc(%ebx),%edx
   17481:	8b 83 fc 0f 00 00    	mov    0xffc(%ebx),%eax
   17487:	25 00 f0 ff ff       	and    $0xfffff000,%eax
   1748c:	8b 08                	mov    (%eax),%ecx
   1748e:	89 4c 24 14          	mov    %ecx,0x14(%esp)
   17492:	89 44 24 10          	mov    %eax,0x10(%esp)
   17496:	8b 83 fc 0f 00 00    	mov    0xffc(%ebx),%eax
   1749c:	89 44 24 0c          	mov    %eax,0xc(%esp)
   174a0:	89 54 24 08          	mov    %edx,0x8(%esp)
   174a4:	c7 44 24 04 ff 03 00 	movl   $0x3ff,0x4(%esp)
   174ab:	00 
   174ac:	c7 04 24 a5 03 02 00 	movl   $0x203a5,(%esp)
   174b3:	e8 ae 9b ff ff       	call   11066 <Print>
   174b8:	83 c4 24             	add    $0x24,%esp
   174bb:	5b                   	pop    %ebx
   174bc:	5d                   	pop    %ebp
   174bd:	c3                   	ret    

000174be <Destroy_User_Context>:
   174be:	55                   	push   %ebp
   174bf:	89 e5                	mov    %esp,%ebp
   174c1:	57                   	push   %edi
   174c2:	56                   	push   %esi
   174c3:	53                   	push   %ebx
   174c4:	83 ec 3c             	sub    $0x3c,%esp
   174c7:	8b 45 08             	mov    0x8(%ebp),%eax
   174ca:	8b 40 24             	mov    0x24(%eax),%eax
   174cd:	89 45 dc             	mov    %eax,-0x24(%ebp)
   174d0:	e8 6a 8d ff ff       	call   1023f <Interrupts_Enabled>
   174d5:	84 c0                	test   %al,%al
   174d7:	75 4a                	jne    17523 <Destroy_User_Context+0x65>
   174d9:	c7 04 24 4f 00 00 00 	movl   $0x4f,(%esp)
   174e0:	e8 d6 9c ff ff       	call   111bb <Set_Current_Attr>
   174e5:	a1 6c 5e 02 00       	mov    0x25e6c,%eax
   174ea:	89 44 24 18          	mov    %eax,0x18(%esp)
   174ee:	8b 45 04             	mov    0x4(%ebp),%eax
   174f1:	89 44 24 14          	mov    %eax,0x14(%esp)
   174f5:	c7 44 24 10 5b 00 00 	movl   $0x5b,0x10(%esp)
   174fc:	00 
   174fd:	c7 44 24 0c bf 03 02 	movl   $0x203bf,0xc(%esp)
   17504:	00 
   17505:	c7 44 24 08 d3 ef 01 	movl   $0x1efd3,0x8(%esp)
   1750c:	00 
   1750d:	c7 44 24 04 69 04 02 	movl   $0x20469,0x4(%esp)
   17514:	00 
   17515:	c7 04 24 b4 ee 01 00 	movl   $0x1eeb4,(%esp)
   1751c:	e8 45 9b ff ff       	call   11066 <Print>
   17521:	eb fe                	jmp    17521 <Destroy_User_Context+0x63>
   17523:	fa                   	cli    
   17524:	bf 00 00 00 00       	mov    $0x0,%edi
   17529:	8b 45 dc             	mov    -0x24(%ebp),%eax
   1752c:	05 00 08 00 00       	add    $0x800,%eax
   17531:	89 45 e4             	mov    %eax,-0x1c(%ebp)
   17534:	8b 45 e4             	mov    -0x1c(%ebp),%eax
   17537:	01 f8                	add    %edi,%eax
   17539:	f7 00 00 f0 ff ff    	testl  $0xfffff000,(%eax)
   1753f:	74 3b                	je     1757c <Destroy_User_Context+0xbe>
   17541:	8b 00                	mov    (%eax),%eax
   17543:	25 00 f0 ff ff       	and    $0xfffff000,%eax
   17548:	89 45 e0             	mov    %eax,-0x20(%ebp)
   1754b:	89 c3                	mov    %eax,%ebx
   1754d:	8d b0 00 10 00 00    	lea    0x1000(%eax),%esi
   17553:	f7 03 00 f0 ff ff    	testl  $0xfffff000,(%ebx)
   17559:	74 0f                	je     1756a <Destroy_User_Context+0xac>
   1755b:	8b 03                	mov    (%ebx),%eax
   1755d:	25 00 f0 ff ff       	and    $0xfffff000,%eax
   17562:	89 04 24             	mov    %eax,(%esp)
   17565:	e8 66 bb ff ff       	call   130d0 <Free_Page>
   1756a:	83 c3 04             	add    $0x4,%ebx
   1756d:	39 f3                	cmp    %esi,%ebx
   1756f:	75 e2                	jne    17553 <Destroy_User_Context+0x95>
   17571:	8b 45 e0             	mov    -0x20(%ebp),%eax
   17574:	89 04 24             	mov    %eax,(%esp)
   17577:	e8 54 bb ff ff       	call   130d0 <Free_Page>
   1757c:	83 c7 04             	add    $0x4,%edi
   1757f:	81 ff 00 08 00 00    	cmp    $0x800,%edi
   17585:	75 ad                	jne    17534 <Destroy_User_Context+0x76>
   17587:	8b 45 dc             	mov    -0x24(%ebp),%eax
   1758a:	89 04 24             	mov    %eax,(%esp)
   1758d:	e8 3e bb ff ff       	call   130d0 <Free_Page>
   17592:	e8 a8 8c ff ff       	call   1023f <Interrupts_Enabled>
   17597:	84 c0                	test   %al,%al
   17599:	74 4a                	je     175e5 <Destroy_User_Context+0x127>
   1759b:	c7 04 24 4f 00 00 00 	movl   $0x4f,(%esp)
   175a2:	e8 14 9c ff ff       	call   111bb <Set_Current_Attr>
   175a7:	a1 6c 5e 02 00       	mov    0x25e6c,%eax
   175ac:	89 44 24 18          	mov    %eax,0x18(%esp)
   175b0:	8b 45 04             	mov    0x4(%ebp),%eax
   175b3:	89 44 24 14          	mov    %eax,0x14(%esp)
   175b7:	c7 44 24 10 6b 00 00 	movl   $0x6b,0x10(%esp)
   175be:	00 
   175bf:	c7 44 24 0c bf 03 02 	movl   $0x203bf,0xc(%esp)
   175c6:	00 
   175c7:	c7 44 24 08 d2 ef 01 	movl   $0x1efd2,0x8(%esp)
   175ce:	00 
   175cf:	c7 44 24 04 69 04 02 	movl   $0x20469,0x4(%esp)
   175d6:	00 
   175d7:	c7 04 24 b4 ee 01 00 	movl   $0x1eeb4,(%esp)
   175de:	e8 83 9a ff ff       	call   11066 <Print>
   175e3:	eb fe                	jmp    175e3 <Destroy_User_Context+0x125>
   175e5:	fb                   	sti    
   175e6:	c7 04 24 d6 03 02 00 	movl   $0x203d6,(%esp)
   175ed:	e8 74 9a ff ff       	call   11066 <Print>
   175f2:	8b 45 08             	mov    0x8(%ebp),%eax
   175f5:	8b 40 10             	mov    0x10(%eax),%eax
   175f8:	89 04 24             	mov    %eax,(%esp)
   175fb:	e8 1d bf ff ff       	call   1351d <Free_Segment_Descriptor>
   17600:	8b 45 08             	mov    0x8(%ebp),%eax
   17603:	89 04 24             	mov    %eax,(%esp)
   17606:	e8 c1 cf ff ff       	call   145cc <Free>
   1760b:	83 c4 3c             	add    $0x3c,%esp
   1760e:	5b                   	pop    %ebx
   1760f:	5e                   	pop    %esi
   17610:	5f                   	pop    %edi
   17611:	5d                   	pop    %ebp
   17612:	c3                   	ret    

00017613 <Load_User_Program>:
   17613:	55                   	push   %ebp
   17614:	89 e5                	mov    %esp,%ebp
   17616:	57                   	push   %edi
   17617:	56                   	push   %esi
   17618:	53                   	push   %ebx
   17619:	83 ec 6c             	sub    $0x6c,%esp
   1761c:	8d 45 e0             	lea    -0x20(%ebp),%eax
   1761f:	89 44 24 08          	mov    %eax,0x8(%esp)
   17623:	8d 45 e4             	lea    -0x1c(%ebp),%eax
   17626:	89 44 24 04          	mov    %eax,0x4(%esp)
   1762a:	8b 45 14             	mov    0x14(%ebp),%eax
   1762d:	89 04 24             	mov    %eax,(%esp)
   17630:	e8 c9 06 00 00       	call   17cfe <Get_Argument_Block_Size>
   17635:	8b 45 10             	mov    0x10(%ebp),%eax
   17638:	8b 58 3c             	mov    0x3c(%eax),%ebx
   1763b:	85 db                	test   %ebx,%ebx
   1763d:	7e 3a                	jle    17679 <Load_User_Program+0x66>
   1763f:	b9 00 00 00 00       	mov    $0x0,%ecx
   17644:	ba 00 00 00 00       	mov    $0x0,%edx
   17649:	8b 70 0c             	mov    0xc(%eax),%esi
   1764c:	03 70 08             	add    0x8(%eax),%esi
   1764f:	39 f1                	cmp    %esi,%ecx
   17651:	0f 42 ce             	cmovb  %esi,%ecx
   17654:	83 c2 01             	add    $0x1,%edx
   17657:	83 c0 14             	add    $0x14,%eax
   1765a:	39 da                	cmp    %ebx,%edx
   1765c:	75 eb                	jne    17649 <Load_User_Program+0x36>
   1765e:	89 c8                	mov    %ecx,%eax
   17660:	89 4d 9c             	mov    %ecx,-0x64(%ebp)
   17663:	a9 ff 0f 00 00       	test   $0xfff,%eax
   17668:	74 16                	je     17680 <Load_User_Program+0x6d>
   1766a:	25 00 f0 ff ff       	and    $0xfffff000,%eax
   1766f:	05 00 10 00 00       	add    $0x1000,%eax
   17674:	89 45 9c             	mov    %eax,-0x64(%ebp)
   17677:	eb 07                	jmp    17680 <Load_User_Program+0x6d>
   17679:	c7 45 9c 00 00 00 00 	movl   $0x0,-0x64(%ebp)
   17680:	e8 5a b4 ff ff       	call   12adf <Alloc_Page>
   17685:	89 45 a0             	mov    %eax,-0x60(%ebp)
   17688:	89 c7                	mov    %eax,%edi
   1768a:	ba 00 10 00 00       	mov    $0x1000,%edx
   1768f:	a8 01                	test   $0x1,%al
   17691:	74 0a                	je     1769d <Load_User_Program+0x8a>
   17693:	c6 00 00             	movb   $0x0,(%eax)
   17696:	8d 78 01             	lea    0x1(%eax),%edi
   17699:	66 ba ff 0f          	mov    $0xfff,%dx
   1769d:	f7 c7 02 00 00 00    	test   $0x2,%edi
   176a3:	74 0b                	je     176b0 <Load_User_Program+0x9d>
   176a5:	66 c7 07 00 00       	movw   $0x0,(%edi)
   176aa:	83 c7 02             	add    $0x2,%edi
   176ad:	83 ea 02             	sub    $0x2,%edx
   176b0:	89 d1                	mov    %edx,%ecx
   176b2:	c1 e9 02             	shr    $0x2,%ecx
   176b5:	b8 00 00 00 00       	mov    $0x0,%eax
   176ba:	f3 ab                	rep stos %eax,%es:(%edi)
   176bc:	f6 c2 02             	test   $0x2,%dl
   176bf:	74 08                	je     176c9 <Load_User_Program+0xb6>
   176c1:	66 c7 07 00 00       	movw   $0x0,(%edi)
   176c6:	83 c7 02             	add    $0x2,%edi
   176c9:	f6 c2 01             	test   $0x1,%dl
   176cc:	74 03                	je     176d1 <Load_User_Program+0xbe>
   176ce:	c6 07 00             	movb   $0x0,(%edi)
   176d1:	e8 e2 59 00 00       	call   1d0b8 <Get_PDBR>
   176d6:	8b 5d a0             	mov    -0x60(%ebp),%ebx
   176d9:	89 df                	mov    %ebx,%edi
   176db:	89 c6                	mov    %eax,%esi
   176dd:	ba 00 08 00 00       	mov    $0x800,%edx
   176e2:	f6 c3 01             	test   $0x1,%bl
   176e5:	74 10                	je     176f7 <Load_User_Program+0xe4>
   176e7:	0f b6 10             	movzbl (%eax),%edx
   176ea:	88 13                	mov    %dl,(%ebx)
   176ec:	8d 7b 01             	lea    0x1(%ebx),%edi
   176ef:	8d 70 01             	lea    0x1(%eax),%esi
   176f2:	ba ff 07 00 00       	mov    $0x7ff,%edx
   176f7:	f7 c7 02 00 00 00    	test   $0x2,%edi
   176fd:	74 0f                	je     1770e <Load_User_Program+0xfb>
   176ff:	0f b7 06             	movzwl (%esi),%eax
   17702:	66 89 07             	mov    %ax,(%edi)
   17705:	83 c7 02             	add    $0x2,%edi
   17708:	83 c6 02             	add    $0x2,%esi
   1770b:	83 ea 02             	sub    $0x2,%edx
   1770e:	89 d1                	mov    %edx,%ecx
   17710:	c1 e9 02             	shr    $0x2,%ecx
   17713:	f3 a5                	rep movsl %ds:(%esi),%es:(%edi)
   17715:	b8 00 00 00 00       	mov    $0x0,%eax
   1771a:	f6 c2 02             	test   $0x2,%dl
   1771d:	74 0b                	je     1772a <Load_User_Program+0x117>
   1771f:	0f b7 06             	movzwl (%esi),%eax
   17722:	66 89 07             	mov    %ax,(%edi)
   17725:	b8 02 00 00 00       	mov    $0x2,%eax
   1772a:	f6 c2 01             	test   $0x1,%dl
   1772d:	74 07                	je     17736 <Load_User_Program+0x123>
   1772f:	0f b6 14 06          	movzbl (%esi,%eax,1),%edx
   17733:	88 14 07             	mov    %dl,(%edi,%eax,1)
   17736:	8b 45 10             	mov    0x10(%ebp),%eax
   17739:	83 78 3c 00          	cmpl   $0x0,0x3c(%eax)
   1773d:	0f 8e 70 02 00 00    	jle    179b3 <Load_User_Program+0x3a0>
   17743:	89 45 a4             	mov    %eax,-0x5c(%ebp)
   17746:	c7 45 a8 00 00 00 00 	movl   $0x0,-0x58(%ebp)
   1774d:	8b 45 a4             	mov    -0x5c(%ebp),%eax
   17750:	89 45 cc             	mov    %eax,-0x34(%ebp)
   17753:	8b 70 08             	mov    0x8(%eax),%esi
   17756:	89 75 b8             	mov    %esi,-0x48(%ebp)
   17759:	8d 9e 00 00 00 80    	lea    -0x80000000(%esi),%ebx
   1775f:	8b 30                	mov    (%eax),%esi
   17761:	8b 45 08             	mov    0x8(%ebp),%eax
   17764:	8b 04 30             	mov    (%eax,%esi,1),%eax
   17767:	89 44 24 04          	mov    %eax,0x4(%esp)
   1776b:	c7 04 24 fe 03 02 00 	movl   $0x203fe,(%esp)
   17772:	e8 ef 98 ff ff       	call   11066 <Print>
   17777:	89 74 24 08          	mov    %esi,0x8(%esp)
   1777b:	89 5c 24 04          	mov    %ebx,0x4(%esp)
   1777f:	c7 04 24 ed 03 02 00 	movl   $0x203ed,(%esp)
   17786:	e8 db 98 ff ff       	call   11066 <Print>
   1778b:	89 d8                	mov    %ebx,%eax
   1778d:	c1 e8 16             	shr    $0x16,%eax
   17790:	8b 75 a0             	mov    -0x60(%ebp),%esi
   17793:	8d 34 86             	lea    (%esi,%eax,4),%esi
   17796:	89 75 b0             	mov    %esi,-0x50(%ebp)
   17799:	89 44 24 04          	mov    %eax,0x4(%esp)
   1779d:	c7 04 24 02 04 02 00 	movl   $0x20402,(%esp)
   177a4:	e8 bd 98 ff ff       	call   11066 <Print>
   177a9:	c1 eb 0a             	shr    $0xa,%ebx
   177ac:	81 e3 fc 0f 00 00    	and    $0xffc,%ebx
   177b2:	89 5d ac             	mov    %ebx,-0x54(%ebp)
   177b5:	ba 00 00 00 00       	mov    $0x0,%edx
   177ba:	c7 45 b4 00 00 00 00 	movl   $0x0,-0x4c(%ebp)
   177c1:	8b 45 b0             	mov    -0x50(%ebp),%eax
   177c4:	8d 1c 90             	lea    (%eax,%edx,4),%ebx
   177c7:	f7 03 00 f0 ff ff    	testl  $0xfffff000,(%ebx)
   177cd:	75 64                	jne    17833 <Load_User_Program+0x220>
   177cf:	c7 04 24 11 04 02 00 	movl   $0x20411,(%esp)
   177d6:	e8 8b 98 ff ff       	call   11066 <Print>
   177db:	e8 ff b2 ff ff       	call   12adf <Alloc_Page>
   177e0:	89 c2                	mov    %eax,%edx
   177e2:	89 c7                	mov    %eax,%edi
   177e4:	be 00 10 00 00       	mov    $0x1000,%esi
   177e9:	a8 01                	test   $0x1,%al
   177eb:	74 0a                	je     177f7 <Load_User_Program+0x1e4>
   177ed:	c6 00 00             	movb   $0x0,(%eax)
   177f0:	8d 78 01             	lea    0x1(%eax),%edi
   177f3:	66 be ff 0f          	mov    $0xfff,%si
   177f7:	f7 c7 02 00 00 00    	test   $0x2,%edi
   177fd:	74 0b                	je     1780a <Load_User_Program+0x1f7>
   177ff:	66 c7 07 00 00       	movw   $0x0,(%edi)
   17804:	83 c7 02             	add    $0x2,%edi
   17807:	83 ee 02             	sub    $0x2,%esi
   1780a:	89 f1                	mov    %esi,%ecx
   1780c:	c1 e9 02             	shr    $0x2,%ecx
   1780f:	b8 00 00 00 00       	mov    $0x0,%eax
   17814:	f3 ab                	rep stos %eax,%es:(%edi)
   17816:	f7 c6 02 00 00 00    	test   $0x2,%esi
   1781c:	74 08                	je     17826 <Load_User_Program+0x213>
   1781e:	66 c7 07 00 00       	movw   $0x0,(%edi)
   17823:	83 c7 02             	add    $0x2,%edi
   17826:	f7 c6 01 00 00 00    	test   $0x1,%esi
   1782c:	74 0d                	je     1783b <Load_User_Program+0x228>
   1782e:	c6 07 00             	movb   $0x0,(%edi)
   17831:	eb 08                	jmp    1783b <Load_User_Program+0x228>
   17833:	8b 13                	mov    (%ebx),%edx
   17835:	81 e2 00 f0 ff ff    	and    $0xfffff000,%edx
   1783b:	89 d0                	mov    %edx,%eax
   1783d:	25 00 f0 ff ff       	and    $0xfffff000,%eax
   17842:	8b 0b                	mov    (%ebx),%ecx
   17844:	81 e1 ff 0f 00 00    	and    $0xfff,%ecx
   1784a:	09 c8                	or     %ecx,%eax
   1784c:	89 03                	mov    %eax,(%ebx)
   1784e:	83 e0 e0             	and    $0xffffffe0,%eax
   17851:	83 c8 07             	or     $0x7,%eax
   17854:	88 03                	mov    %al,(%ebx)
   17856:	03 55 ac             	add    -0x54(%ebp),%edx
   17859:	89 55 c0             	mov    %edx,-0x40(%ebp)
   1785c:	8b 45 b4             	mov    -0x4c(%ebp),%eax
   1785f:	c1 e0 16             	shl    $0x16,%eax
   17862:	89 45 bc             	mov    %eax,-0x44(%ebp)
   17865:	ba 00 00 00 00       	mov    $0x0,%edx
   1786a:	c7 45 d0 00 00 00 00 	movl   $0x0,-0x30(%ebp)
   17871:	8b 45 d0             	mov    -0x30(%ebp),%eax
   17874:	c1 e0 0c             	shl    $0xc,%eax
   17877:	03 45 bc             	add    -0x44(%ebp),%eax
   1787a:	89 c6                	mov    %eax,%esi
   1787c:	89 45 c8             	mov    %eax,-0x38(%ebp)
   1787f:	03 45 b8             	add    -0x48(%ebp),%eax
   17882:	25 00 f0 ff ff       	and    $0xfffff000,%eax
   17887:	89 45 c4             	mov    %eax,-0x3c(%ebp)
   1788a:	8b 5d c0             	mov    -0x40(%ebp),%ebx
   1788d:	8d 1c 93             	lea    (%ebx,%edx,4),%ebx
   17890:	89 44 24 04          	mov    %eax,0x4(%esp)
   17894:	89 1c 24             	mov    %ebx,(%esp)
   17897:	e8 01 b4 ff ff       	call   12c9d <Alloc_Pageable_Page>
   1789c:	89 c2                	mov    %eax,%edx
   1789e:	81 e2 00 f0 ff ff    	and    $0xfffff000,%edx
   178a4:	8b 0b                	mov    (%ebx),%ecx
   178a6:	81 e1 ff 0f 00 00    	and    $0xfff,%ecx
   178ac:	09 ca                	or     %ecx,%edx
   178ae:	89 13                	mov    %edx,(%ebx)
   178b0:	8b 7d cc             	mov    -0x34(%ebp),%edi
   178b3:	89 f1                	mov    %esi,%ecx
   178b5:	03 0f                	add    (%edi),%ecx
   178b7:	81 e1 00 f0 ff ff    	and    $0xfffff000,%ecx
   178bd:	03 4d 08             	add    0x8(%ebp),%ecx
   178c0:	89 c7                	mov    %eax,%edi
   178c2:	89 4d d4             	mov    %ecx,-0x2c(%ebp)
   178c5:	ba 00 10 00 00       	mov    $0x1000,%edx
   178ca:	a8 01                	test   $0x1,%al
   178cc:	74 13                	je     178e1 <Load_User_Program+0x2ce>
   178ce:	0f b6 11             	movzbl (%ecx),%edx
   178d1:	88 10                	mov    %dl,(%eax)
   178d3:	8d 78 01             	lea    0x1(%eax),%edi
   178d6:	8d 71 01             	lea    0x1(%ecx),%esi
   178d9:	89 75 d4             	mov    %esi,-0x2c(%ebp)
   178dc:	ba ff 0f 00 00       	mov    $0xfff,%edx
   178e1:	f7 c7 02 00 00 00    	test   $0x2,%edi
   178e7:	74 13                	je     178fc <Load_User_Program+0x2e9>
   178e9:	8b 75 d4             	mov    -0x2c(%ebp),%esi
   178ec:	0f b7 0e             	movzwl (%esi),%ecx
   178ef:	66 89 0f             	mov    %cx,(%edi)
   178f2:	83 c7 02             	add    $0x2,%edi
   178f5:	83 45 d4 02          	addl   $0x2,-0x2c(%ebp)
   178f9:	83 ea 02             	sub    $0x2,%edx
   178fc:	89 d1                	mov    %edx,%ecx
   178fe:	c1 e9 02             	shr    $0x2,%ecx
   17901:	8b 75 d4             	mov    -0x2c(%ebp),%esi
   17904:	f3 a5                	rep movsl %ds:(%esi),%es:(%edi)
   17906:	89 75 d4             	mov    %esi,-0x2c(%ebp)
   17909:	f6 c2 02             	test   $0x2,%dl
   1790c:	74 12                	je     17920 <Load_User_Program+0x30d>
   1790e:	0f b7 0c 0e          	movzwl (%esi,%ecx,1),%ecx
   17912:	be 00 00 00 00       	mov    $0x0,%esi
   17917:	66 89 0c 37          	mov    %cx,(%edi,%esi,1)
   1791b:	b9 02 00 00 00       	mov    $0x2,%ecx
   17920:	f6 c2 01             	test   $0x1,%dl
   17923:	74 0a                	je     1792f <Load_User_Program+0x31c>
   17925:	8b 75 d4             	mov    -0x2c(%ebp),%esi
   17928:	0f b6 14 0e          	movzbl (%esi,%ecx,1),%edx
   1792c:	88 14 0f             	mov    %dl,(%edi,%ecx,1)
   1792f:	8b 7d cc             	mov    -0x34(%ebp),%edi
   17932:	8b 55 c8             	mov    -0x38(%ebp),%edx
   17935:	03 17                	add    (%edi),%edx
   17937:	81 e2 00 f0 ff ff    	and    $0xfffff000,%edx
   1793d:	89 54 24 10          	mov    %edx,0x10(%esp)
   17941:	8b 10                	mov    (%eax),%edx
   17943:	89 54 24 0c          	mov    %edx,0xc(%esp)
   17947:	89 44 24 08          	mov    %eax,0x8(%esp)
   1794b:	8b 45 c4             	mov    -0x3c(%ebp),%eax
   1794e:	89 44 24 04          	mov    %eax,0x4(%esp)
   17952:	c7 04 24 30 04 02 00 	movl   $0x20430,(%esp)
   17959:	e8 08 97 ff ff       	call   11066 <Print>
   1795e:	0f b6 03             	movzbl (%ebx),%eax
   17961:	83 e0 e0             	and    $0xffffffe0,%eax
   17964:	83 c8 07             	or     $0x7,%eax
   17967:	88 03                	mov    %al,(%ebx)
   17969:	83 45 d0 01          	addl   $0x1,-0x30(%ebp)
   1796d:	8b 75 d0             	mov    -0x30(%ebp),%esi
   17970:	89 f2                	mov    %esi,%edx
   17972:	8b 47 04             	mov    0x4(%edi),%eax
   17975:	89 c1                	mov    %eax,%ecx
   17977:	c1 e9 0c             	shr    $0xc,%ecx
   1797a:	81 e1 ff 03 00 00    	and    $0x3ff,%ecx
   17980:	39 ce                	cmp    %ecx,%esi
   17982:	0f 86 e9 fe ff ff    	jbe    17871 <Load_User_Program+0x25e>
   17988:	83 45 b4 01          	addl   $0x1,-0x4c(%ebp)
   1798c:	8b 75 b4             	mov    -0x4c(%ebp),%esi
   1798f:	89 f2                	mov    %esi,%edx
   17991:	c1 e8 16             	shr    $0x16,%eax
   17994:	39 c6                	cmp    %eax,%esi
   17996:	0f 86 25 fe ff ff    	jbe    177c1 <Load_User_Program+0x1ae>
   1799c:	83 45 a8 01          	addl   $0x1,-0x58(%ebp)
   179a0:	83 45 a4 14          	addl   $0x14,-0x5c(%ebp)
   179a4:	8b 45 10             	mov    0x10(%ebp),%eax
   179a7:	8b 75 a8             	mov    -0x58(%ebp),%esi
   179aa:	39 70 3c             	cmp    %esi,0x3c(%eax)
   179ad:	0f 8f 9a fd ff ff    	jg     1774d <Load_User_Program+0x13a>
   179b3:	e8 27 b1 ff ff       	call   12adf <Alloc_Page>
   179b8:	89 c2                	mov    %eax,%edx
   179ba:	89 c7                	mov    %eax,%edi
   179bc:	bb 00 10 00 00       	mov    $0x1000,%ebx
   179c1:	a8 01                	test   $0x1,%al
   179c3:	74 0a                	je     179cf <Load_User_Program+0x3bc>
   179c5:	c6 00 00             	movb   $0x0,(%eax)
   179c8:	8d 78 01             	lea    0x1(%eax),%edi
   179cb:	66 bb ff 0f          	mov    $0xfff,%bx
   179cf:	f7 c7 02 00 00 00    	test   $0x2,%edi
   179d5:	74 0b                	je     179e2 <Load_User_Program+0x3cf>
   179d7:	66 c7 07 00 00       	movw   $0x0,(%edi)
   179dc:	83 c7 02             	add    $0x2,%edi
   179df:	83 eb 02             	sub    $0x2,%ebx
   179e2:	89 d9                	mov    %ebx,%ecx
   179e4:	c1 e9 02             	shr    $0x2,%ecx
   179e7:	b8 00 00 00 00       	mov    $0x0,%eax
   179ec:	f3 ab                	rep stos %eax,%es:(%edi)
   179ee:	f6 c3 02             	test   $0x2,%bl
   179f1:	74 08                	je     179fb <Load_User_Program+0x3e8>
   179f3:	66 c7 07 00 00       	movw   $0x0,(%edi)
   179f8:	83 c7 02             	add    $0x2,%edi
   179fb:	f6 c3 01             	test   $0x1,%bl
   179fe:	74 03                	je     17a03 <Load_User_Program+0x3f0>
   17a00:	c6 07 00             	movb   $0x0,(%edi)
   17a03:	89 d0                	mov    %edx,%eax
   17a05:	25 00 f0 ff ff       	and    $0xfffff000,%eax
   17a0a:	8b 75 a0             	mov    -0x60(%ebp),%esi
   17a0d:	8b 9e fc 0f 00 00    	mov    0xffc(%esi),%ebx
   17a13:	89 5d d4             	mov    %ebx,-0x2c(%ebp)
   17a16:	89 d9                	mov    %ebx,%ecx
   17a18:	81 e1 ff 0f 00 00    	and    $0xfff,%ecx
   17a1e:	09 c8                	or     %ecx,%eax
   17a20:	89 86 fc 0f 00 00    	mov    %eax,0xffc(%esi)
   17a26:	83 e0 e0             	and    $0xffffffe0,%eax
   17a29:	83 c8 07             	or     $0x7,%eax
   17a2c:	88 86 fc 0f 00 00    	mov    %al,0xffc(%esi)
   17a32:	8b 45 e0             	mov    -0x20(%ebp),%eax
   17a35:	8d 98 00 20 00 00    	lea    0x2000(%eax),%ebx
   17a3b:	c1 eb 0c             	shr    $0xc,%ebx
   17a3e:	f7 d3                	not    %ebx
   17a40:	81 e3 ff 03 00 00    	and    $0x3ff,%ebx
   17a46:	8d 34 9a             	lea    (%edx,%ebx,4),%esi
   17a49:	89 d8                	mov    %ebx,%eax
   17a4b:	c1 e0 0c             	shl    $0xc,%eax
   17a4e:	05 00 00 c0 7f       	add    $0x7fc00000,%eax
   17a53:	89 44 24 04          	mov    %eax,0x4(%esp)
   17a57:	89 34 24             	mov    %esi,(%esp)
   17a5a:	e8 3e b2 ff ff       	call   12c9d <Alloc_Pageable_Page>
   17a5f:	89 c2                	mov    %eax,%edx
   17a61:	81 e2 00 f0 ff ff    	and    $0xfffff000,%edx
   17a67:	8b 0e                	mov    (%esi),%ecx
   17a69:	81 e1 ff 0f 00 00    	and    $0xfff,%ecx
   17a6f:	09 ca                	or     %ecx,%edx
   17a71:	89 16                	mov    %edx,(%esi)
   17a73:	83 e2 e0             	and    $0xffffffe0,%edx
   17a76:	83 ca 07             	or     $0x7,%edx
   17a79:	88 16                	mov    %dl,(%esi)
   17a7b:	83 c3 01             	add    $0x1,%ebx
   17a7e:	83 c6 04             	add    $0x4,%esi
   17a81:	81 fb 00 04 00 00    	cmp    $0x400,%ebx
   17a87:	75 c0                	jne    17a49 <Load_User_Program+0x436>
   17a89:	8b 75 14             	mov    0x14(%ebp),%esi
   17a8c:	89 74 24 0c          	mov    %esi,0xc(%esp)
   17a90:	c7 44 24 08 00 f0 ff 	movl   $0x7ffff000,0x8(%esp)
   17a97:	7f 
   17a98:	8b 55 e4             	mov    -0x1c(%ebp),%edx
   17a9b:	89 54 24 04          	mov    %edx,0x4(%esp)
   17a9f:	89 04 24             	mov    %eax,(%esp)
   17aa2:	e8 b6 02 00 00       	call   17d5d <Format_Argument_Block>
   17aa7:	c7 04 24 38 00 00 00 	movl   $0x38,(%esp)
   17aae:	e8 87 c9 ff ff       	call   1443a <Malloc>
   17ab3:	8b 75 18             	mov    0x18(%ebp),%esi
   17ab6:	89 06                	mov    %eax,(%esi)
   17ab8:	c7 40 14 00 00 00 00 	movl   $0x0,0x14(%eax)
   17abf:	8b 06                	mov    (%esi),%eax
   17ac1:	8b 75 9c             	mov    -0x64(%ebp),%esi
   17ac4:	89 70 18             	mov    %esi,0x18(%eax)
   17ac7:	8b 45 18             	mov    0x18(%ebp),%eax
   17aca:	8b 00                	mov    (%eax),%eax
   17acc:	8b 75 10             	mov    0x10(%ebp),%esi
   17acf:	8b 56 40             	mov    0x40(%esi),%edx
   17ad2:	89 50 28             	mov    %edx,0x28(%eax)
   17ad5:	8b 45 18             	mov    0x18(%ebp),%eax
   17ad8:	8b 00                	mov    (%eax),%eax
   17ada:	c7 40 30 00 f0 ff 7f 	movl   $0x7ffff000,0x30(%eax)
   17ae1:	8b 45 18             	mov    0x18(%ebp),%eax
   17ae4:	8b 00                	mov    (%eax),%eax
   17ae6:	c7 40 2c 00 f0 ff 7f 	movl   $0x7ffff000,0x2c(%eax)
   17aed:	8b 45 18             	mov    0x18(%ebp),%eax
   17af0:	8b 00                	mov    (%eax),%eax
   17af2:	c7 40 34 00 00 00 00 	movl   $0x0,0x34(%eax)
   17af9:	8b 45 18             	mov    0x18(%ebp),%eax
   17afc:	8b 00                	mov    (%eax),%eax
   17afe:	8b 75 a0             	mov    -0x60(%ebp),%esi
   17b01:	89 70 24             	mov    %esi,0x24(%eax)
   17b04:	e8 b7 b8 ff ff       	call   133c0 <Allocate_Segment_Descriptor>
   17b09:	89 c3                	mov    %eax,%ebx
   17b0b:	c7 44 24 08 02 00 00 	movl   $0x2,0x8(%esp)
   17b12:	00 
   17b13:	8b 45 18             	mov    0x18(%ebp),%eax
   17b16:	8b 00                	mov    (%eax),%eax
   17b18:	89 44 24 04          	mov    %eax,0x4(%esp)
   17b1c:	89 1c 24             	mov    %ebx,(%esp)
   17b1f:	e8 fa bf ff ff       	call   13b1e <Init_LDT_Descriptor>
   17b24:	89 1c 24             	mov    %ebx,(%esp)
   17b27:	e8 72 bb ff ff       	call   1369e <Get_Descriptor_Index>
   17b2c:	8b 75 18             	mov    0x18(%ebp),%esi
   17b2f:	8b 16                	mov    (%esi),%edx
   17b31:	89 5a 10             	mov    %ebx,0x10(%edx)
   17b34:	8b 16                	mov    (%esi),%edx
   17b36:	c1 e0 03             	shl    $0x3,%eax
   17b39:	66 89 42 1c          	mov    %ax,0x1c(%edx)
   17b3d:	c7 44 24 0c 03 00 00 	movl   $0x3,0xc(%esp)
   17b44:	00 
   17b45:	c7 44 24 08 00 00 08 	movl   $0x80000,0x8(%esp)
   17b4c:	00 
   17b4d:	c7 44 24 04 00 00 00 	movl   $0x80000000,0x4(%esp)
   17b54:	80 
   17b55:	8b 06                	mov    (%esi),%eax
   17b57:	89 04 24             	mov    %eax,(%esp)
   17b5a:	e8 96 bd ff ff       	call   138f5 <Init_Code_Segment_Descriptor>
   17b5f:	8b 45 18             	mov    0x18(%ebp),%eax
   17b62:	8b 00                	mov    (%eax),%eax
   17b64:	66 c7 40 1e 07 00    	movw   $0x7,0x1e(%eax)
   17b6a:	c7 44 24 0c 03 00 00 	movl   $0x3,0xc(%esp)
   17b71:	00 
   17b72:	c7 44 24 08 00 00 08 	movl   $0x80000,0x8(%esp)
   17b79:	00 
   17b7a:	c7 44 24 04 00 00 00 	movl   $0x80000000,0x4(%esp)
   17b81:	80 
   17b82:	8b 45 18             	mov    0x18(%ebp),%eax
   17b85:	8b 00                	mov    (%eax),%eax
   17b87:	89 45 d4             	mov    %eax,-0x2c(%ebp)
   17b8a:	83 c0 08             	add    $0x8,%eax
   17b8d:	89 04 24             	mov    %eax,(%esp)
   17b90:	e8 5a be ff ff       	call   139ef <Init_Data_Segment_Descriptor>
   17b95:	8b 45 18             	mov    0x18(%ebp),%eax
   17b98:	8b 00                	mov    (%eax),%eax
   17b9a:	66 c7 40 20 0f 00    	movw   $0xf,0x20(%eax)
   17ba0:	8b 45 10             	mov    0x10(%ebp),%eax
   17ba3:	8b 40 40             	mov    0x40(%eax),%eax
   17ba6:	89 44 24 04          	mov    %eax,0x4(%esp)
   17baa:	c7 04 24 20 04 02 00 	movl   $0x20420,(%esp)
   17bb1:	e8 b0 94 ff ff       	call   11066 <Print>
   17bb6:	b8 00 00 00 00       	mov    $0x0,%eax
   17bbb:	83 c4 6c             	add    $0x6c,%esp
   17bbe:	5b                   	pop    %ebx
   17bbf:	5e                   	pop    %esi
   17bc0:	5f                   	pop    %edi
   17bc1:	5d                   	pop    %ebp
   17bc2:	c3                   	ret    

00017bc3 <Copy_From_User>:
   17bc3:	55                   	push   %ebp
   17bc4:	89 e5                	mov    %esp,%ebp
   17bc6:	83 ec 28             	sub    $0x28,%esp
   17bc9:	e8 71 86 ff ff       	call   1023f <Interrupts_Enabled>
   17bce:	84 c0                	test   %al,%al
   17bd0:	74 4a                	je     17c1c <Copy_From_User+0x59>
   17bd2:	c7 04 24 4f 00 00 00 	movl   $0x4f,(%esp)
   17bd9:	e8 dd 95 ff ff       	call   111bb <Set_Current_Attr>
   17bde:	a1 6c 5e 02 00       	mov    0x25e6c,%eax
   17be3:	89 44 24 18          	mov    %eax,0x18(%esp)
   17be7:	8b 45 04             	mov    0x4(%ebp),%eax
   17bea:	89 44 24 14          	mov    %eax,0x14(%esp)
   17bee:	c7 44 24 10 54 01 00 	movl   $0x154,0x10(%esp)
   17bf5:	00 
   17bf6:	c7 44 24 0c bf 03 02 	movl   $0x203bf,0xc(%esp)
   17bfd:	00 
   17bfe:	c7 44 24 08 d2 ef 01 	movl   $0x1efd2,0x8(%esp)
   17c05:	00 
   17c06:	c7 44 24 04 5a 04 02 	movl   $0x2045a,0x4(%esp)
   17c0d:	00 
   17c0e:	c7 04 24 b4 ee 01 00 	movl   $0x1eeb4,(%esp)
   17c15:	e8 4c 94 ff ff       	call   11066 <Print>
   17c1a:	eb fe                	jmp    17c1a <Copy_From_User+0x57>
   17c1c:	8b 45 0c             	mov    0xc(%ebp),%eax
   17c1f:	05 00 00 00 80       	add    $0x80000000,%eax
   17c24:	8b 55 10             	mov    0x10(%ebp),%edx
   17c27:	89 54 24 08          	mov    %edx,0x8(%esp)
   17c2b:	89 44 24 04          	mov    %eax,0x4(%esp)
   17c2f:	8b 45 08             	mov    0x8(%ebp),%eax
   17c32:	89 04 24             	mov    %eax,(%esp)
   17c35:	e8 b9 6d 00 00       	call   1e9f3 <memcpy>
   17c3a:	b8 01 00 00 00       	mov    $0x1,%eax
   17c3f:	c9                   	leave  
   17c40:	c3                   	ret    

00017c41 <Copy_To_User>:
   17c41:	55                   	push   %ebp
   17c42:	89 e5                	mov    %esp,%ebp
   17c44:	83 ec 18             	sub    $0x18,%esp
   17c47:	8b 45 08             	mov    0x8(%ebp),%eax
   17c4a:	05 00 00 00 80       	add    $0x80000000,%eax
   17c4f:	8b 55 10             	mov    0x10(%ebp),%edx
   17c52:	89 54 24 08          	mov    %edx,0x8(%esp)
   17c56:	8b 55 0c             	mov    0xc(%ebp),%edx
   17c59:	89 54 24 04          	mov    %edx,0x4(%esp)
   17c5d:	89 04 24             	mov    %eax,(%esp)
   17c60:	e8 8e 6d 00 00       	call   1e9f3 <memcpy>
   17c65:	b8 01 00 00 00       	mov    $0x1,%eax
   17c6a:	c9                   	leave  
   17c6b:	c3                   	ret    

00017c6c <Switch_To_Address_Space>:
   17c6c:	55                   	push   %ebp
   17c6d:	89 e5                	mov    %esp,%ebp
   17c6f:	53                   	push   %ebx
   17c70:	83 ec 14             	sub    $0x14,%esp
   17c73:	8b 5d 08             	mov    0x8(%ebp),%ebx
   17c76:	0f b7 43 1c          	movzwl 0x1c(%ebx),%eax
   17c7a:	89 04 24             	mov    %eax,(%esp)
   17c7d:	e8 06 54 00 00       	call   1d088 <Load_LDTR>
   17c82:	8b 43 24             	mov    0x24(%ebx),%eax
   17c85:	89 04 24             	mov    %eax,(%esp)
   17c88:	e8 23 54 00 00       	call   1d0b0 <Set_PDBR>
   17c8d:	83 c4 14             	add    $0x14,%esp
   17c90:	5b                   	pop    %ebx
   17c91:	5d                   	pop    %ebp
   17c92:	c3                   	ret    
   17c93:	66 90                	xchg   %ax,%ax
   17c95:	66 90                	xchg   %ax,%ax
   17c97:	66 90                	xchg   %ax,%ax
   17c99:	66 90                	xchg   %ax,%ax
   17c9b:	66 90                	xchg   %ax,%ax
   17c9d:	66 90                	xchg   %ax,%ax
   17c9f:	90                   	nop

00017ca0 <Is_Space>:
   17ca0:	55                   	push   %ebp
   17ca1:	89 e5                	mov    %esp,%ebp
   17ca3:	83 f8 20             	cmp    $0x20,%eax
   17ca6:	74 13                	je     17cbb <Is_Space+0x1b>
   17ca8:	8d 50 f7             	lea    -0x9(%eax),%edx
   17cab:	83 fa 01             	cmp    $0x1,%edx
   17cae:	76 0b                	jbe    17cbb <Is_Space+0x1b>
   17cb0:	83 f8 0d             	cmp    $0xd,%eax
   17cb3:	0f 94 c0             	sete   %al
   17cb6:	0f b6 c0             	movzbl %al,%eax
   17cb9:	eb 05                	jmp    17cc0 <Is_Space+0x20>
   17cbb:	b8 01 00 00 00       	mov    $0x1,%eax
   17cc0:	83 e0 01             	and    $0x1,%eax
   17cc3:	5d                   	pop    %ebp
   17cc4:	c3                   	ret    

00017cc5 <Get_Argument_Len>:
   17cc5:	55                   	push   %ebp
   17cc6:	89 e5                	mov    %esp,%ebp
   17cc8:	56                   	push   %esi
   17cc9:	53                   	push   %ebx
   17cca:	89 c6                	mov    %eax,%esi
   17ccc:	0f b6 10             	movzbl (%eax),%edx
   17ccf:	84 d2                	test   %dl,%dl
   17cd1:	74 20                	je     17cf3 <Get_Argument_Len+0x2e>
   17cd3:	bb 00 00 00 00       	mov    $0x0,%ebx
   17cd8:	eb 0b                	jmp    17ce5 <Get_Argument_Len+0x20>
   17cda:	83 c3 01             	add    $0x1,%ebx
   17cdd:	0f b6 14 1e          	movzbl (%esi,%ebx,1),%edx
   17ce1:	84 d2                	test   %dl,%dl
   17ce3:	74 13                	je     17cf8 <Get_Argument_Len+0x33>
   17ce5:	0f be c2             	movsbl %dl,%eax
   17ce8:	e8 b3 ff ff ff       	call   17ca0 <Is_Space>
   17ced:	84 c0                	test   %al,%al
   17cef:	74 e9                	je     17cda <Get_Argument_Len+0x15>
   17cf1:	eb 05                	jmp    17cf8 <Get_Argument_Len+0x33>
   17cf3:	bb 00 00 00 00       	mov    $0x0,%ebx
   17cf8:	89 d8                	mov    %ebx,%eax
   17cfa:	5b                   	pop    %ebx
   17cfb:	5e                   	pop    %esi
   17cfc:	5d                   	pop    %ebp
   17cfd:	c3                   	ret    

00017cfe <Get_Argument_Block_Size>:
   17cfe:	55                   	push   %ebp
   17cff:	89 e5                	mov    %esp,%ebp
   17d01:	57                   	push   %edi
   17d02:	56                   	push   %esi
   17d03:	53                   	push   %ebx
   17d04:	83 ec 04             	sub    $0x4,%esp
   17d07:	8b 5d 08             	mov    0x8(%ebp),%ebx
   17d0a:	c7 45 f0 00 00 00 00 	movl   $0x0,-0x10(%ebp)
   17d11:	bf 08 00 00 00       	mov    $0x8,%edi
   17d16:	eb 03                	jmp    17d1b <Get_Argument_Block_Size+0x1d>
   17d18:	83 c3 01             	add    $0x1,%ebx
   17d1b:	0f b6 33             	movzbl (%ebx),%esi
   17d1e:	89 f0                	mov    %esi,%eax
   17d20:	0f be c0             	movsbl %al,%eax
   17d23:	e8 78 ff ff ff       	call   17ca0 <Is_Space>
   17d28:	84 c0                	test   %al,%al
   17d2a:	75 ec                	jne    17d18 <Get_Argument_Block_Size+0x1a>
   17d2c:	89 f0                	mov    %esi,%eax
   17d2e:	84 c0                	test   %al,%al
   17d30:	74 13                	je     17d45 <Get_Argument_Block_Size+0x47>
   17d32:	89 d8                	mov    %ebx,%eax
   17d34:	e8 8c ff ff ff       	call   17cc5 <Get_Argument_Len>
   17d39:	01 c3                	add    %eax,%ebx
   17d3b:	8d 7c 07 05          	lea    0x5(%edi,%eax,1),%edi
   17d3f:	83 45 f0 01          	addl   $0x1,-0x10(%ebp)
   17d43:	eb d6                	jmp    17d1b <Get_Argument_Block_Size+0x1d>
   17d45:	8b 45 0c             	mov    0xc(%ebp),%eax
   17d48:	8b 55 f0             	mov    -0x10(%ebp),%edx
   17d4b:	89 10                	mov    %edx,(%eax)
   17d4d:	83 c7 04             	add    $0x4,%edi
   17d50:	8b 45 10             	mov    0x10(%ebp),%eax
   17d53:	89 38                	mov    %edi,(%eax)
   17d55:	83 c4 04             	add    $0x4,%esp
   17d58:	5b                   	pop    %ebx
   17d59:	5e                   	pop    %esi
   17d5a:	5f                   	pop    %edi
   17d5b:	5d                   	pop    %ebp
   17d5c:	c3                   	ret    

00017d5d <Format_Argument_Block>:
   17d5d:	55                   	push   %ebp
   17d5e:	89 e5                	mov    %esp,%ebp
   17d60:	57                   	push   %edi
   17d61:	56                   	push   %esi
   17d62:	53                   	push   %ebx
   17d63:	83 ec 1c             	sub    $0x1c,%esp
   17d66:	8b 45 0c             	mov    0xc(%ebp),%eax
   17d69:	8b 5d 14             	mov    0x14(%ebp),%ebx
   17d6c:	8b 55 08             	mov    0x8(%ebp),%edx
   17d6f:	89 02                	mov    %eax,(%edx)
   17d71:	8b 55 10             	mov    0x10(%ebp),%edx
   17d74:	83 c2 08             	add    $0x8,%edx
   17d77:	8b 4d 08             	mov    0x8(%ebp),%ecx
   17d7a:	89 51 04             	mov    %edx,0x4(%ecx)
   17d7d:	89 ca                	mov    %ecx,%edx
   17d7f:	83 c2 08             	add    $0x8,%edx
   17d82:	89 55 e4             	mov    %edx,-0x1c(%ebp)
   17d85:	8d 7c 82 04          	lea    0x4(%edx,%eax,4),%edi
   17d89:	eb 03                	jmp    17d8e <Format_Argument_Block+0x31>
   17d8b:	83 c3 01             	add    $0x1,%ebx
   17d8e:	0f b6 33             	movzbl (%ebx),%esi
   17d91:	89 f0                	mov    %esi,%eax
   17d93:	0f be c0             	movsbl %al,%eax
   17d96:	e8 05 ff ff ff       	call   17ca0 <Is_Space>
   17d9b:	84 c0                	test   %al,%al
   17d9d:	75 ec                	jne    17d8b <Format_Argument_Block+0x2e>
   17d9f:	89 f0                	mov    %esi,%eax
   17da1:	84 c0                	test   %al,%al
   17da3:	74 38                	je     17ddd <Format_Argument_Block+0x80>
   17da5:	83 45 e4 04          	addl   $0x4,-0x1c(%ebp)
   17da9:	89 f8                	mov    %edi,%eax
   17dab:	2b 45 08             	sub    0x8(%ebp),%eax
   17dae:	03 45 10             	add    0x10(%ebp),%eax
   17db1:	8b 4d e4             	mov    -0x1c(%ebp),%ecx
   17db4:	89 41 fc             	mov    %eax,-0x4(%ecx)
   17db7:	89 d8                	mov    %ebx,%eax
   17db9:	e8 07 ff ff ff       	call   17cc5 <Get_Argument_Len>
   17dbe:	89 c6                	mov    %eax,%esi
   17dc0:	89 44 24 08          	mov    %eax,0x8(%esp)
   17dc4:	89 5c 24 04          	mov    %ebx,0x4(%esp)
   17dc8:	89 3c 24             	mov    %edi,(%esp)
   17dcb:	e8 23 6c 00 00       	call   1e9f3 <memcpy>
   17dd0:	8d 04 37             	lea    (%edi,%esi,1),%eax
   17dd3:	8d 78 01             	lea    0x1(%eax),%edi
   17dd6:	c6 00 00             	movb   $0x0,(%eax)
   17dd9:	01 f3                	add    %esi,%ebx
   17ddb:	eb b1                	jmp    17d8e <Format_Argument_Block+0x31>
   17ddd:	8b 45 e4             	mov    -0x1c(%ebp),%eax
   17de0:	c7 00 00 00 00 00    	movl   $0x0,(%eax)
   17de6:	83 c4 1c             	add    $0x1c,%esp
   17de9:	5b                   	pop    %ebx
   17dea:	5e                   	pop    %esi
   17deb:	5f                   	pop    %edi
   17dec:	5d                   	pop    %ebp
   17ded:	c3                   	ret    

00017dee <Sys_Null>:
   17dee:	55                   	push   %ebp
   17def:	89 e5                	mov    %esp,%ebp
   17df1:	b8 00 00 00 00       	mov    $0x0,%eax
   17df6:	5d                   	pop    %ebp
   17df7:	c3                   	ret    

00017df8 <Sys_DestroySemaphore>:
   17df8:	55                   	push   %ebp
   17df9:	89 e5                	mov    %esp,%ebp
   17dfb:	83 ec 18             	sub    $0x18,%esp
   17dfe:	c7 04 24 1f 00 00 00 	movl   $0x1f,(%esp)
   17e05:	e8 b1 93 ff ff       	call   111bb <Set_Current_Attr>
   17e0a:	c7 44 24 04 7e 04 02 	movl   $0x2047e,0x4(%esp)
   17e11:	00 
   17e12:	c7 04 24 9b 04 02 00 	movl   $0x2049b,(%esp)
   17e19:	e8 48 92 ff ff       	call   11066 <Print>
   17e1e:	eb fe                	jmp    17e1e <Sys_DestroySemaphore+0x26>

00017e20 <Sys_V>:
   17e20:	55                   	push   %ebp
   17e21:	89 e5                	mov    %esp,%ebp
   17e23:	83 ec 18             	sub    $0x18,%esp
   17e26:	c7 04 24 1f 00 00 00 	movl   $0x1f,(%esp)
   17e2d:	e8 89 93 ff ff       	call   111bb <Set_Current_Attr>
   17e32:	c7 44 24 04 40 05 02 	movl   $0x20540,0x4(%esp)
   17e39:	00 
   17e3a:	c7 04 24 9b 04 02 00 	movl   $0x2049b,(%esp)
   17e41:	e8 20 92 ff ff       	call   11066 <Print>
   17e46:	eb fe                	jmp    17e46 <Sys_V+0x26>

00017e48 <Sys_P>:
   17e48:	55                   	push   %ebp
   17e49:	89 e5                	mov    %esp,%ebp
   17e4b:	83 ec 18             	sub    $0x18,%esp
   17e4e:	c7 04 24 1f 00 00 00 	movl   $0x1f,(%esp)
   17e55:	e8 61 93 ff ff       	call   111bb <Set_Current_Attr>
   17e5a:	c7 44 24 04 64 05 02 	movl   $0x20564,0x4(%esp)
   17e61:	00 
   17e62:	c7 04 24 9b 04 02 00 	movl   $0x2049b,(%esp)
   17e69:	e8 f8 91 ff ff       	call   11066 <Print>
   17e6e:	eb fe                	jmp    17e6e <Sys_P+0x26>

00017e70 <Sys_CreateSemaphore>:
   17e70:	55                   	push   %ebp
   17e71:	89 e5                	mov    %esp,%ebp
   17e73:	83 ec 18             	sub    $0x18,%esp
   17e76:	c7 04 24 1f 00 00 00 	movl   $0x1f,(%esp)
   17e7d:	e8 39 93 ff ff       	call   111bb <Set_Current_Attr>
   17e82:	c7 44 24 04 b6 04 02 	movl   $0x204b6,0x4(%esp)
   17e89:	00 
   17e8a:	c7 04 24 9b 04 02 00 	movl   $0x2049b,(%esp)
   17e91:	e8 d0 91 ff ff       	call   11066 <Print>
   17e96:	eb fe                	jmp    17e96 <Sys_CreateSemaphore+0x26>

00017e98 <Sys_GetTimeOfDay>:
   17e98:	55                   	push   %ebp
   17e99:	89 e5                	mov    %esp,%ebp
   17e9b:	83 ec 18             	sub    $0x18,%esp
   17e9e:	c7 04 24 1f 00 00 00 	movl   $0x1f,(%esp)
   17ea5:	e8 11 93 ff ff       	call   111bb <Set_Current_Attr>
   17eaa:	c7 44 24 04 d2 04 02 	movl   $0x204d2,0x4(%esp)
   17eb1:	00 
   17eb2:	c7 04 24 9b 04 02 00 	movl   $0x2049b,(%esp)
   17eb9:	e8 a8 91 ff ff       	call   11066 <Print>
   17ebe:	eb fe                	jmp    17ebe <Sys_GetTimeOfDay+0x26>

00017ec0 <Sys_SetSchedulingPolicy>:
   17ec0:	55                   	push   %ebp
   17ec1:	89 e5                	mov    %esp,%ebp
   17ec3:	83 ec 18             	sub    $0x18,%esp
   17ec6:	c7 04 24 1f 00 00 00 	movl   $0x1f,(%esp)
   17ecd:	e8 e9 92 ff ff       	call   111bb <Set_Current_Attr>
   17ed2:	c7 44 24 04 88 05 02 	movl   $0x20588,0x4(%esp)
   17ed9:	00 
   17eda:	c7 04 24 9b 04 02 00 	movl   $0x2049b,(%esp)
   17ee1:	e8 80 91 ff ff       	call   11066 <Print>
   17ee6:	eb fe                	jmp    17ee6 <Sys_SetSchedulingPolicy+0x26>

00017ee8 <Sys_GetPID>:
   17ee8:	55                   	push   %ebp
   17ee9:	89 e5                	mov    %esp,%ebp
   17eeb:	83 ec 18             	sub    $0x18,%esp
   17eee:	c7 04 24 1f 00 00 00 	movl   $0x1f,(%esp)
   17ef5:	e8 c1 92 ff ff       	call   111bb <Set_Current_Attr>
   17efa:	c7 44 24 04 eb 04 02 	movl   $0x204eb,0x4(%esp)
   17f01:	00 
   17f02:	c7 04 24 9b 04 02 00 	movl   $0x2049b,(%esp)
   17f09:	e8 58 91 ff ff       	call   11066 <Print>
   17f0e:	eb fe                	jmp    17f0e <Sys_GetPID+0x26>

00017f10 <Sys_PutCursor>:
   17f10:	55                   	push   %ebp
   17f11:	89 e5                	mov    %esp,%ebp
   17f13:	83 ec 18             	sub    $0x18,%esp
   17f16:	c7 04 24 1f 00 00 00 	movl   $0x1f,(%esp)
   17f1d:	e8 99 92 ff ff       	call   111bb <Set_Current_Attr>
   17f22:	c7 44 24 04 fe 04 02 	movl   $0x204fe,0x4(%esp)
   17f29:	00 
   17f2a:	c7 04 24 9b 04 02 00 	movl   $0x2049b,(%esp)
   17f31:	e8 30 91 ff ff       	call   11066 <Print>
   17f36:	eb fe                	jmp    17f36 <Sys_PutCursor+0x26>

00017f38 <Sys_SetAttr>:
   17f38:	55                   	push   %ebp
   17f39:	89 e5                	mov    %esp,%ebp
   17f3b:	83 ec 18             	sub    $0x18,%esp
   17f3e:	c7 04 24 1f 00 00 00 	movl   $0x1f,(%esp)
   17f45:	e8 71 92 ff ff       	call   111bb <Set_Current_Attr>
   17f4a:	c7 44 24 04 14 05 02 	movl   $0x20514,0x4(%esp)
   17f51:	00 
   17f52:	c7 04 24 9b 04 02 00 	movl   $0x2049b,(%esp)
   17f59:	e8 08 91 ff ff       	call   11066 <Print>
   17f5e:	eb fe                	jmp    17f5e <Sys_SetAttr+0x26>

00017f60 <Sys_Wait>:
   17f60:	55                   	push   %ebp
   17f61:	89 e5                	mov    %esp,%ebp
   17f63:	53                   	push   %ebx
   17f64:	83 ec 24             	sub    $0x24,%esp
   17f67:	e8 d3 82 ff ff       	call   1023f <Interrupts_Enabled>
   17f6c:	84 c0                	test   %al,%al
   17f6e:	74 4a                	je     17fba <Sys_Wait+0x5a>
   17f70:	c7 04 24 4f 00 00 00 	movl   $0x4f,(%esp)
   17f77:	e8 3f 92 ff ff       	call   111bb <Set_Current_Attr>
   17f7c:	a1 6c 5e 02 00       	mov    0x25e6c,%eax
   17f81:	89 44 24 18          	mov    %eax,0x18(%esp)
   17f85:	8b 45 04             	mov    0x4(%ebp),%eax
   17f88:	89 44 24 14          	mov    %eax,0x14(%esp)
   17f8c:	c7 44 24 10 a2 00 00 	movl   $0xa2,0x10(%esp)
   17f93:	00 
   17f94:	c7 44 24 0c 28 05 02 	movl   $0x20528,0xc(%esp)
   17f9b:	00 
   17f9c:	c7 44 24 08 d2 ef 01 	movl   $0x1efd2,0x8(%esp)
   17fa3:	00 
   17fa4:	c7 44 24 04 ca 05 02 	movl   $0x205ca,0x4(%esp)
   17fab:	00 
   17fac:	c7 04 24 b4 ee 01 00 	movl   $0x1eeb4,(%esp)
   17fb3:	e8 ae 90 ff ff       	call   11066 <Print>
   17fb8:	eb fe                	jmp    17fb8 <Sys_Wait+0x58>
   17fba:	fb                   	sti    
   17fbb:	8b 45 08             	mov    0x8(%ebp),%eax
   17fbe:	8b 40 24             	mov    0x24(%eax),%eax
   17fc1:	89 04 24             	mov    %eax,(%esp)
   17fc4:	e8 67 de ff ff       	call   15e30 <Lookup_Thread>
   17fc9:	89 04 24             	mov    %eax,(%esp)
   17fcc:	e8 e9 e5 ff ff       	call   165ba <Join>
   17fd1:	89 c3                	mov    %eax,%ebx
   17fd3:	e8 67 82 ff ff       	call   1023f <Interrupts_Enabled>
   17fd8:	84 c0                	test   %al,%al
   17fda:	75 4a                	jne    18026 <Sys_Wait+0xc6>
   17fdc:	c7 04 24 4f 00 00 00 	movl   $0x4f,(%esp)
   17fe3:	e8 d3 91 ff ff       	call   111bb <Set_Current_Attr>
   17fe8:	a1 6c 5e 02 00       	mov    0x25e6c,%eax
   17fed:	89 44 24 18          	mov    %eax,0x18(%esp)
   17ff1:	8b 45 04             	mov    0x4(%ebp),%eax
   17ff4:	89 44 24 14          	mov    %eax,0x14(%esp)
   17ff8:	c7 44 24 10 a4 00 00 	movl   $0xa4,0x10(%esp)
   17fff:	00 
   18000:	c7 44 24 0c 28 05 02 	movl   $0x20528,0xc(%esp)
   18007:	00 
   18008:	c7 44 24 08 d3 ef 01 	movl   $0x1efd3,0x8(%esp)
   1800f:	00 
   18010:	c7 44 24 04 ca 05 02 	movl   $0x205ca,0x4(%esp)
   18017:	00 
   18018:	c7 04 24 b4 ee 01 00 	movl   $0x1eeb4,(%esp)
   1801f:	e8 42 90 ff ff       	call   11066 <Print>
   18024:	eb fe                	jmp    18024 <Sys_Wait+0xc4>
   18026:	fa                   	cli    
   18027:	89 d8                	mov    %ebx,%eax
   18029:	83 c4 24             	add    $0x24,%esp
   1802c:	5b                   	pop    %ebx
   1802d:	5d                   	pop    %ebp
   1802e:	c3                   	ret    

0001802f <Sys_PrintString>:
   1802f:	55                   	push   %ebp
   18030:	89 e5                	mov    %esp,%ebp
   18032:	57                   	push   %edi
   18033:	81 ec 84 00 00 00    	sub    $0x84,%esp
   18039:	8b 55 08             	mov    0x8(%ebp),%edx
   1803c:	8d 7d 94             	lea    -0x6c(%ebp),%edi
   1803f:	b9 19 00 00 00       	mov    $0x19,%ecx
   18044:	b8 00 00 00 00       	mov    $0x0,%eax
   18049:	f3 ab                	rep stos %eax,%es:(%edi)
   1804b:	8b 42 20             	mov    0x20(%edx),%eax
   1804e:	89 44 24 08          	mov    %eax,0x8(%esp)
   18052:	8b 42 24             	mov    0x24(%edx),%eax
   18055:	89 44 24 04          	mov    %eax,0x4(%esp)
   18059:	8d 7d 94             	lea    -0x6c(%ebp),%edi
   1805c:	89 3c 24             	mov    %edi,(%esp)
   1805f:	e8 5f fb ff ff       	call   17bc3 <Copy_From_User>
   18064:	89 3c 24             	mov    %edi,(%esp)
   18067:	e8 fa 8f ff ff       	call   11066 <Print>
   1806c:	b8 00 00 00 00       	mov    $0x0,%eax
   18071:	81 c4 84 00 00 00    	add    $0x84,%esp
   18077:	5f                   	pop    %edi
   18078:	5d                   	pop    %ebp
   18079:	c3                   	ret    

0001807a <Sys_Spawn>:
   1807a:	55                   	push   %ebp
   1807b:	89 e5                	mov    %esp,%ebp
   1807d:	57                   	push   %edi
   1807e:	56                   	push   %esi
   1807f:	53                   	push   %ebx
   18080:	81 ec 2c 02 00 00    	sub    $0x22c,%esp
   18086:	8b 5d 08             	mov    0x8(%ebp),%ebx
   18089:	8d bd e8 fe ff ff    	lea    -0x118(%ebp),%edi
   1808f:	b8 00 00 00 00       	mov    $0x0,%eax
   18094:	b9 40 00 00 00       	mov    $0x40,%ecx
   18099:	f3 ab                	rep stos %eax,%es:(%edi)
   1809b:	8d bd e8 fd ff ff    	lea    -0x218(%ebp),%edi
   180a1:	b1 40                	mov    $0x40,%cl
   180a3:	f3 ab                	rep stos %eax,%es:(%edi)
   180a5:	8b 43 20             	mov    0x20(%ebx),%eax
   180a8:	89 44 24 08          	mov    %eax,0x8(%esp)
   180ac:	8b 43 24             	mov    0x24(%ebx),%eax
   180af:	89 44 24 04          	mov    %eax,0x4(%esp)
   180b3:	8d b5 e8 fe ff ff    	lea    -0x118(%ebp),%esi
   180b9:	89 34 24             	mov    %esi,(%esp)
   180bc:	e8 02 fb ff ff       	call   17bc3 <Copy_From_User>
   180c1:	8b 43 18             	mov    0x18(%ebx),%eax
   180c4:	89 44 24 08          	mov    %eax,0x8(%esp)
   180c8:	8b 43 1c             	mov    0x1c(%ebx),%eax
   180cb:	89 44 24 04          	mov    %eax,0x4(%esp)
   180cf:	8d 9d e8 fd ff ff    	lea    -0x218(%ebp),%ebx
   180d5:	89 1c 24             	mov    %ebx,(%esp)
   180d8:	e8 e6 fa ff ff       	call   17bc3 <Copy_From_User>
   180dd:	89 74 24 04          	mov    %esi,0x4(%esp)
   180e1:	c7 04 24 b2 04 02 00 	movl   $0x204b2,(%esp)
   180e8:	e8 79 8f ff ff       	call   11066 <Print>
   180ed:	89 5c 24 04          	mov    %ebx,0x4(%esp)
   180f1:	c7 04 24 b2 04 02 00 	movl   $0x204b2,(%esp)
   180f8:	e8 69 8f ff ff       	call   11066 <Print>
   180fd:	e8 3d 81 ff ff       	call   1023f <Interrupts_Enabled>
   18102:	84 c0                	test   %al,%al
   18104:	74 4a                	je     18150 <Sys_Spawn+0xd6>
   18106:	c7 04 24 4f 00 00 00 	movl   $0x4f,(%esp)
   1810d:	e8 a9 90 ff ff       	call   111bb <Set_Current_Attr>
   18112:	a1 6c 5e 02 00       	mov    0x25e6c,%eax
   18117:	89 44 24 18          	mov    %eax,0x18(%esp)
   1811b:	8b 45 04             	mov    0x4(%ebp),%eax
   1811e:	89 44 24 14          	mov    %eax,0x14(%esp)
   18122:	c7 44 24 10 91 00 00 	movl   $0x91,0x10(%esp)
   18129:	00 
   1812a:	c7 44 24 0c 28 05 02 	movl   $0x20528,0xc(%esp)
   18131:	00 
   18132:	c7 44 24 08 d2 ef 01 	movl   $0x1efd2,0x8(%esp)
   18139:	00 
   1813a:	c7 44 24 04 c0 05 02 	movl   $0x205c0,0x4(%esp)
   18141:	00 
   18142:	c7 04 24 b4 ee 01 00 	movl   $0x1eeb4,(%esp)
   18149:	e8 18 8f ff ff       	call   11066 <Print>
   1814e:	eb fe                	jmp    1814e <Sys_Spawn+0xd4>
   18150:	fb                   	sti    
   18151:	c7 44 24 08 00 00 00 	movl   $0x0,0x8(%esp)
   18158:	00 
   18159:	8d 85 e8 fd ff ff    	lea    -0x218(%ebp),%eax
   1815f:	89 44 24 04          	mov    %eax,0x4(%esp)
   18163:	8d 85 e8 fe ff ff    	lea    -0x118(%ebp),%eax
   18169:	89 04 24             	mov    %eax,(%esp)
   1816c:	e8 bf f0 ff ff       	call   17230 <Spawn>
   18171:	89 c3                	mov    %eax,%ebx
   18173:	e8 c7 80 ff ff       	call   1023f <Interrupts_Enabled>
   18178:	84 c0                	test   %al,%al
   1817a:	75 4a                	jne    181c6 <Sys_Spawn+0x14c>
   1817c:	c7 04 24 4f 00 00 00 	movl   $0x4f,(%esp)
   18183:	e8 33 90 ff ff       	call   111bb <Set_Current_Attr>
   18188:	a1 6c 5e 02 00       	mov    0x25e6c,%eax
   1818d:	89 44 24 18          	mov    %eax,0x18(%esp)
   18191:	8b 45 04             	mov    0x4(%ebp),%eax
   18194:	89 44 24 14          	mov    %eax,0x14(%esp)
   18198:	c7 44 24 10 93 00 00 	movl   $0x93,0x10(%esp)
   1819f:	00 
   181a0:	c7 44 24 0c 28 05 02 	movl   $0x20528,0xc(%esp)
   181a7:	00 
   181a8:	c7 44 24 08 d3 ef 01 	movl   $0x1efd3,0x8(%esp)
   181af:	00 
   181b0:	c7 44 24 04 c0 05 02 	movl   $0x205c0,0x4(%esp)
   181b7:	00 
   181b8:	c7 04 24 b4 ee 01 00 	movl   $0x1eeb4,(%esp)
   181bf:	e8 a2 8e ff ff       	call   11066 <Print>
   181c4:	eb fe                	jmp    181c4 <Sys_Spawn+0x14a>
   181c6:	fa                   	cli    
   181c7:	89 d8                	mov    %ebx,%eax
   181c9:	81 c4 2c 02 00 00    	add    $0x22c,%esp
   181cf:	5b                   	pop    %ebx
   181d0:	5e                   	pop    %esi
   181d1:	5f                   	pop    %edi
   181d2:	5d                   	pop    %ebp
   181d3:	c3                   	ret    

000181d4 <Sys_GetCursor>:
   181d4:	55                   	push   %ebp
   181d5:	89 e5                	mov    %esp,%ebp
   181d7:	57                   	push   %edi
   181d8:	56                   	push   %esi
   181d9:	53                   	push   %ebx
   181da:	83 ec 2c             	sub    $0x2c,%esp
   181dd:	8b 5d 08             	mov    0x8(%ebp),%ebx
   181e0:	8d 75 e0             	lea    -0x20(%ebp),%esi
   181e3:	89 74 24 04          	mov    %esi,0x4(%esp)
   181e7:	8d 7d e4             	lea    -0x1c(%ebp),%edi
   181ea:	89 3c 24             	mov    %edi,(%esp)
   181ed:	e8 51 93 ff ff       	call   11543 <Get_Cursor>
   181f2:	c7 44 24 08 04 00 00 	movl   $0x4,0x8(%esp)
   181f9:	00 
   181fa:	89 7c 24 04          	mov    %edi,0x4(%esp)
   181fe:	8b 43 24             	mov    0x24(%ebx),%eax
   18201:	89 04 24             	mov    %eax,(%esp)
   18204:	e8 38 fa ff ff       	call   17c41 <Copy_To_User>
   18209:	c7 44 24 08 04 00 00 	movl   $0x4,0x8(%esp)
   18210:	00 
   18211:	89 74 24 04          	mov    %esi,0x4(%esp)
   18215:	8b 43 20             	mov    0x20(%ebx),%eax
   18218:	89 04 24             	mov    %eax,(%esp)
   1821b:	e8 21 fa ff ff       	call   17c41 <Copy_To_User>
   18220:	b8 00 00 00 00       	mov    $0x0,%eax
   18225:	83 c4 2c             	add    $0x2c,%esp
   18228:	5b                   	pop    %ebx
   18229:	5e                   	pop    %esi
   1822a:	5f                   	pop    %edi
   1822b:	5d                   	pop    %ebp
   1822c:	c3                   	ret    

0001822d <Sys_GetKey>:
   1822d:	55                   	push   %ebp
   1822e:	89 e5                	mov    %esp,%ebp
   18230:	83 ec 08             	sub    $0x8,%esp
   18233:	e8 a5 8a ff ff       	call   10cdd <Wait_For_Key>
   18238:	0f b7 c0             	movzwl %ax,%eax
   1823b:	c9                   	leave  
   1823c:	c3                   	ret    

0001823d <Sys_Exit>:
   1823d:	55                   	push   %ebp
   1823e:	89 e5                	mov    %esp,%ebp
   18240:	83 ec 18             	sub    $0x18,%esp
   18243:	8b 45 08             	mov    0x8(%ebp),%eax
   18246:	8b 40 24             	mov    0x24(%eax),%eax
   18249:	89 04 24             	mov    %eax,(%esp)
   1824c:	e8 ed e4 ff ff       	call   1673e <Exit>
   18251:	66 90                	xchg   %ax,%ax
   18253:	66 90                	xchg   %ax,%ax
   18255:	66 90                	xchg   %ax,%ax
   18257:	66 90                	xchg   %ax,%ax
   18259:	66 90                	xchg   %ax,%ax
   1825b:	66 90                	xchg   %ax,%ax
   1825d:	66 90                	xchg   %ax,%ax
   1825f:	90                   	nop

00018260 <Init_DMA>:
   18260:	55                   	push   %ebp
   18261:	89 e5                	mov    %esp,%ebp
   18263:	83 ec 18             	sub    $0x18,%esp
   18266:	c7 04 24 20 06 02 00 	movl   $0x20620,(%esp)
   1826d:	e8 f4 8d ff ff       	call   11066 <Print>
   18272:	c7 44 24 04 00 00 00 	movl   $0x0,0x4(%esp)
   18279:	00 
   1827a:	c7 04 24 0d 00 00 00 	movl   $0xd,(%esp)
   18281:	e8 ad 86 ff ff       	call   10933 <Out_Byte>
   18286:	c9                   	leave  
   18287:	c3                   	ret    

00018288 <Reserve_DMA>:
   18288:	55                   	push   %ebp
   18289:	89 e5                	mov    %esp,%ebp
   1828b:	57                   	push   %edi
   1828c:	56                   	push   %esi
   1828d:	53                   	push   %ebx
   1828e:	83 ec 2c             	sub    $0x2c,%esp
   18291:	8b 5d 08             	mov    0x8(%ebp),%ebx
   18294:	e8 a6 7f ff ff       	call   1023f <Interrupts_Enabled>
   18299:	89 c7                	mov    %eax,%edi
   1829b:	84 c0                	test   %al,%al
   1829d:	74 54                	je     182f3 <Reserve_DMA+0x6b>
   1829f:	e8 9b 7f ff ff       	call   1023f <Interrupts_Enabled>
   182a4:	84 c0                	test   %al,%al
   182a6:	75 4a                	jne    182f2 <Reserve_DMA+0x6a>
   182a8:	c7 04 24 4f 00 00 00 	movl   $0x4f,(%esp)
   182af:	e8 07 8f ff ff       	call   111bb <Set_Current_Attr>
   182b4:	a1 6c 5e 02 00       	mov    0x25e6c,%eax
   182b9:	89 44 24 18          	mov    %eax,0x18(%esp)
   182bd:	8b 45 04             	mov    0x4(%ebp),%eax
   182c0:	89 44 24 14          	mov    %eax,0x14(%esp)
   182c4:	c7 44 24 10 8f 00 00 	movl   $0x8f,0x10(%esp)
   182cb:	00 
   182cc:	c7 44 24 0c 7e f1 01 	movl   $0x1f17e,0xc(%esp)
   182d3:	00 
   182d4:	c7 44 24 08 d3 ef 01 	movl   $0x1efd3,0x8(%esp)
   182db:	00 
   182dc:	c7 44 24 04 10 07 02 	movl   $0x20710,0x4(%esp)
   182e3:	00 
   182e4:	c7 04 24 b4 ee 01 00 	movl   $0x1eeb4,(%esp)
   182eb:	e8 76 8d ff ff       	call   11066 <Print>
   182f0:	eb fe                	jmp    182f0 <Reserve_DMA+0x68>
   182f2:	fa                   	cli    
   182f3:	83 fb 03             	cmp    $0x3,%ebx
   182f6:	76 4a                	jbe    18342 <Reserve_DMA+0xba>
   182f8:	c7 04 24 4f 00 00 00 	movl   $0x4f,(%esp)
   182ff:	e8 b7 8e ff ff       	call   111bb <Set_Current_Attr>
   18304:	a1 6c 5e 02 00       	mov    0x25e6c,%eax
   18309:	89 44 24 18          	mov    %eax,0x18(%esp)
   1830d:	8b 45 04             	mov    0x4(%ebp),%eax
   18310:	89 44 24 14          	mov    %eax,0x14(%esp)
   18314:	c7 44 24 10 94 00 00 	movl   $0x94,0x10(%esp)
   1831b:	00 
   1831c:	c7 44 24 0c 93 06 02 	movl   $0x20693,0xc(%esp)
   18323:	00 
   18324:	c7 44 24 08 a7 06 02 	movl   $0x206a7,0x8(%esp)
   1832b:	00 
   1832c:	c7 44 24 04 21 07 02 	movl   $0x20721,0x4(%esp)
   18333:	00 
   18334:	c7 04 24 b4 ee 01 00 	movl   $0x1eeb4,(%esp)
   1833b:	e8 26 8d ff ff       	call   11066 <Print>
   18340:	eb fe                	jmp    18340 <Reserve_DMA+0xb8>
   18342:	0f b6 05 68 53 02 00 	movzbl 0x25368,%eax
   18349:	be 00 00 00 00       	mov    $0x0,%esi
   1834e:	0f a3 d8             	bt     %ebx,%eax
   18351:	72 29                	jb     1837c <Reserve_DMA+0xf4>
   18353:	89 d8                	mov    %ebx,%eax
   18355:	83 e0 03             	and    $0x3,%eax
   18358:	89 44 24 04          	mov    %eax,0x4(%esp)
   1835c:	c7 04 24 0a 00 00 00 	movl   $0xa,(%esp)
   18363:	e8 cb 85 ff ff       	call   10933 <Out_Byte>
   18368:	b8 01 00 00 00       	mov    $0x1,%eax
   1836d:	89 d9                	mov    %ebx,%ecx
   1836f:	d3 e0                	shl    %cl,%eax
   18371:	08 05 68 53 02 00    	or     %al,0x25368
   18377:	be 01 00 00 00       	mov    $0x1,%esi
   1837c:	e8 be 7e ff ff       	call   1023f <Interrupts_Enabled>
   18381:	84 c0                	test   %al,%al
   18383:	74 4a                	je     183cf <Reserve_DMA+0x147>
   18385:	c7 04 24 4f 00 00 00 	movl   $0x4f,(%esp)
   1838c:	e8 2a 8e ff ff       	call   111bb <Set_Current_Attr>
   18391:	a1 6c 5e 02 00       	mov    0x25e6c,%eax
   18396:	89 44 24 18          	mov    %eax,0x18(%esp)
   1839a:	8b 45 04             	mov    0x4(%ebp),%eax
   1839d:	89 44 24 14          	mov    %eax,0x14(%esp)
   183a1:	c7 44 24 10 99 00 00 	movl   $0x99,0x10(%esp)
   183a8:	00 
   183a9:	c7 44 24 0c 7e f1 01 	movl   $0x1f17e,0xc(%esp)
   183b0:	00 
   183b1:	c7 44 24 08 d2 ef 01 	movl   $0x1efd2,0x8(%esp)
   183b8:	00 
   183b9:	c7 44 24 04 01 07 02 	movl   $0x20701,0x4(%esp)
   183c0:	00 
   183c1:	c7 04 24 b4 ee 01 00 	movl   $0x1eeb4,(%esp)
   183c8:	e8 99 8c ff ff       	call   11066 <Print>
   183cd:	eb fe                	jmp    183cd <Reserve_DMA+0x145>
   183cf:	89 f8                	mov    %edi,%eax
   183d1:	84 c0                	test   %al,%al
   183d3:	74 54                	je     18429 <Reserve_DMA+0x1a1>
   183d5:	e8 65 7e ff ff       	call   1023f <Interrupts_Enabled>
   183da:	84 c0                	test   %al,%al
   183dc:	74 4a                	je     18428 <Reserve_DMA+0x1a0>
   183de:	c7 04 24 4f 00 00 00 	movl   $0x4f,(%esp)
   183e5:	e8 d1 8d ff ff       	call   111bb <Set_Current_Attr>
   183ea:	a1 6c 5e 02 00       	mov    0x25e6c,%eax
   183ef:	89 44 24 18          	mov    %eax,0x18(%esp)
   183f3:	8b 45 04             	mov    0x4(%ebp),%eax
   183f6:	89 44 24 14          	mov    %eax,0x14(%esp)
   183fa:	c7 44 24 10 9c 00 00 	movl   $0x9c,0x10(%esp)
   18401:	00 
   18402:	c7 44 24 0c 7e f1 01 	movl   $0x1f17e,0xc(%esp)
   18409:	00 
   1840a:	c7 44 24 08 d2 ef 01 	movl   $0x1efd2,0x8(%esp)
   18411:	00 
   18412:	c7 44 24 04 01 07 02 	movl   $0x20701,0x4(%esp)
   18419:	00 
   1841a:	c7 04 24 b4 ee 01 00 	movl   $0x1eeb4,(%esp)
   18421:	e8 40 8c ff ff       	call   11066 <Print>
   18426:	eb fe                	jmp    18426 <Reserve_DMA+0x19e>
   18428:	fb                   	sti    
   18429:	89 f0                	mov    %esi,%eax
   1842b:	83 c4 2c             	add    $0x2c,%esp
   1842e:	5b                   	pop    %ebx
   1842f:	5e                   	pop    %esi
   18430:	5f                   	pop    %edi
   18431:	5d                   	pop    %ebp
   18432:	c3                   	ret    

00018433 <Mask_DMA>:
   18433:	55                   	push   %ebp
   18434:	89 e5                	mov    %esp,%ebp
   18436:	83 ec 28             	sub    $0x28,%esp
   18439:	8b 45 08             	mov    0x8(%ebp),%eax
   1843c:	83 f8 03             	cmp    $0x3,%eax
   1843f:	76 4a                	jbe    1848b <Mask_DMA+0x58>
   18441:	c7 04 24 4f 00 00 00 	movl   $0x4f,(%esp)
   18448:	e8 6e 8d ff ff       	call   111bb <Set_Current_Attr>
   1844d:	a1 6c 5e 02 00       	mov    0x25e6c,%eax
   18452:	89 44 24 18          	mov    %eax,0x18(%esp)
   18456:	8b 45 04             	mov    0x4(%ebp),%eax
   18459:	89 44 24 14          	mov    %eax,0x14(%esp)
   1845d:	c7 44 24 10 e7 00 00 	movl   $0xe7,0x10(%esp)
   18464:	00 
   18465:	c7 44 24 0c 93 06 02 	movl   $0x20693,0xc(%esp)
   1846c:	00 
   1846d:	c7 44 24 08 a7 06 02 	movl   $0x206a7,0x8(%esp)
   18474:	00 
   18475:	c7 44 24 04 ee 06 02 	movl   $0x206ee,0x4(%esp)
   1847c:	00 
   1847d:	c7 04 24 b4 ee 01 00 	movl   $0x1eeb4,(%esp)
   18484:	e8 dd 8b ff ff       	call   11066 <Print>
   18489:	eb fe                	jmp    18489 <Mask_DMA+0x56>
   1848b:	0f b6 15 68 53 02 00 	movzbl 0x25368,%edx
   18492:	0f a3 c2             	bt     %eax,%edx
   18495:	72 4a                	jb     184e1 <Mask_DMA+0xae>
   18497:	c7 04 24 4f 00 00 00 	movl   $0x4f,(%esp)
   1849e:	e8 18 8d ff ff       	call   111bb <Set_Current_Attr>
   184a3:	a1 6c 5e 02 00       	mov    0x25e6c,%eax
   184a8:	89 44 24 18          	mov    %eax,0x18(%esp)
   184ac:	8b 45 04             	mov    0x4(%ebp),%eax
   184af:	89 44 24 14          	mov    %eax,0x14(%esp)
   184b3:	c7 44 24 10 e8 00 00 	movl   $0xe8,0x10(%esp)
   184ba:	00 
   184bb:	c7 44 24 0c 93 06 02 	movl   $0x20693,0xc(%esp)
   184c2:	00 
   184c3:	c7 44 24 08 bb 06 02 	movl   $0x206bb,0x8(%esp)
   184ca:	00 
   184cb:	c7 44 24 04 ee 06 02 	movl   $0x206ee,0x4(%esp)
   184d2:	00 
   184d3:	c7 04 24 b4 ee 01 00 	movl   $0x1eeb4,(%esp)
   184da:	e8 87 8b ff ff       	call   11066 <Print>
   184df:	eb fe                	jmp    184df <Mask_DMA+0xac>
   184e1:	83 e0 03             	and    $0x3,%eax
   184e4:	83 c8 04             	or     $0x4,%eax
   184e7:	89 44 24 04          	mov    %eax,0x4(%esp)
   184eb:	c7 04 24 0a 00 00 00 	movl   $0xa,(%esp)
   184f2:	e8 3c 84 ff ff       	call   10933 <Out_Byte>
   184f7:	c9                   	leave  
   184f8:	c3                   	ret    

000184f9 <Unmask_DMA>:
   184f9:	55                   	push   %ebp
   184fa:	89 e5                	mov    %esp,%ebp
   184fc:	83 ec 28             	sub    $0x28,%esp
   184ff:	8b 45 08             	mov    0x8(%ebp),%eax
   18502:	83 f8 03             	cmp    $0x3,%eax
   18505:	76 4a                	jbe    18551 <Unmask_DMA+0x58>
   18507:	c7 04 24 4f 00 00 00 	movl   $0x4f,(%esp)
   1850e:	e8 a8 8c ff ff       	call   111bb <Set_Current_Attr>
   18513:	a1 6c 5e 02 00       	mov    0x25e6c,%eax
   18518:	89 44 24 18          	mov    %eax,0x18(%esp)
   1851c:	8b 45 04             	mov    0x4(%ebp),%eax
   1851f:	89 44 24 14          	mov    %eax,0x14(%esp)
   18523:	c7 44 24 10 f4 00 00 	movl   $0xf4,0x10(%esp)
   1852a:	00 
   1852b:	c7 44 24 0c 93 06 02 	movl   $0x20693,0xc(%esp)
   18532:	00 
   18533:	c7 44 24 08 a7 06 02 	movl   $0x206a7,0x8(%esp)
   1853a:	00 
   1853b:	c7 44 24 04 e3 06 02 	movl   $0x206e3,0x4(%esp)
   18542:	00 
   18543:	c7 04 24 b4 ee 01 00 	movl   $0x1eeb4,(%esp)
   1854a:	e8 17 8b ff ff       	call   11066 <Print>
   1854f:	eb fe                	jmp    1854f <Unmask_DMA+0x56>
   18551:	0f b6 15 68 53 02 00 	movzbl 0x25368,%edx
   18558:	0f a3 c2             	bt     %eax,%edx
   1855b:	72 4a                	jb     185a7 <Unmask_DMA+0xae>
   1855d:	c7 04 24 4f 00 00 00 	movl   $0x4f,(%esp)
   18564:	e8 52 8c ff ff       	call   111bb <Set_Current_Attr>
   18569:	a1 6c 5e 02 00       	mov    0x25e6c,%eax
   1856e:	89 44 24 18          	mov    %eax,0x18(%esp)
   18572:	8b 45 04             	mov    0x4(%ebp),%eax
   18575:	89 44 24 14          	mov    %eax,0x14(%esp)
   18579:	c7 44 24 10 f5 00 00 	movl   $0xf5,0x10(%esp)
   18580:	00 
   18581:	c7 44 24 0c 93 06 02 	movl   $0x20693,0xc(%esp)
   18588:	00 
   18589:	c7 44 24 08 bb 06 02 	movl   $0x206bb,0x8(%esp)
   18590:	00 
   18591:	c7 44 24 04 e3 06 02 	movl   $0x206e3,0x4(%esp)
   18598:	00 
   18599:	c7 04 24 b4 ee 01 00 	movl   $0x1eeb4,(%esp)
   185a0:	e8 c1 8a ff ff       	call   11066 <Print>
   185a5:	eb fe                	jmp    185a5 <Unmask_DMA+0xac>
   185a7:	83 e0 03             	and    $0x3,%eax
   185aa:	89 44 24 04          	mov    %eax,0x4(%esp)
   185ae:	c7 04 24 0a 00 00 00 	movl   $0xa,(%esp)
   185b5:	e8 79 83 ff ff       	call   10933 <Out_Byte>
   185ba:	c9                   	leave  
   185bb:	c3                   	ret    

000185bc <Setup_DMA>:
   185bc:	55                   	push   %ebp
   185bd:	89 e5                	mov    %esp,%ebp
   185bf:	57                   	push   %edi
   185c0:	56                   	push   %esi
   185c1:	53                   	push   %ebx
   185c2:	83 ec 2c             	sub    $0x2c,%esp
   185c5:	8b 45 08             	mov    0x8(%ebp),%eax
   185c8:	8b 5d 0c             	mov    0xc(%ebp),%ebx
   185cb:	8b 75 10             	mov    0x10(%ebp),%esi
   185ce:	83 f8 01             	cmp    $0x1,%eax
   185d1:	76 4a                	jbe    1861d <Setup_DMA+0x61>
   185d3:	c7 04 24 4f 00 00 00 	movl   $0x4f,(%esp)
   185da:	e8 dc 8b ff ff       	call   111bb <Set_Current_Attr>
   185df:	a1 6c 5e 02 00       	mov    0x25e6c,%eax
   185e4:	89 44 24 18          	mov    %eax,0x18(%esp)
   185e8:	8b 45 04             	mov    0x4(%ebp),%eax
   185eb:	89 44 24 14          	mov    %eax,0x14(%esp)
   185ef:	c7 44 24 10 b1 00 00 	movl   $0xb1,0x10(%esp)
   185f6:	00 
   185f7:	c7 44 24 0c 93 06 02 	movl   $0x20693,0xc(%esp)
   185fe:	00 
   185ff:	c7 44 24 08 40 06 02 	movl   $0x20640,0x8(%esp)
   18606:	00 
   18607:	c7 44 24 04 f7 06 02 	movl   $0x206f7,0x4(%esp)
   1860e:	00 
   1860f:	c7 04 24 b4 ee 01 00 	movl   $0x1eeb4,(%esp)
   18616:	e8 4b 8a ff ff       	call   11066 <Print>
   1861b:	eb fe                	jmp    1861b <Setup_DMA+0x5f>
   1861d:	83 fb 03             	cmp    $0x3,%ebx
   18620:	76 4a                	jbe    1866c <Setup_DMA+0xb0>
   18622:	c7 04 24 4f 00 00 00 	movl   $0x4f,(%esp)
   18629:	e8 8d 8b ff ff       	call   111bb <Set_Current_Attr>
   1862e:	a1 6c 5e 02 00       	mov    0x25e6c,%eax
   18633:	89 44 24 18          	mov    %eax,0x18(%esp)
   18637:	8b 45 04             	mov    0x4(%ebp),%eax
   1863a:	89 44 24 14          	mov    %eax,0x14(%esp)
   1863e:	c7 44 24 10 b2 00 00 	movl   $0xb2,0x10(%esp)
   18645:	00 
   18646:	c7 44 24 0c 93 06 02 	movl   $0x20693,0xc(%esp)
   1864d:	00 
   1864e:	c7 44 24 08 a7 06 02 	movl   $0x206a7,0x8(%esp)
   18655:	00 
   18656:	c7 44 24 04 f7 06 02 	movl   $0x206f7,0x4(%esp)
   1865d:	00 
   1865e:	c7 04 24 b4 ee 01 00 	movl   $0x1eeb4,(%esp)
   18665:	e8 fc 89 ff ff       	call   11066 <Print>
   1866a:	eb fe                	jmp    1866a <Setup_DMA+0xae>
   1866c:	0f b6 15 68 53 02 00 	movzbl 0x25368,%edx
   18673:	0f a3 da             	bt     %ebx,%edx
   18676:	72 4a                	jb     186c2 <Setup_DMA+0x106>
   18678:	c7 04 24 4f 00 00 00 	movl   $0x4f,(%esp)
   1867f:	e8 37 8b ff ff       	call   111bb <Set_Current_Attr>
   18684:	a1 6c 5e 02 00       	mov    0x25e6c,%eax
   18689:	89 44 24 18          	mov    %eax,0x18(%esp)
   1868d:	8b 45 04             	mov    0x4(%ebp),%eax
   18690:	89 44 24 14          	mov    %eax,0x14(%esp)
   18694:	c7 44 24 10 b3 00 00 	movl   $0xb3,0x10(%esp)
   1869b:	00 
   1869c:	c7 44 24 0c 93 06 02 	movl   $0x20693,0xc(%esp)
   186a3:	00 
   186a4:	c7 44 24 08 bb 06 02 	movl   $0x206bb,0x8(%esp)
   186ab:	00 
   186ac:	c7 44 24 04 f7 06 02 	movl   $0x206f7,0x4(%esp)
   186b3:	00 
   186b4:	c7 04 24 b4 ee 01 00 	movl   $0x1eeb4,(%esp)
   186bb:	e8 a6 89 ff ff       	call   11066 <Print>
   186c0:	eb fe                	jmp    186c0 <Setup_DMA+0x104>
   186c2:	89 f2                	mov    %esi,%edx
   186c4:	03 55 14             	add    0x14(%ebp),%edx
   186c7:	74 04                	je     186cd <Setup_DMA+0x111>
   186c9:	39 d6                	cmp    %edx,%esi
   186cb:	77 14                	ja     186e1 <Setup_DMA+0x125>
   186cd:	81 fe ff ff ff 00    	cmp    $0xffffff,%esi
   186d3:	77 0c                	ja     186e1 <Setup_DMA+0x125>
   186d5:	81 fa 00 00 00 01    	cmp    $0x1000000,%edx
   186db:	0f 86 ac 01 00 00    	jbe    1888d <Setup_DMA+0x2d1>
   186e1:	c7 04 24 4f 00 00 00 	movl   $0x4f,(%esp)
   186e8:	e8 ce 8a ff ff       	call   111bb <Set_Current_Attr>
   186ed:	a1 6c 5e 02 00       	mov    0x25e6c,%eax
   186f2:	89 44 24 18          	mov    %eax,0x18(%esp)
   186f6:	8b 45 04             	mov    0x4(%ebp),%eax
   186f9:	89 44 24 14          	mov    %eax,0x14(%esp)
   186fd:	c7 44 24 10 b4 00 00 	movl   $0xb4,0x10(%esp)
   18704:	00 
   18705:	c7 44 24 0c 93 06 02 	movl   $0x20693,0xc(%esp)
   1870c:	00 
   1870d:	c7 44 24 08 cd 06 02 	movl   $0x206cd,0x8(%esp)
   18714:	00 
   18715:	c7 44 24 04 f7 06 02 	movl   $0x206f7,0x4(%esp)
   1871c:	00 
   1871d:	c7 04 24 b4 ee 01 00 	movl   $0x1eeb4,(%esp)
   18724:	e8 3d 89 ff ff       	call   11066 <Print>
   18729:	eb fe                	jmp    18729 <Setup_DMA+0x16d>
   1872b:	c7 04 24 4f 00 00 00 	movl   $0x4f,(%esp)
   18732:	e8 84 8a ff ff       	call   111bb <Set_Current_Attr>
   18737:	a1 6c 5e 02 00       	mov    0x25e6c,%eax
   1873c:	89 44 24 18          	mov    %eax,0x18(%esp)
   18740:	8b 45 04             	mov    0x4(%ebp),%eax
   18743:	89 44 24 14          	mov    %eax,0x14(%esp)
   18747:	c7 44 24 10 b5 00 00 	movl   $0xb5,0x10(%esp)
   1874e:	00 
   1874f:	c7 44 24 0c 93 06 02 	movl   $0x20693,0xc(%esp)
   18756:	00 
   18757:	c7 44 24 08 09 fc 01 	movl   $0x1fc09,0x8(%esp)
   1875e:	00 
   1875f:	c7 44 24 04 f7 06 02 	movl   $0x206f7,0x4(%esp)
   18766:	00 
   18767:	c7 04 24 b4 ee 01 00 	movl   $0x1eeb4,(%esp)
   1876e:	e8 f3 88 ff ff       	call   11066 <Print>
   18773:	eb fe                	jmp    18773 <Setup_DMA+0x1b7>
   18775:	89 f2                	mov    %esi,%edx
   18777:	f7 d2                	not    %edx
   18779:	0f b7 d2             	movzwl %dx,%edx
   1877c:	39 55 14             	cmp    %edx,0x14(%ebp)
   1877f:	76 4a                	jbe    187cb <Setup_DMA+0x20f>
   18781:	c7 04 24 4f 00 00 00 	movl   $0x4f,(%esp)
   18788:	e8 2e 8a ff ff       	call   111bb <Set_Current_Attr>
   1878d:	a1 6c 5e 02 00       	mov    0x25e6c,%eax
   18792:	89 44 24 18          	mov    %eax,0x18(%esp)
   18796:	8b 45 04             	mov    0x4(%ebp),%eax
   18799:	89 44 24 14          	mov    %eax,0x14(%esp)
   1879d:	c7 44 24 10 b6 00 00 	movl   $0xb6,0x10(%esp)
   187a4:	00 
   187a5:	c7 44 24 0c 93 06 02 	movl   $0x20693,0xc(%esp)
   187ac:	00 
   187ad:	c7 44 24 08 70 06 02 	movl   $0x20670,0x8(%esp)
   187b4:	00 
   187b5:	c7 44 24 04 f7 06 02 	movl   $0x206f7,0x4(%esp)
   187bc:	00 
   187bd:	c7 04 24 b4 ee 01 00 	movl   $0x1eeb4,(%esp)
   187c4:	e8 9d 88 ff ff       	call   11066 <Print>
   187c9:	eb fe                	jmp    187c9 <Setup_DMA+0x20d>
   187cb:	83 f8 01             	cmp    $0x1,%eax
   187ce:	19 ff                	sbb    %edi,%edi
   187d0:	83 e7 fc             	and    $0xfffffffc,%edi
   187d3:	83 c7 08             	add    $0x8,%edi
   187d6:	89 1c 24             	mov    %ebx,(%esp)
   187d9:	e8 55 fc ff ff       	call   18433 <Mask_DMA>
   187de:	89 d8                	mov    %ebx,%eax
   187e0:	83 e0 03             	and    $0x3,%eax
   187e3:	83 c8 40             	or     $0x40,%eax
   187e6:	09 f8                	or     %edi,%eax
   187e8:	0f b6 c0             	movzbl %al,%eax
   187eb:	89 44 24 04          	mov    %eax,0x4(%esp)
   187ef:	c7 04 24 0b 00 00 00 	movl   $0xb,(%esp)
   187f6:	e8 38 81 ff ff       	call   10933 <Out_Byte>
   187fb:	c7 44 24 04 00 00 00 	movl   $0x0,0x4(%esp)
   18802:	00 
   18803:	c7 04 24 0c 00 00 00 	movl   $0xc,(%esp)
   1880a:	e8 24 81 ff ff       	call   10933 <Out_Byte>
   1880f:	8d 3c 1b             	lea    (%ebx,%ebx,1),%edi
   18812:	83 e7 06             	and    $0x6,%edi
   18815:	89 f0                	mov    %esi,%eax
   18817:	0f b6 c0             	movzbl %al,%eax
   1881a:	89 44 24 04          	mov    %eax,0x4(%esp)
   1881e:	89 3c 24             	mov    %edi,(%esp)
   18821:	e8 0d 81 ff ff       	call   10933 <Out_Byte>
   18826:	89 f0                	mov    %esi,%eax
   18828:	0f b6 c4             	movzbl %ah,%eax
   1882b:	89 44 24 04          	mov    %eax,0x4(%esp)
   1882f:	89 3c 24             	mov    %edi,(%esp)
   18832:	e8 fc 80 ff ff       	call   10933 <Out_Byte>
   18837:	89 f0                	mov    %esi,%eax
   18839:	c1 e8 10             	shr    $0x10,%eax
   1883c:	0f b6 c0             	movzbl %al,%eax
   1883f:	89 44 24 04          	mov    %eax,0x4(%esp)
   18843:	0f b6 83 2d 07 02 00 	movzbl 0x2072d(%ebx),%eax
   1884a:	89 04 24             	mov    %eax,(%esp)
   1884d:	e8 e1 80 ff ff       	call   10933 <Out_Byte>
   18852:	8b 45 14             	mov    0x14(%ebp),%eax
   18855:	8d 78 ff             	lea    -0x1(%eax),%edi
   18858:	89 de                	mov    %ebx,%esi
   1885a:	83 e6 03             	and    $0x3,%esi
   1885d:	8d 74 36 01          	lea    0x1(%esi,%esi,1),%esi
   18861:	89 f8                	mov    %edi,%eax
   18863:	0f b6 c0             	movzbl %al,%eax
   18866:	89 44 24 04          	mov    %eax,0x4(%esp)
   1886a:	89 34 24             	mov    %esi,(%esp)
   1886d:	e8 c1 80 ff ff       	call   10933 <Out_Byte>
   18872:	89 f8                	mov    %edi,%eax
   18874:	0f b6 fc             	movzbl %ah,%edi
   18877:	89 7c 24 04          	mov    %edi,0x4(%esp)
   1887b:	89 34 24             	mov    %esi,(%esp)
   1887e:	e8 b0 80 ff ff       	call   10933 <Out_Byte>
   18883:	89 1c 24             	mov    %ebx,(%esp)
   18886:	e8 6e fc ff ff       	call   184f9 <Unmask_DMA>
   1888b:	eb 0f                	jmp    1889c <Setup_DMA+0x2e0>
   1888d:	83 7d 14 00          	cmpl   $0x0,0x14(%ebp)
   18891:	0f 85 de fe ff ff    	jne    18775 <Setup_DMA+0x1b9>
   18897:	e9 8f fe ff ff       	jmp    1872b <Setup_DMA+0x16f>
   1889c:	83 c4 2c             	add    $0x2c,%esp
   1889f:	5b                   	pop    %ebx
   188a0:	5e                   	pop    %esi
   188a1:	5f                   	pop    %edi
   188a2:	5d                   	pop    %ebp
   188a3:	c3                   	ret    
   188a4:	66 90                	xchg   %ax,%ax
   188a6:	66 90                	xchg   %ax,%ax
   188a8:	66 90                	xchg   %ax,%ax
   188aa:	66 90                	xchg   %ax,%ax
   188ac:	66 90                	xchg   %ax,%ax
   188ae:	66 90                	xchg   %ax,%ax

000188b0 <Wait_For_MRQ>:
   188b0:	55                   	push   %ebp
   188b1:	89 e5                	mov    %esp,%ebp
   188b3:	53                   	push   %ebx
   188b4:	83 ec 24             	sub    $0x24,%esp
   188b7:	89 c3                	mov    %eax,%ebx
   188b9:	83 e0 bf             	and    $0xffffffbf,%eax
   188bc:	0f b6 db             	movzbl %bl,%ebx
   188bf:	3c 80                	cmp    $0x80,%al
   188c1:	74 4a                	je     1890d <Wait_For_MRQ+0x5d>
   188c3:	c7 04 24 4f 00 00 00 	movl   $0x4f,(%esp)
   188ca:	e8 ec 88 ff ff       	call   111bb <Set_Current_Attr>
   188cf:	a1 6c 5e 02 00       	mov    0x25e6c,%eax
   188d4:	89 44 24 18          	mov    %eax,0x18(%esp)
   188d8:	8b 45 04             	mov    0x4(%ebp),%eax
   188db:	89 44 24 14          	mov    %eax,0x14(%esp)
   188df:	c7 44 24 10 37 01 00 	movl   $0x137,0x10(%esp)
   188e6:	00 
   188e7:	c7 44 24 0c 31 07 02 	movl   $0x20731,0xc(%esp)
   188ee:	00 
   188ef:	c7 44 24 08 74 07 02 	movl   $0x20774,0x8(%esp)
   188f6:	00 
   188f7:	c7 44 24 04 0f 0a 02 	movl   $0x20a0f,0x4(%esp)
   188fe:	00 
   188ff:	c7 04 24 b4 ee 01 00 	movl   $0x1eeb4,(%esp)
   18906:	e8 5b 87 ff ff       	call   11066 <Print>
   1890b:	eb fe                	jmp    1890b <Wait_For_MRQ+0x5b>
   1890d:	c7 04 24 f4 03 00 00 	movl   $0x3f4,(%esp)
   18914:	e8 26 80 ff ff       	call   1093f <In_Byte>
   18919:	25 c0 00 00 00       	and    $0xc0,%eax
   1891e:	39 d8                	cmp    %ebx,%eax
   18920:	75 eb                	jne    1890d <Wait_For_MRQ+0x5d>
   18922:	83 c4 24             	add    $0x24,%esp
   18925:	5b                   	pop    %ebx
   18926:	5d                   	pop    %ebp
   18927:	c3                   	ret    

00018928 <Floppy_Out>:
   18928:	55                   	push   %ebp
   18929:	89 e5                	mov    %esp,%ebp
   1892b:	53                   	push   %ebx
   1892c:	83 ec 14             	sub    $0x14,%esp
   1892f:	89 c3                	mov    %eax,%ebx
   18931:	b8 80 00 00 00       	mov    $0x80,%eax
   18936:	e8 75 ff ff ff       	call   188b0 <Wait_For_MRQ>
   1893b:	0f b6 db             	movzbl %bl,%ebx
   1893e:	89 5c 24 04          	mov    %ebx,0x4(%esp)
   18942:	c7 04 24 f5 03 00 00 	movl   $0x3f5,(%esp)
   18949:	e8 e5 7f ff ff       	call   10933 <Out_Byte>
   1894e:	83 c4 14             	add    $0x14,%esp
   18951:	5b                   	pop    %ebx
   18952:	5d                   	pop    %ebp
   18953:	c3                   	ret    

00018954 <Floppy_In>:
   18954:	55                   	push   %ebp
   18955:	89 e5                	mov    %esp,%ebp
   18957:	83 ec 18             	sub    $0x18,%esp
   1895a:	b8 c0 00 00 00       	mov    $0xc0,%eax
   1895f:	e8 4c ff ff ff       	call   188b0 <Wait_For_MRQ>
   18964:	c7 04 24 f5 03 00 00 	movl   $0x3f5,(%esp)
   1896b:	e8 cf 7f ff ff       	call   1093f <In_Byte>
   18970:	c9                   	leave  
   18971:	c3                   	ret    

00018972 <Floppy_Get_Num_Blocks>:
   18972:	55                   	push   %ebp
   18973:	89 e5                	mov    %esp,%ebp
   18975:	83 ec 28             	sub    $0x28,%esp
   18978:	8b 45 08             	mov    0x8(%ebp),%eax
   1897b:	8b 40 14             	mov    0x14(%eax),%eax
   1897e:	83 f8 01             	cmp    $0x1,%eax
   18981:	76 4a                	jbe    189cd <Floppy_Get_Num_Blocks+0x5b>
   18983:	c7 04 24 4f 00 00 00 	movl   $0x4f,(%esp)
   1898a:	e8 2c 88 ff ff       	call   111bb <Set_Current_Attr>
   1898f:	a1 6c 5e 02 00       	mov    0x25e6c,%eax
   18994:	89 44 24 18          	mov    %eax,0x18(%esp)
   18998:	8b 45 04             	mov    0x4(%ebp),%eax
   1899b:	89 44 24 14          	mov    %eax,0x14(%esp)
   1899f:	c7 44 24 10 e5 00 00 	movl   $0xe5,0x10(%esp)
   189a6:	00 
   189a7:	c7 44 24 0c 31 07 02 	movl   $0x20731,0xc(%esp)
   189ae:	00 
   189af:	c7 44 24 08 c0 07 02 	movl   $0x207c0,0x8(%esp)
   189b6:	00 
   189b7:	c7 44 24 04 e6 09 02 	movl   $0x209e6,0x4(%esp)
   189be:	00 
   189bf:	c7 04 24 b4 ee 01 00 	movl   $0x1eeb4,(%esp)
   189c6:	e8 9b 86 ff ff       	call   11066 <Print>
   189cb:	eb fe                	jmp    189cb <Floppy_Get_Num_Blocks+0x59>
   189cd:	8b 04 85 74 5e 02 00 	mov    0x25e74(,%eax,4),%eax
   189d4:	85 c0                	test   %eax,%eax
   189d6:	75 4a                	jne    18a22 <Floppy_Get_Num_Blocks+0xb0>
   189d8:	c7 04 24 4f 00 00 00 	movl   $0x4f,(%esp)
   189df:	e8 d7 87 ff ff       	call   111bb <Set_Current_Attr>
   189e4:	a1 6c 5e 02 00       	mov    0x25e6c,%eax
   189e9:	89 44 24 18          	mov    %eax,0x18(%esp)
   189ed:	8b 45 04             	mov    0x4(%ebp),%eax
   189f0:	89 44 24 14          	mov    %eax,0x14(%esp)
   189f4:	c7 44 24 10 e9 00 00 	movl   $0xe9,0x10(%esp)
   189fb:	00 
   189fc:	c7 44 24 0c 31 07 02 	movl   $0x20731,0xc(%esp)
   18a03:	00 
   18a04:	c7 44 24 08 48 07 02 	movl   $0x20748,0x8(%esp)
   18a0b:	00 
   18a0c:	c7 44 24 04 e6 09 02 	movl   $0x209e6,0x4(%esp)
   18a13:	00 
   18a14:	c7 04 24 b4 ee 01 00 	movl   $0x1eeb4,(%esp)
   18a1b:	e8 46 86 ff ff       	call   11066 <Print>
   18a20:	eb fe                	jmp    18a20 <Floppy_Get_Num_Blocks+0xae>
   18a22:	8b 10                	mov    (%eax),%edx
   18a24:	0f af 50 04          	imul   0x4(%eax),%edx
   18a28:	0f af 50 08          	imul   0x8(%eax),%edx
   18a2c:	89 d0                	mov    %edx,%eax
   18a2e:	c9                   	leave  
   18a2f:	c3                   	ret    

00018a30 <Floppy_Close>:
   18a30:	55                   	push   %ebp
   18a31:	89 e5                	mov    %esp,%ebp
   18a33:	83 ec 28             	sub    $0x28,%esp
   18a36:	8b 45 08             	mov    0x8(%ebp),%eax
   18a39:	80 78 18 00          	cmpb   $0x0,0x18(%eax)
   18a3d:	75 4a                	jne    18a89 <Floppy_Close+0x59>
   18a3f:	c7 04 24 4f 00 00 00 	movl   $0x4f,(%esp)
   18a46:	e8 70 87 ff ff       	call   111bb <Set_Current_Attr>
   18a4b:	a1 6c 5e 02 00       	mov    0x25e6c,%eax
   18a50:	89 44 24 18          	mov    %eax,0x18(%esp)
   18a54:	8b 45 04             	mov    0x4(%ebp),%eax
   18a57:	89 44 24 14          	mov    %eax,0x14(%esp)
   18a5b:	c7 44 24 10 d9 00 00 	movl   $0xd9,0x10(%esp)
   18a62:	00 
   18a63:	c7 44 24 0c 31 07 02 	movl   $0x20731,0xc(%esp)
   18a6a:	00 
   18a6b:	c7 44 24 08 55 07 02 	movl   $0x20755,0x8(%esp)
   18a72:	00 
   18a73:	c7 44 24 04 d9 09 02 	movl   $0x209d9,0x4(%esp)
   18a7a:	00 
   18a7b:	c7 04 24 b4 ee 01 00 	movl   $0x1eeb4,(%esp)
   18a82:	e8 df 85 ff ff       	call   11066 <Print>
   18a87:	eb fe                	jmp    18a87 <Floppy_Close+0x57>
   18a89:	b8 00 00 00 00       	mov    $0x0,%eax
   18a8e:	c9                   	leave  
   18a8f:	c3                   	ret    

00018a90 <Floppy_Open>:
   18a90:	55                   	push   %ebp
   18a91:	89 e5                	mov    %esp,%ebp
   18a93:	83 ec 28             	sub    $0x28,%esp
   18a96:	8b 45 08             	mov    0x8(%ebp),%eax
   18a99:	80 78 18 00          	cmpb   $0x0,0x18(%eax)
   18a9d:	74 4a                	je     18ae9 <Floppy_Open+0x59>
   18a9f:	c7 04 24 4f 00 00 00 	movl   $0x4f,(%esp)
   18aa6:	e8 10 87 ff ff       	call   111bb <Set_Current_Attr>
   18aab:	a1 6c 5e 02 00       	mov    0x25e6c,%eax
   18ab0:	89 44 24 18          	mov    %eax,0x18(%esp)
   18ab4:	8b 45 04             	mov    0x4(%ebp),%eax
   18ab7:	89 44 24 14          	mov    %eax,0x14(%esp)
   18abb:	c7 44 24 10 d0 00 00 	movl   $0xd0,0x10(%esp)
   18ac2:	00 
   18ac3:	c7 44 24 0c 31 07 02 	movl   $0x20731,0xc(%esp)
   18aca:	00 
   18acb:	c7 44 24 08 54 07 02 	movl   $0x20754,0x8(%esp)
   18ad2:	00 
   18ad3:	c7 44 24 04 cd 09 02 	movl   $0x209cd,0x4(%esp)
   18ada:	00 
   18adb:	c7 04 24 b4 ee 01 00 	movl   $0x1eeb4,(%esp)
   18ae2:	e8 7f 85 ff ff       	call   11066 <Print>
   18ae7:	eb fe                	jmp    18ae7 <Floppy_Open+0x57>
   18ae9:	b8 00 00 00 00       	mov    $0x0,%eax
   18aee:	c9                   	leave  
   18aef:	c3                   	ret    

00018af0 <Wait_For_Interrupt>:
   18af0:	55                   	push   %ebp
   18af1:	89 e5                	mov    %esp,%ebp
   18af3:	83 ec 28             	sub    $0x28,%esp
   18af6:	e8 44 77 ff ff       	call   1023f <Interrupts_Enabled>
   18afb:	84 c0                	test   %al,%al
   18afd:	74 4a                	je     18b49 <Wait_For_Interrupt+0x59>
   18aff:	c7 04 24 4f 00 00 00 	movl   $0x4f,(%esp)
   18b06:	e8 b0 86 ff ff       	call   111bb <Set_Current_Attr>
   18b0b:	a1 6c 5e 02 00       	mov    0x25e6c,%eax
   18b10:	89 44 24 18          	mov    %eax,0x18(%esp)
   18b14:	8b 45 04             	mov    0x4(%ebp),%eax
   18b17:	89 44 24 14          	mov    %eax,0x14(%esp)
   18b1b:	c7 44 24 10 58 01 00 	movl   $0x158,0x10(%esp)
   18b22:	00 
   18b23:	c7 44 24 0c 31 07 02 	movl   $0x20731,0xc(%esp)
   18b2a:	00 
   18b2b:	c7 44 24 08 d2 ef 01 	movl   $0x1efd2,0x8(%esp)
   18b32:	00 
   18b33:	c7 44 24 04 fc 09 02 	movl   $0x209fc,0x4(%esp)
   18b3a:	00 
   18b3b:	c7 04 24 b4 ee 01 00 	movl   $0x1eeb4,(%esp)
   18b42:	e8 1f 85 ff ff       	call   11066 <Print>
   18b47:	eb fe                	jmp    18b47 <Wait_For_Interrupt+0x57>
   18b49:	c7 04 24 80 53 02 00 	movl   $0x25380,(%esp)
   18b50:	e8 2f d4 ff ff       	call   15f84 <Wait>
   18b55:	c9                   	leave  
   18b56:	c3                   	ret    

00018b57 <Floppy_Interrupt_Handler>:
   18b57:	55                   	push   %ebp
   18b58:	89 e5                	mov    %esp,%ebp
   18b5a:	53                   	push   %ebx
   18b5b:	83 ec 14             	sub    $0x14,%esp
   18b5e:	8b 5d 08             	mov    0x8(%ebp),%ebx
   18b61:	89 1c 24             	mov    %ebx,(%esp)
   18b64:	e8 6b 7d ff ff       	call   108d4 <Begin_IRQ>
   18b69:	c7 04 24 80 53 02 00 	movl   $0x25380,(%esp)
   18b70:	e8 f0 d7 ff ff       	call   16365 <Wake_Up>
   18b75:	89 1c 24             	mov    %ebx,(%esp)
   18b78:	e8 5c 7d ff ff       	call   108d9 <End_IRQ>
   18b7d:	83 c4 14             	add    $0x14,%esp
   18b80:	5b                   	pop    %ebx
   18b81:	5d                   	pop    %ebp
   18b82:	c3                   	ret    

00018b83 <Setup_Drive_Parameters>:
   18b83:	83 fa 05             	cmp    $0x5,%edx
   18b86:	0f 87 c0 00 00 00    	ja     18c4c <Setup_Drive_Parameters+0xc9>
   18b8c:	55                   	push   %ebp
   18b8d:	89 e5                	mov    %esp,%ebp
   18b8f:	57                   	push   %edi
   18b90:	56                   	push   %esi
   18b91:	53                   	push   %ebx
   18b92:	83 ec 3c             	sub    $0x3c,%esp
   18b95:	89 c3                	mov    %eax,%ebx
   18b97:	8d 04 92             	lea    (%edx,%edx,4),%eax
   18b9a:	83 3c 85 60 40 02 00 	cmpl   $0x0,0x24060(,%eax,4)
   18ba1:	00 
   18ba2:	0f 8e 9d 00 00 00    	jle    18c45 <Setup_Drive_Parameters+0xc2>
   18ba8:	c1 e0 02             	shl    $0x2,%eax
   18bab:	89 45 d4             	mov    %eax,-0x2c(%ebp)
   18bae:	8d b8 60 40 02 00    	lea    0x24060(%eax),%edi
   18bb4:	89 5c 24 0c          	mov    %ebx,0xc(%esp)
   18bb8:	c7 44 24 08 60 07 02 	movl   $0x20760,0x8(%esp)
   18bbf:	00 
   18bc0:	c7 44 24 04 10 00 00 	movl   $0x10,0x4(%esp)
   18bc7:	00 
   18bc8:	8d 75 d8             	lea    -0x28(%ebp),%esi
   18bcb:	89 34 24             	mov    %esi,(%esp)
   18bce:	e8 d8 61 00 00       	call   1edab <snprintf>
   18bd3:	8b 47 08             	mov    0x8(%edi),%eax
   18bd6:	89 44 24 10          	mov    %eax,0x10(%esp)
   18bda:	8b 47 04             	mov    0x4(%edi),%eax
   18bdd:	89 44 24 0c          	mov    %eax,0xc(%esp)
   18be1:	8b 45 d4             	mov    -0x2c(%ebp),%eax
   18be4:	8b 80 60 40 02 00    	mov    0x24060(%eax),%eax
   18bea:	89 44 24 08          	mov    %eax,0x8(%esp)
   18bee:	89 74 24 04          	mov    %esi,0x4(%esp)
   18bf2:	c7 04 24 e4 07 02 00 	movl   $0x207e4,(%esp)
   18bf9:	e8 68 84 ff ff       	call   11066 <Print>
   18bfe:	89 3c 9d 74 5e 02 00 	mov    %edi,0x25e74(,%ebx,4)
   18c05:	c7 44 24 14 74 53 02 	movl   $0x25374,0x14(%esp)
   18c0c:	00 
   18c0d:	c7 44 24 10 6c 53 02 	movl   $0x2536c,0x10(%esp)
   18c14:	00 
   18c15:	c7 44 24 0c 00 00 00 	movl   $0x0,0xc(%esp)
   18c1c:	00 
   18c1d:	89 5c 24 08          	mov    %ebx,0x8(%esp)
   18c21:	c7 44 24 04 40 40 02 	movl   $0x24040,0x4(%esp)
   18c28:	00 
   18c29:	89 34 24             	mov    %esi,(%esp)
   18c2c:	e8 5f 0a 00 00       	call   19690 <Register_Block_Device>
   18c31:	85 c0                	test   %eax,%eax
   18c33:	74 10                	je     18c45 <Setup_Drive_Parameters+0xc2>
   18c35:	89 74 24 04          	mov    %esi,0x4(%esp)
   18c39:	c7 04 24 0c 08 02 00 	movl   $0x2080c,(%esp)
   18c40:	e8 21 84 ff ff       	call   11066 <Print>
   18c45:	83 c4 3c             	add    $0x3c,%esp
   18c48:	5b                   	pop    %ebx
   18c49:	5e                   	pop    %esi
   18c4a:	5f                   	pop    %edi
   18c4b:	5d                   	pop    %ebp
   18c4c:	f3 c3                	repz ret 

00018c4e <Floppy_Transfer>:
   18c4e:	55                   	push   %ebp
   18c4f:	89 e5                	mov    %esp,%ebp
   18c51:	57                   	push   %edi
   18c52:	56                   	push   %esi
   18c53:	53                   	push   %ebx
   18c54:	83 ec 4c             	sub    $0x4c,%esp
   18c57:	89 45 e4             	mov    %eax,-0x1c(%ebp)
   18c5a:	89 4d e0             	mov    %ecx,-0x20(%ebp)
   18c5d:	8b 1c 95 74 5e 02 00 	mov    0x25e74(,%edx,4),%ebx
   18c64:	85 d2                	test   %edx,%edx
   18c66:	74 4a                	je     18cb2 <Floppy_Transfer+0x64>
   18c68:	c7 04 24 4f 00 00 00 	movl   $0x4f,(%esp)
   18c6f:	e8 47 85 ff ff       	call   111bb <Set_Current_Attr>
   18c74:	a1 6c 5e 02 00       	mov    0x25e6c,%eax
   18c79:	89 44 24 18          	mov    %eax,0x18(%esp)
   18c7d:	8b 45 04             	mov    0x4(%ebp),%eax
   18c80:	89 44 24 14          	mov    %eax,0x14(%esp)
   18c84:	c7 44 24 10 d7 01 00 	movl   $0x1d7,0x10(%esp)
   18c8b:	00 
   18c8c:	c7 44 24 0c 31 07 02 	movl   $0x20731,0xc(%esp)
   18c93:	00 
   18c94:	c7 44 24 08 65 07 02 	movl   $0x20765,0x8(%esp)
   18c9b:	00 
   18c9c:	c7 44 24 04 33 0a 02 	movl   $0x20a33,0x4(%esp)
   18ca3:	00 
   18ca4:	c7 04 24 b4 ee 01 00 	movl   $0x1eeb4,(%esp)
   18cab:	e8 b6 83 ff ff       	call   11066 <Print>
   18cb0:	eb fe                	jmp    18cb0 <Floppy_Transfer+0x62>
   18cb2:	83 7d e4 01          	cmpl   $0x1,-0x1c(%ebp)
   18cb6:	76 4a                	jbe    18d02 <Floppy_Transfer+0xb4>
   18cb8:	c7 04 24 4f 00 00 00 	movl   $0x4f,(%esp)
   18cbf:	e8 f7 84 ff ff       	call   111bb <Set_Current_Attr>
   18cc4:	a1 6c 5e 02 00       	mov    0x25e6c,%eax
   18cc9:	89 44 24 18          	mov    %eax,0x18(%esp)
   18ccd:	8b 45 04             	mov    0x4(%ebp),%eax
   18cd0:	89 44 24 14          	mov    %eax,0x14(%esp)
   18cd4:	c7 44 24 10 d8 01 00 	movl   $0x1d8,0x10(%esp)
   18cdb:	00 
   18cdc:	c7 44 24 0c 31 07 02 	movl   $0x20731,0xc(%esp)
   18ce3:	00 
   18ce4:	c7 44 24 08 3c 08 02 	movl   $0x2083c,0x8(%esp)
   18ceb:	00 
   18cec:	c7 44 24 04 33 0a 02 	movl   $0x20a33,0x4(%esp)
   18cf3:	00 
   18cf4:	c7 04 24 b4 ee 01 00 	movl   $0x1eeb4,(%esp)
   18cfb:	e8 66 83 ff ff       	call   11066 <Print>
   18d00:	eb fe                	jmp    18d00 <Floppy_Transfer+0xb2>
   18d02:	85 db                	test   %ebx,%ebx
   18d04:	75 4a                	jne    18d50 <Floppy_Transfer+0x102>
   18d06:	c7 04 24 4f 00 00 00 	movl   $0x4f,(%esp)
   18d0d:	e8 a9 84 ff ff       	call   111bb <Set_Current_Attr>
   18d12:	a1 6c 5e 02 00       	mov    0x25e6c,%eax
   18d17:	89 44 24 18          	mov    %eax,0x18(%esp)
   18d1b:	8b 45 04             	mov    0x4(%ebp),%eax
   18d1e:	89 44 24 14          	mov    %eax,0x14(%esp)
   18d22:	c7 44 24 10 d9 01 00 	movl   $0x1d9,0x10(%esp)
   18d29:	00 
   18d2a:	c7 44 24 0c 31 07 02 	movl   $0x20731,0xc(%esp)
   18d31:	00 
   18d32:	c7 44 24 08 48 07 02 	movl   $0x20748,0x8(%esp)
   18d39:	00 
   18d3a:	c7 44 24 04 33 0a 02 	movl   $0x20a33,0x4(%esp)
   18d41:	00 
   18d42:	c7 04 24 b4 ee 01 00 	movl   $0x1eeb4,(%esp)
   18d49:	e8 18 83 ff ff       	call   11066 <Print>
   18d4e:	eb fe                	jmp    18d4e <Floppy_Transfer+0x100>
   18d50:	8b 7b 04             	mov    0x4(%ebx),%edi
   18d53:	8b 4b 08             	mov    0x8(%ebx),%ecx
   18d56:	89 fe                	mov    %edi,%esi
   18d58:	0f af f1             	imul   %ecx,%esi
   18d5b:	8b 45 e0             	mov    -0x20(%ebp),%eax
   18d5e:	99                   	cltd   
   18d5f:	f7 fe                	idiv   %esi
   18d61:	89 45 dc             	mov    %eax,-0x24(%ebp)
   18d64:	85 c0                	test   %eax,%eax
   18d66:	78 04                	js     18d6c <Floppy_Transfer+0x11e>
   18d68:	3b 03                	cmp    (%ebx),%eax
   18d6a:	7c 4a                	jl     18db6 <Floppy_Transfer+0x168>
   18d6c:	c7 04 24 4f 00 00 00 	movl   $0x4f,(%esp)
   18d73:	e8 43 84 ff ff       	call   111bb <Set_Current_Attr>
   18d78:	a1 6c 5e 02 00       	mov    0x25e6c,%eax
   18d7d:	89 44 24 18          	mov    %eax,0x18(%esp)
   18d81:	8b 45 04             	mov    0x4(%ebp),%eax
   18d84:	89 44 24 14          	mov    %eax,0x14(%esp)
   18d88:	c7 44 24 10 2b 01 00 	movl   $0x12b,0x10(%esp)
   18d8f:	00 
   18d90:	c7 44 24 0c 31 07 02 	movl   $0x20731,0xc(%esp)
   18d97:	00 
   18d98:	c7 44 24 08 74 08 02 	movl   $0x20874,0x8(%esp)
   18d9f:	00 
   18da0:	c7 44 24 04 28 0a 02 	movl   $0x20a28,0x4(%esp)
   18da7:	00 
   18da8:	c7 04 24 b4 ee 01 00 	movl   $0x1eeb4,(%esp)
   18daf:	e8 b2 82 ff ff       	call   11066 <Print>
   18db4:	eb fe                	jmp    18db4 <Floppy_Transfer+0x166>
   18db6:	8b 45 e0             	mov    -0x20(%ebp),%eax
   18db9:	99                   	cltd   
   18dba:	f7 f9                	idiv   %ecx
   18dbc:	99                   	cltd   
   18dbd:	f7 ff                	idiv   %edi
   18dbf:	89 d6                	mov    %edx,%esi
   18dc1:	85 d2                	test   %edx,%edx
   18dc3:	78 04                	js     18dc9 <Floppy_Transfer+0x17b>
   18dc5:	39 d7                	cmp    %edx,%edi
   18dc7:	7f 4a                	jg     18e13 <Floppy_Transfer+0x1c5>
   18dc9:	c7 04 24 4f 00 00 00 	movl   $0x4f,(%esp)
   18dd0:	e8 e6 83 ff ff       	call   111bb <Set_Current_Attr>
   18dd5:	a1 6c 5e 02 00       	mov    0x25e6c,%eax
   18dda:	89 44 24 18          	mov    %eax,0x18(%esp)
   18dde:	8b 45 04             	mov    0x4(%ebp),%eax
   18de1:	89 44 24 14          	mov    %eax,0x14(%esp)
   18de5:	c7 44 24 10 2c 01 00 	movl   $0x12c,0x10(%esp)
   18dec:	00 
   18ded:	c7 44 24 0c 31 07 02 	movl   $0x20731,0xc(%esp)
   18df4:	00 
   18df5:	c7 44 24 08 a4 08 02 	movl   $0x208a4,0x8(%esp)
   18dfc:	00 
   18dfd:	c7 44 24 04 28 0a 02 	movl   $0x20a28,0x4(%esp)
   18e04:	00 
   18e05:	c7 04 24 b4 ee 01 00 	movl   $0x1eeb4,(%esp)
   18e0c:	e8 55 82 ff ff       	call   11066 <Print>
   18e11:	eb fe                	jmp    18e11 <Floppy_Transfer+0x1c3>
   18e13:	8b 45 e0             	mov    -0x20(%ebp),%eax
   18e16:	99                   	cltd   
   18e17:	f7 f9                	idiv   %ecx
   18e19:	8d 7a 01             	lea    0x1(%edx),%edi
   18e1c:	85 ff                	test   %edi,%edi
   18e1e:	7e 04                	jle    18e24 <Floppy_Transfer+0x1d6>
   18e20:	39 f9                	cmp    %edi,%ecx
   18e22:	7d 4a                	jge    18e6e <Floppy_Transfer+0x220>
   18e24:	c7 04 24 4f 00 00 00 	movl   $0x4f,(%esp)
   18e2b:	e8 8b 83 ff ff       	call   111bb <Set_Current_Attr>
   18e30:	a1 6c 5e 02 00       	mov    0x25e6c,%eax
   18e35:	89 44 24 18          	mov    %eax,0x18(%esp)
   18e39:	8b 45 04             	mov    0x4(%ebp),%eax
   18e3c:	89 44 24 14          	mov    %eax,0x14(%esp)
   18e40:	c7 44 24 10 2d 01 00 	movl   $0x12d,0x10(%esp)
   18e47:	00 
   18e48:	c7 44 24 0c 31 07 02 	movl   $0x20731,0xc(%esp)
   18e4f:	00 
   18e50:	c7 44 24 08 c8 08 02 	movl   $0x208c8,0x8(%esp)
   18e57:	00 
   18e58:	c7 44 24 04 28 0a 02 	movl   $0x20a28,0x4(%esp)
   18e5f:	00 
   18e60:	c7 04 24 b4 ee 01 00 	movl   $0x1eeb4,(%esp)
   18e67:	e8 fa 81 ff ff       	call   11066 <Print>
   18e6c:	eb fe                	jmp    18e6c <Floppy_Transfer+0x21e>
   18e6e:	8d 04 b5 00 00 00 00 	lea    0x0(,%esi,4),%eax
   18e75:	0f b6 c0             	movzbl %al,%eax
   18e78:	89 45 e0             	mov    %eax,-0x20(%ebp)
   18e7b:	c7 45 d8 04 00 00 00 	movl   $0x4,-0x28(%ebp)
   18e82:	0f b6 45 dc          	movzbl -0x24(%ebp),%eax
   18e86:	89 45 cc             	mov    %eax,-0x34(%ebp)
   18e89:	c7 44 24 04 1c 00 00 	movl   $0x1c,0x4(%esp)
   18e90:	00 
   18e91:	c7 04 24 f2 03 00 00 	movl   $0x3f2,(%esp)
   18e98:	e8 96 7a ff ff       	call   10933 <Out_Byte>
   18e9d:	e8 9d 73 ff ff       	call   1023f <Interrupts_Enabled>
   18ea2:	84 c0                	test   %al,%al
   18ea4:	75 4a                	jne    18ef0 <Floppy_Transfer+0x2a2>
   18ea6:	c7 04 24 4f 00 00 00 	movl   $0x4f,(%esp)
   18ead:	e8 09 83 ff ff       	call   111bb <Set_Current_Attr>
   18eb2:	a1 6c 5e 02 00       	mov    0x25e6c,%eax
   18eb7:	89 44 24 18          	mov    %eax,0x18(%esp)
   18ebb:	8b 45 04             	mov    0x4(%ebp),%eax
   18ebe:	89 44 24 14          	mov    %eax,0x14(%esp)
   18ec2:	c7 44 24 10 ae 01 00 	movl   $0x1ae,0x10(%esp)
   18ec9:	00 
   18eca:	c7 44 24 0c 31 07 02 	movl   $0x20731,0xc(%esp)
   18ed1:	00 
   18ed2:	c7 44 24 08 d3 ef 01 	movl   $0x1efd3,0x8(%esp)
   18ed9:	00 
   18eda:	c7 44 24 04 1c 0a 02 	movl   $0x20a1c,0x4(%esp)
   18ee1:	00 
   18ee2:	c7 04 24 b4 ee 01 00 	movl   $0x1eeb4,(%esp)
   18ee9:	e8 78 81 ff ff       	call   11066 <Print>
   18eee:	eb fe                	jmp    18eee <Floppy_Transfer+0x2a0>
   18ef0:	fa                   	cli    
   18ef1:	b8 0f 00 00 00       	mov    $0xf,%eax
   18ef6:	e8 2d fa ff ff       	call   18928 <Floppy_Out>
   18efb:	8b 45 e0             	mov    -0x20(%ebp),%eax
   18efe:	e8 25 fa ff ff       	call   18928 <Floppy_Out>
   18f03:	8b 45 cc             	mov    -0x34(%ebp),%eax
   18f06:	89 45 d4             	mov    %eax,-0x2c(%ebp)
   18f09:	e8 1a fa ff ff       	call   18928 <Floppy_Out>
   18f0e:	e8 dd fb ff ff       	call   18af0 <Wait_For_Interrupt>
   18f13:	e8 27 73 ff ff       	call   1023f <Interrupts_Enabled>
   18f18:	84 c0                	test   %al,%al
   18f1a:	74 4a                	je     18f66 <Floppy_Transfer+0x318>
   18f1c:	c7 04 24 4f 00 00 00 	movl   $0x4f,(%esp)
   18f23:	e8 93 82 ff ff       	call   111bb <Set_Current_Attr>
   18f28:	a1 6c 5e 02 00       	mov    0x25e6c,%eax
   18f2d:	89 44 24 18          	mov    %eax,0x18(%esp)
   18f31:	8b 45 04             	mov    0x4(%ebp),%eax
   18f34:	89 44 24 14          	mov    %eax,0x14(%esp)
   18f38:	c7 44 24 10 b8 01 00 	movl   $0x1b8,0x10(%esp)
   18f3f:	00 
   18f40:	c7 44 24 0c 31 07 02 	movl   $0x20731,0xc(%esp)
   18f47:	00 
   18f48:	c7 44 24 08 d2 ef 01 	movl   $0x1efd2,0x8(%esp)
   18f4f:	00 
   18f50:	c7 44 24 04 1c 0a 02 	movl   $0x20a1c,0x4(%esp)
   18f57:	00 
   18f58:	c7 04 24 b4 ee 01 00 	movl   $0x1eeb4,(%esp)
   18f5f:	e8 02 81 ff ff       	call   11066 <Print>
   18f64:	eb fe                	jmp    18f64 <Floppy_Transfer+0x316>
   18f66:	fb                   	sti    
   18f67:	c7 44 24 04 0c 00 00 	movl   $0xc,0x4(%esp)
   18f6e:	00 
   18f6f:	c7 04 24 f2 03 00 00 	movl   $0x3f2,(%esp)
   18f76:	e8 b8 79 ff ff       	call   10933 <Out_Byte>
   18f7b:	b8 08 00 00 00       	mov    $0x8,%eax
   18f80:	e8 a3 f9 ff ff       	call   18928 <Floppy_Out>
   18f85:	e8 ca f9 ff ff       	call   18954 <Floppy_In>
   18f8a:	88 45 d3             	mov    %al,-0x2d(%ebp)
   18f8d:	e8 c2 f9 ff ff       	call   18954 <Floppy_In>
   18f92:	f6 45 d3 20          	testb  $0x20,-0x2d(%ebp)
   18f96:	74 0c                	je     18fa4 <Floppy_Transfer+0x356>
   18f98:	0f b6 c0             	movzbl %al,%eax
   18f9b:	39 45 dc             	cmp    %eax,-0x24(%ebp)
   18f9e:	0f 84 af 01 00 00    	je     19153 <Floppy_Transfer+0x505>
   18fa4:	83 6d d8 01          	subl   $0x1,-0x28(%ebp)
   18fa8:	0f 85 db fe ff ff    	jne    18e89 <Floppy_Transfer+0x23b>
   18fae:	e9 99 01 00 00       	jmp    1914c <Floppy_Transfer+0x4fe>
   18fb3:	c7 04 24 4f 00 00 00 	movl   $0x4f,(%esp)
   18fba:	e8 fc 81 ff ff       	call   111bb <Set_Current_Attr>
   18fbf:	a1 6c 5e 02 00       	mov    0x25e6c,%eax
   18fc4:	89 44 24 18          	mov    %eax,0x18(%esp)
   18fc8:	8b 45 04             	mov    0x4(%ebp),%eax
   18fcb:	89 44 24 14          	mov    %eax,0x14(%esp)
   18fcf:	c7 44 24 10 e0 01 00 	movl   $0x1e0,0x10(%esp)
   18fd6:	00 
   18fd7:	c7 44 24 0c 31 07 02 	movl   $0x20731,0xc(%esp)
   18fde:	00 
   18fdf:	c7 44 24 08 d3 ef 01 	movl   $0x1efd3,0x8(%esp)
   18fe6:	00 
   18fe7:	c7 44 24 04 33 0a 02 	movl   $0x20a33,0x4(%esp)
   18fee:	00 
   18fef:	c7 04 24 b4 ee 01 00 	movl   $0x1eeb4,(%esp)
   18ff6:	e8 6b 80 ff ff       	call   11066 <Print>
   18ffb:	eb fe                	jmp    18ffb <Floppy_Transfer+0x3ad>
   18ffd:	fa                   	cli    
   18ffe:	c7 44 24 0c 00 02 00 	movl   $0x200,0xc(%esp)
   19005:	00 
   19006:	a1 7c 53 02 00       	mov    0x2537c,%eax
   1900b:	89 44 24 08          	mov    %eax,0x8(%esp)
   1900f:	c7 44 24 04 02 00 00 	movl   $0x2,0x4(%esp)
   19016:	00 
   19017:	83 7d e4 00          	cmpl   $0x0,-0x1c(%ebp)
   1901b:	0f 95 c0             	setne  %al
   1901e:	0f b6 c0             	movzbl %al,%eax
   19021:	89 04 24             	mov    %eax,(%esp)
   19024:	e8 93 f5 ff ff       	call   185bc <Setup_DMA>
   19029:	c7 44 24 04 1c 00 00 	movl   $0x1c,0x4(%esp)
   19030:	00 
   19031:	c7 04 24 f2 03 00 00 	movl   $0x3f2,(%esp)
   19038:	e8 f6 78 ff ff       	call   10933 <Out_Byte>
   1903d:	c7 04 24 40 1f 00 00 	movl   $0x1f40,(%esp)
   19044:	e8 e9 95 ff ff       	call   12632 <Micro_Delay>
   19049:	83 7d e4 01          	cmpl   $0x1,-0x1c(%ebp)
   1904d:	19 c0                	sbb    %eax,%eax
   1904f:	83 e0 21             	and    $0x21,%eax
   19052:	83 c0 45             	add    $0x45,%eax
   19055:	0f b6 c0             	movzbl %al,%eax
   19058:	e8 cb f8 ff ff       	call   18928 <Floppy_Out>
   1905d:	8b 45 e0             	mov    -0x20(%ebp),%eax
   19060:	e8 c3 f8 ff ff       	call   18928 <Floppy_Out>
   19065:	8b 45 d4             	mov    -0x2c(%ebp),%eax
   19068:	e8 bb f8 ff ff       	call   18928 <Floppy_Out>
   1906d:	89 f0                	mov    %esi,%eax
   1906f:	0f b6 c0             	movzbl %al,%eax
   19072:	e8 b1 f8 ff ff       	call   18928 <Floppy_Out>
   19077:	89 f8                	mov    %edi,%eax
   19079:	0f b6 c0             	movzbl %al,%eax
   1907c:	e8 a7 f8 ff ff       	call   18928 <Floppy_Out>
   19081:	0f b6 43 0c          	movzbl 0xc(%ebx),%eax
   19085:	e8 9e f8 ff ff       	call   18928 <Floppy_Out>
   1908a:	0f b6 43 08          	movzbl 0x8(%ebx),%eax
   1908e:	e8 95 f8 ff ff       	call   18928 <Floppy_Out>
   19093:	0f b6 43 10          	movzbl 0x10(%ebx),%eax
   19097:	e8 8c f8 ff ff       	call   18928 <Floppy_Out>
   1909c:	b8 ff 00 00 00       	mov    $0xff,%eax
   190a1:	e8 82 f8 ff ff       	call   18928 <Floppy_Out>
   190a6:	e8 45 fa ff ff       	call   18af0 <Wait_For_Interrupt>
   190ab:	e8 a4 f8 ff ff       	call   18954 <Floppy_In>
   190b0:	89 c3                	mov    %eax,%ebx
   190b2:	e8 9d f8 ff ff       	call   18954 <Floppy_In>
   190b7:	e8 98 f8 ff ff       	call   18954 <Floppy_In>
   190bc:	e8 93 f8 ff ff       	call   18954 <Floppy_In>
   190c1:	e8 8e f8 ff ff       	call   18954 <Floppy_In>
   190c6:	e8 89 f8 ff ff       	call   18954 <Floppy_In>
   190cb:	90                   	nop
   190cc:	8d 74 26 00          	lea    0x0(%esi,%eiz,1),%esi
   190d0:	e8 7f f8 ff ff       	call   18954 <Floppy_In>
   190d5:	c7 44 24 04 0c 00 00 	movl   $0xc,0x4(%esp)
   190dc:	00 
   190dd:	c7 04 24 f2 03 00 00 	movl   $0x3f2,(%esp)
   190e4:	e8 4a 78 ff ff       	call   10933 <Out_Byte>
   190e9:	c0 eb 06             	shr    $0x6,%bl
   190ec:	84 db                	test   %bl,%bl
   190ee:	0f 95 c3             	setne  %bl
   190f1:	0f b6 db             	movzbl %bl,%ebx
   190f4:	f7 db                	neg    %ebx
   190f6:	e8 44 71 ff ff       	call   1023f <Interrupts_Enabled>
   190fb:	84 c0                	test   %al,%al
   190fd:	74 4a                	je     19149 <Floppy_Transfer+0x4fb>
   190ff:	c7 04 24 4f 00 00 00 	movl   $0x4f,(%esp)
   19106:	e8 b0 80 ff ff       	call   111bb <Set_Current_Attr>
   1910b:	a1 6c 5e 02 00       	mov    0x25e6c,%eax
   19110:	89 44 24 18          	mov    %eax,0x18(%esp)
   19114:	8b 45 04             	mov    0x4(%ebp),%eax
   19117:	89 44 24 14          	mov    %eax,0x14(%esp)
   1911b:	c7 44 24 10 12 02 00 	movl   $0x212,0x10(%esp)
   19122:	00 
   19123:	c7 44 24 0c 31 07 02 	movl   $0x20731,0xc(%esp)
   1912a:	00 
   1912b:	c7 44 24 08 d2 ef 01 	movl   $0x1efd2,0x8(%esp)
   19132:	00 
   19133:	c7 44 24 04 33 0a 02 	movl   $0x20a33,0x4(%esp)
   1913a:	00 
   1913b:	c7 04 24 b4 ee 01 00 	movl   $0x1eeb4,(%esp)
   19142:	e8 1f 7f ff ff       	call   11066 <Print>
   19147:	eb fe                	jmp    19147 <Floppy_Transfer+0x4f9>
   19149:	fb                   	sti    
   1914a:	eb 19                	jmp    19165 <Floppy_Transfer+0x517>
   1914c:	bb ff ff ff ff       	mov    $0xffffffff,%ebx
   19151:	eb 12                	jmp    19165 <Floppy_Transfer+0x517>
   19153:	e8 e7 70 ff ff       	call   1023f <Interrupts_Enabled>
   19158:	84 c0                	test   %al,%al
   1915a:	0f 85 9d fe ff ff    	jne    18ffd <Floppy_Transfer+0x3af>
   19160:	e9 4e fe ff ff       	jmp    18fb3 <Floppy_Transfer+0x365>
   19165:	89 d8                	mov    %ebx,%eax
   19167:	83 c4 4c             	add    $0x4c,%esp
   1916a:	5b                   	pop    %ebx
   1916b:	5e                   	pop    %esi
   1916c:	5f                   	pop    %edi
   1916d:	5d                   	pop    %ebp
   1916e:	c3                   	ret    

0001916f <Floppy_Request_Thread>:
   1916f:	55                   	push   %ebp
   19170:	89 e5                	mov    %esp,%ebp
   19172:	57                   	push   %edi
   19173:	56                   	push   %esi
   19174:	53                   	push   %ebx
   19175:	83 ec 3c             	sub    $0x3c,%esp
   19178:	c7 44 24 04 6c 53 02 	movl   $0x2536c,0x4(%esp)
   1917f:	00 
   19180:	c7 04 24 74 53 02 00 	movl   $0x25374,(%esp)
   19187:	e8 5b 0b 00 00       	call   19ce7 <Dequeue_Request>
   1918c:	89 45 e0             	mov    %eax,-0x20(%ebp)
   1918f:	8b 40 04             	mov    0x4(%eax),%eax
   19192:	83 f8 01             	cmp    $0x1,%eax
   19195:	76 4a                	jbe    191e1 <Floppy_Request_Thread+0x72>
   19197:	c7 04 24 4f 00 00 00 	movl   $0x4f,(%esp)
   1919e:	e8 18 80 ff ff       	call   111bb <Set_Current_Attr>
   191a3:	a1 6c 5e 02 00       	mov    0x25e6c,%eax
   191a8:	89 44 24 18          	mov    %eax,0x18(%esp)
   191ac:	8b 45 04             	mov    0x4(%ebp),%eax
   191af:	89 44 24 14          	mov    %eax,0x14(%esp)
   191b3:	c7 44 24 10 48 02 00 	movl   $0x248,0x10(%esp)
   191ba:	00 
   191bb:	c7 44 24 0c 31 07 02 	movl   $0x20731,0xc(%esp)
   191c2:	00 
   191c3:	c7 44 24 08 f4 08 02 	movl   $0x208f4,0x8(%esp)
   191ca:	00 
   191cb:	c7 44 24 04 43 0a 02 	movl   $0x20a43,0x4(%esp)
   191d2:	00 
   191d3:	c7 04 24 b4 ee 01 00 	movl   $0x1eeb4,(%esp)
   191da:	e8 87 7e ff ff       	call   11066 <Print>
   191df:	eb fe                	jmp    191df <Floppy_Request_Thread+0x70>
   191e1:	85 c0                	test   %eax,%eax
   191e3:	0f 85 37 01 00 00    	jne    19320 <Floppy_Request_Thread+0x1b1>
   191e9:	8b 45 e0             	mov    -0x20(%ebp),%eax
   191ec:	8b 70 0c             	mov    0xc(%eax),%esi
   191ef:	89 f2                	mov    %esi,%edx
   191f1:	89 75 e4             	mov    %esi,-0x1c(%ebp)
   191f4:	8b 70 08             	mov    0x8(%eax),%esi
   191f7:	8b 00                	mov    (%eax),%eax
   191f9:	8b 40 14             	mov    0x14(%eax),%eax
   191fc:	89 45 dc             	mov    %eax,-0x24(%ebp)
   191ff:	89 d7                	mov    %edx,%edi
   19201:	bb 00 02 00 00       	mov    $0x200,%ebx
   19206:	f6 c2 01             	test   $0x1,%dl
   19209:	74 0a                	je     19215 <Floppy_Request_Thread+0xa6>
   1920b:	c6 02 cd             	movb   $0xcd,(%edx)
   1920e:	8d 7a 01             	lea    0x1(%edx),%edi
   19211:	66 bb ff 01          	mov    $0x1ff,%bx
   19215:	f7 c7 02 00 00 00    	test   $0x2,%edi
   1921b:	74 0b                	je     19228 <Floppy_Request_Thread+0xb9>
   1921d:	66 c7 07 cd cd       	movw   $0xcdcd,(%edi)
   19222:	83 c7 02             	add    $0x2,%edi
   19225:	83 eb 02             	sub    $0x2,%ebx
   19228:	89 d9                	mov    %ebx,%ecx
   1922a:	c1 e9 02             	shr    $0x2,%ecx
   1922d:	b8 cd cd cd cd       	mov    $0xcdcdcdcd,%eax
   19232:	f3 ab                	rep stos %eax,%es:(%edi)
   19234:	f6 c3 02             	test   $0x2,%bl
   19237:	74 08                	je     19241 <Floppy_Request_Thread+0xd2>
   19239:	66 c7 07 cd cd       	movw   $0xcdcd,(%edi)
   1923e:	83 c7 02             	add    $0x2,%edi
   19241:	f6 c3 01             	test   $0x1,%bl
   19244:	74 03                	je     19249 <Floppy_Request_Thread+0xda>
   19246:	c6 07 cd             	movb   $0xcd,(%edi)
   19249:	8b 3d 7c 53 02 00    	mov    0x2537c,%edi
   1924f:	bb 00 02 00 00       	mov    $0x200,%ebx
   19254:	f7 c7 01 00 00 00    	test   $0x1,%edi
   1925a:	74 0a                	je     19266 <Floppy_Request_Thread+0xf7>
   1925c:	c6 07 cd             	movb   $0xcd,(%edi)
   1925f:	83 c7 01             	add    $0x1,%edi
   19262:	66 bb ff 01          	mov    $0x1ff,%bx
   19266:	f7 c7 02 00 00 00    	test   $0x2,%edi
   1926c:	74 0b                	je     19279 <Floppy_Request_Thread+0x10a>
   1926e:	66 c7 07 cd cd       	movw   $0xcdcd,(%edi)
   19273:	83 c7 02             	add    $0x2,%edi
   19276:	83 eb 02             	sub    $0x2,%ebx
   19279:	89 d9                	mov    %ebx,%ecx
   1927b:	c1 e9 02             	shr    $0x2,%ecx
   1927e:	b8 cd cd cd cd       	mov    $0xcdcdcdcd,%eax
   19283:	f3 ab                	rep stos %eax,%es:(%edi)
   19285:	f6 c3 02             	test   $0x2,%bl
   19288:	74 08                	je     19292 <Floppy_Request_Thread+0x123>
   1928a:	66 c7 07 cd cd       	movw   $0xcdcd,(%edi)
   1928f:	83 c7 02             	add    $0x2,%edi
   19292:	f6 c3 01             	test   $0x1,%bl
   19295:	74 03                	je     1929a <Floppy_Request_Thread+0x12b>
   19297:	c6 07 cd             	movb   $0xcd,(%edi)
   1929a:	8b 45 e4             	mov    -0x1c(%ebp),%eax
   1929d:	89 04 24             	mov    %eax,(%esp)
   192a0:	89 f1                	mov    %esi,%ecx
   192a2:	8b 55 dc             	mov    -0x24(%ebp),%edx
   192a5:	b8 00 00 00 00       	mov    $0x0,%eax
   192aa:	e8 9f f9 ff ff       	call   18c4e <Floppy_Transfer>
   192af:	85 c0                	test   %eax,%eax
   192b1:	0f 85 eb 00 00 00    	jne    193a2 <Floppy_Request_Thread+0x233>
   192b7:	8b 0d 7c 53 02 00    	mov    0x2537c,%ecx
   192bd:	8b 55 e4             	mov    -0x1c(%ebp),%edx
   192c0:	89 d7                	mov    %edx,%edi
   192c2:	89 ce                	mov    %ecx,%esi
   192c4:	bb 00 02 00 00       	mov    $0x200,%ebx
   192c9:	f6 c2 01             	test   $0x1,%dl
   192cc:	74 0f                	je     192dd <Floppy_Request_Thread+0x16e>
   192ce:	0f b6 11             	movzbl (%ecx),%edx
   192d1:	88 17                	mov    %dl,(%edi)
   192d3:	8d 7f 01             	lea    0x1(%edi),%edi
   192d6:	8d 71 01             	lea    0x1(%ecx),%esi
   192d9:	66 bb ff 01          	mov    $0x1ff,%bx
   192dd:	f7 c7 02 00 00 00    	test   $0x2,%edi
   192e3:	74 0f                	je     192f4 <Floppy_Request_Thread+0x185>
   192e5:	0f b7 0e             	movzwl (%esi),%ecx
   192e8:	66 89 0f             	mov    %cx,(%edi)
   192eb:	83 c7 02             	add    $0x2,%edi
   192ee:	83 c6 02             	add    $0x2,%esi
   192f1:	83 eb 02             	sub    $0x2,%ebx
   192f4:	89 d9                	mov    %ebx,%ecx
   192f6:	c1 e9 02             	shr    $0x2,%ecx
   192f9:	f3 a5                	rep movsl %ds:(%esi),%es:(%edi)
   192fb:	f6 c3 02             	test   $0x2,%bl
   192fe:	74 0b                	je     1930b <Floppy_Request_Thread+0x19c>
   19300:	0f b7 0e             	movzwl (%esi),%ecx
   19303:	66 89 0f             	mov    %cx,(%edi)
   19306:	b9 02 00 00 00       	mov    $0x2,%ecx
   1930b:	f6 c3 01             	test   $0x1,%bl
   1930e:	0f 84 8e 00 00 00    	je     193a2 <Floppy_Request_Thread+0x233>
   19314:	0f b6 1c 0e          	movzbl (%esi,%ecx,1),%ebx
   19318:	88 1c 0f             	mov    %bl,(%edi,%ecx,1)
   1931b:	e9 82 00 00 00       	jmp    193a2 <Floppy_Request_Thread+0x233>
   19320:	8b 45 e0             	mov    -0x20(%ebp),%eax
   19323:	8b 58 0c             	mov    0xc(%eax),%ebx
   19326:	8b 50 08             	mov    0x8(%eax),%edx
   19329:	89 55 e4             	mov    %edx,-0x1c(%ebp)
   1932c:	8b 00                	mov    (%eax),%eax
   1932e:	8b 40 14             	mov    0x14(%eax),%eax
   19331:	8b 3d 7c 53 02 00    	mov    0x2537c,%edi
   19337:	89 de                	mov    %ebx,%esi
   19339:	ba 00 02 00 00       	mov    $0x200,%edx
   1933e:	f7 c7 01 00 00 00    	test   $0x1,%edi
   19344:	74 10                	je     19356 <Floppy_Request_Thread+0x1e7>
   19346:	0f b6 13             	movzbl (%ebx),%edx
   19349:	88 17                	mov    %dl,(%edi)
   1934b:	83 c7 01             	add    $0x1,%edi
   1934e:	8d 73 01             	lea    0x1(%ebx),%esi
   19351:	ba ff 01 00 00       	mov    $0x1ff,%edx
   19356:	f7 c7 02 00 00 00    	test   $0x2,%edi
   1935c:	74 0f                	je     1936d <Floppy_Request_Thread+0x1fe>
   1935e:	0f b7 0e             	movzwl (%esi),%ecx
   19361:	66 89 0f             	mov    %cx,(%edi)
   19364:	83 c7 02             	add    $0x2,%edi
   19367:	83 c6 02             	add    $0x2,%esi
   1936a:	83 ea 02             	sub    $0x2,%edx
   1936d:	89 d1                	mov    %edx,%ecx
   1936f:	c1 e9 02             	shr    $0x2,%ecx
   19372:	f3 a5                	rep movsl %ds:(%esi),%es:(%edi)
   19374:	f6 c2 02             	test   $0x2,%dl
   19377:	74 0b                	je     19384 <Floppy_Request_Thread+0x215>
   19379:	0f b7 0e             	movzwl (%esi),%ecx
   1937c:	66 89 0f             	mov    %cx,(%edi)
   1937f:	b9 02 00 00 00       	mov    $0x2,%ecx
   19384:	f6 c2 01             	test   $0x1,%dl
   19387:	74 07                	je     19390 <Floppy_Request_Thread+0x221>
   19389:	0f b6 14 0e          	movzbl (%esi,%ecx,1),%edx
   1938d:	88 14 0f             	mov    %dl,(%edi,%ecx,1)
   19390:	89 1c 24             	mov    %ebx,(%esp)
   19393:	8b 4d e4             	mov    -0x1c(%ebp),%ecx
   19396:	89 c2                	mov    %eax,%edx
   19398:	b8 01 00 00 00       	mov    $0x1,%eax
   1939d:	e8 ac f8 ff ff       	call   18c4e <Floppy_Transfer>
   193a2:	83 f8 01             	cmp    $0x1,%eax
   193a5:	19 d2                	sbb    %edx,%edx
   193a7:	83 c2 02             	add    $0x2,%edx
   193aa:	89 44 24 08          	mov    %eax,0x8(%esp)
   193ae:	89 54 24 04          	mov    %edx,0x4(%esp)
   193b2:	8b 45 e0             	mov    -0x20(%ebp),%eax
   193b5:	89 04 24             	mov    %eax,(%esp)
   193b8:	e8 20 0a 00 00       	call   19ddd <Notify_Request_Completion>
   193bd:	e9 b6 fd ff ff       	jmp    19178 <Floppy_Request_Thread+0x9>

000193c2 <Init_Floppy>:
   193c2:	55                   	push   %ebp
   193c3:	89 e5                	mov    %esp,%ebp
   193c5:	56                   	push   %esi
   193c6:	53                   	push   %ebx
   193c7:	83 ec 20             	sub    $0x20,%esp
   193ca:	c7 04 24 30 09 02 00 	movl   $0x20930,(%esp)
   193d1:	e8 90 7c ff ff       	call   11066 <Print>
   193d6:	e8 04 97 ff ff       	call   12adf <Alloc_Page>
   193db:	a3 7c 53 02 00       	mov    %eax,0x2537c
   193e0:	c7 44 24 04 10 00 00 	movl   $0x10,0x4(%esp)
   193e7:	00 
   193e8:	c7 04 24 70 00 00 00 	movl   $0x70,(%esp)
   193ef:	e8 3f 75 ff ff       	call   10933 <Out_Byte>
   193f4:	c7 04 24 71 00 00 00 	movl   $0x71,(%esp)
   193fb:	e8 3f 75 ff ff       	call   1093f <In_Byte>
   19400:	89 c3                	mov    %eax,%ebx
   19402:	89 c2                	mov    %eax,%edx
   19404:	c0 ea 04             	shr    $0x4,%dl
   19407:	0f b6 d2             	movzbl %dl,%edx
   1940a:	b8 00 00 00 00       	mov    $0x0,%eax
   1940f:	e8 6f f7 ff ff       	call   18b83 <Setup_Drive_Parameters>
   19414:	89 da                	mov    %ebx,%edx
   19416:	83 e2 0f             	and    $0xf,%edx
   19419:	b8 01 00 00 00       	mov    $0x1,%eax
   1941e:	e8 60 f7 ff ff       	call   18b83 <Setup_Drive_Parameters>
   19423:	c7 44 24 04 57 8b 01 	movl   $0x18b57,0x4(%esp)
   1942a:	00 
   1942b:	c7 04 24 06 00 00 00 	movl   $0x6,(%esp)
   19432:	e8 09 71 ff ff       	call   10540 <Install_IRQ>
   19437:	c7 04 24 06 00 00 00 	movl   $0x6,(%esp)
   1943e:	e8 79 71 ff ff       	call   105bc <Enable_IRQ>
   19443:	e8 f7 6d ff ff       	call   1023f <Interrupts_Enabled>
   19448:	84 c0                	test   %al,%al
   1944a:	75 4a                	jne    19496 <Init_Floppy+0xd4>
   1944c:	c7 04 24 4f 00 00 00 	movl   $0x4f,(%esp)
   19453:	e8 63 7d ff ff       	call   111bb <Set_Current_Attr>
   19458:	a1 6c 5e 02 00       	mov    0x25e6c,%eax
   1945d:	89 44 24 18          	mov    %eax,0x18(%esp)
   19461:	8b 45 04             	mov    0x4(%ebp),%eax
   19464:	89 44 24 14          	mov    %eax,0x14(%esp)
   19468:	c7 44 24 10 74 02 00 	movl   $0x274,0x10(%esp)
   1946f:	00 
   19470:	c7 44 24 0c 31 07 02 	movl   $0x20731,0xc(%esp)
   19477:	00 
   19478:	c7 44 24 08 d3 ef 01 	movl   $0x1efd3,0x8(%esp)
   1947f:	00 
   19480:	c7 44 24 04 59 0a 02 	movl   $0x20a59,0x4(%esp)
   19487:	00 
   19488:	c7 04 24 b4 ee 01 00 	movl   $0x1eeb4,(%esp)
   1948f:	e8 d2 7b ff ff       	call   11066 <Print>
   19494:	eb fe                	jmp    19494 <Init_Floppy+0xd2>
   19496:	fa                   	cli    
   19497:	c7 44 24 04 00 00 00 	movl   $0x0,0x4(%esp)
   1949e:	00 
   1949f:	c7 04 24 f2 03 00 00 	movl   $0x3f2,(%esp)
   194a6:	e8 88 74 ff ff       	call   10933 <Out_Byte>
   194ab:	c7 44 24 04 1c 00 00 	movl   $0x1c,0x4(%esp)
   194b2:	00 
   194b3:	c7 04 24 f2 03 00 00 	movl   $0x3f2,(%esp)
   194ba:	e8 74 74 ff ff       	call   10933 <Out_Byte>
   194bf:	e8 7b 6d ff ff       	call   1023f <Interrupts_Enabled>
   194c4:	bb 04 00 00 00       	mov    $0x4,%ebx
   194c9:	84 c0                	test   %al,%al
   194cb:	74 4a                	je     19517 <Init_Floppy+0x155>
   194cd:	c7 04 24 4f 00 00 00 	movl   $0x4f,(%esp)
   194d4:	e8 e2 7c ff ff       	call   111bb <Set_Current_Attr>
   194d9:	a1 6c 5e 02 00       	mov    0x25e6c,%eax
   194de:	89 44 24 18          	mov    %eax,0x18(%esp)
   194e2:	8b 45 04             	mov    0x4(%ebp),%eax
   194e5:	89 44 24 14          	mov    %eax,0x14(%esp)
   194e9:	c7 44 24 10 6e 01 00 	movl   $0x16e,0x10(%esp)
   194f0:	00 
   194f1:	c7 44 24 0c 31 07 02 	movl   $0x20731,0xc(%esp)
   194f8:	00 
   194f9:	c7 44 24 08 d2 ef 01 	movl   $0x1efd2,0x8(%esp)
   19500:	00 
   19501:	c7 44 24 04 c3 09 02 	movl   $0x209c3,0x4(%esp)
   19508:	00 
   19509:	c7 04 24 b4 ee 01 00 	movl   $0x1eeb4,(%esp)
   19510:	e8 51 7b ff ff       	call   11066 <Print>
   19515:	eb fe                	jmp    19515 <Init_Floppy+0x153>
   19517:	b8 07 00 00 00       	mov    $0x7,%eax
   1951c:	e8 07 f4 ff ff       	call   18928 <Floppy_Out>
   19521:	b8 00 00 00 00       	mov    $0x0,%eax
   19526:	e8 fd f3 ff ff       	call   18928 <Floppy_Out>
   1952b:	e8 c0 f5 ff ff       	call   18af0 <Wait_For_Interrupt>
   19530:	b8 08 00 00 00       	mov    $0x8,%eax
   19535:	e8 ee f3 ff ff       	call   18928 <Floppy_Out>
   1953a:	e8 15 f4 ff ff       	call   18954 <Floppy_In>
   1953f:	89 c6                	mov    %eax,%esi
   19541:	e8 0e f4 ff ff       	call   18954 <Floppy_In>
   19546:	f7 c6 20 00 00 00    	test   $0x20,%esi
   1954c:	75 07                	jne    19555 <Init_Floppy+0x193>
   1954e:	83 eb 01             	sub    $0x1,%ebx
   19551:	75 c4                	jne    19517 <Init_Floppy+0x155>
   19553:	eb 07                	jmp    1955c <Init_Floppy+0x19a>
   19555:	bb 01 00 00 00       	mov    $0x1,%ebx
   1955a:	eb 05                	jmp    19561 <Init_Floppy+0x19f>
   1955c:	bb 00 00 00 00       	mov    $0x0,%ebx
   19561:	e8 d9 6c ff ff       	call   1023f <Interrupts_Enabled>
   19566:	84 c0                	test   %al,%al
   19568:	74 4a                	je     195b4 <Init_Floppy+0x1f2>
   1956a:	c7 04 24 4f 00 00 00 	movl   $0x4f,(%esp)
   19571:	e8 45 7c ff ff       	call   111bb <Set_Current_Attr>
   19576:	a1 6c 5e 02 00       	mov    0x25e6c,%eax
   1957b:	89 44 24 18          	mov    %eax,0x18(%esp)
   1957f:	8b 45 04             	mov    0x4(%ebp),%eax
   19582:	89 44 24 14          	mov    %eax,0x14(%esp)
   19586:	c7 44 24 10 76 02 00 	movl   $0x276,0x10(%esp)
   1958d:	00 
   1958e:	c7 44 24 0c 31 07 02 	movl   $0x20731,0xc(%esp)
   19595:	00 
   19596:	c7 44 24 08 d2 ef 01 	movl   $0x1efd2,0x8(%esp)
   1959d:	00 
   1959e:	c7 44 24 04 59 0a 02 	movl   $0x20a59,0x4(%esp)
   195a5:	00 
   195a6:	c7 04 24 b4 ee 01 00 	movl   $0x1eeb4,(%esp)
   195ad:	e8 b4 7a ff ff       	call   11066 <Print>
   195b2:	eb fe                	jmp    195b2 <Init_Floppy+0x1f0>
   195b4:	fb                   	sti    
   195b5:	84 db                	test   %bl,%bl
   195b7:	75 0e                	jne    195c7 <Init_Floppy+0x205>
   195b9:	c7 04 24 54 09 02 00 	movl   $0x20954,(%esp)
   195c0:	e8 a1 7a ff ff       	call   11066 <Print>
   195c5:	eb 44                	jmp    1960b <Init_Floppy+0x249>
   195c7:	c7 04 24 02 00 00 00 	movl   $0x2,(%esp)
   195ce:	e8 b5 ec ff ff       	call   18288 <Reserve_DMA>
   195d3:	84 c0                	test   %al,%al
   195d5:	75 0e                	jne    195e5 <Init_Floppy+0x223>
   195d7:	c7 04 24 74 09 02 00 	movl   $0x20974,(%esp)
   195de:	e8 83 7a ff ff       	call   11066 <Print>
   195e3:	eb 26                	jmp    1960b <Init_Floppy+0x249>
   195e5:	c7 44 24 0c 01 00 00 	movl   $0x1,0xc(%esp)
   195ec:	00 
   195ed:	c7 44 24 08 05 00 00 	movl   $0x5,0x8(%esp)
   195f4:	00 
   195f5:	c7 44 24 04 00 00 00 	movl   $0x0,0x4(%esp)
   195fc:	00 
   195fd:	c7 04 24 6f 91 01 00 	movl   $0x1916f,(%esp)
   19604:	e8 e5 c1 ff ff       	call   157ee <Start_Kernel_Thread>
   19609:	eb 0c                	jmp    19617 <Init_Floppy+0x255>
   1960b:	c7 04 24 98 09 02 00 	movl   $0x20998,(%esp)
   19612:	e8 4f 7a ff ff       	call   11066 <Print>
   19617:	83 c4 20             	add    $0x20,%esp
   1961a:	5b                   	pop    %ebx
   1961b:	5e                   	pop    %esi
   1961c:	5d                   	pop    %ebp
   1961d:	c3                   	ret    

0001961e <Parse_ELF_Executable>:
   1961e:	55                   	push   %ebp
   1961f:	89 e5                	mov    %esp,%ebp
   19621:	57                   	push   %edi
   19622:	56                   	push   %esi
   19623:	53                   	push   %ebx
   19624:	8b 75 08             	mov    0x8(%ebp),%esi
   19627:	8b 7d 10             	mov    0x10(%ebp),%edi
   1962a:	89 f0                	mov    %esi,%eax
   1962c:	03 46 1c             	add    0x1c(%esi),%eax
   1962f:	0f b7 56 2c          	movzwl 0x2c(%esi),%edx
   19633:	89 57 3c             	mov    %edx,0x3c(%edi)
   19636:	8b 56 18             	mov    0x18(%esi),%edx
   19639:	89 57 40             	mov    %edx,0x40(%edi)
   1963c:	83 7f 3c 00          	cmpl   $0x0,0x3c(%edi)
   19640:	7e 35                	jle    19677 <Parse_ELF_Executable+0x59>
   19642:	89 fa                	mov    %edi,%edx
   19644:	b9 00 00 00 00       	mov    $0x0,%ecx
   19649:	8b 58 10             	mov    0x10(%eax),%ebx
   1964c:	89 5a 04             	mov    %ebx,0x4(%edx)
   1964f:	8b 58 04             	mov    0x4(%eax),%ebx
   19652:	89 1a                	mov    %ebx,(%edx)
   19654:	8b 58 18             	mov    0x18(%eax),%ebx
   19657:	89 5a 10             	mov    %ebx,0x10(%edx)
   1965a:	8b 58 14             	mov    0x14(%eax),%ebx
   1965d:	89 5a 0c             	mov    %ebx,0xc(%edx)
   19660:	8b 58 08             	mov    0x8(%eax),%ebx
   19663:	89 5a 08             	mov    %ebx,0x8(%edx)
   19666:	0f b7 5e 2a          	movzwl 0x2a(%esi),%ebx
   1966a:	01 d8                	add    %ebx,%eax
   1966c:	83 c1 01             	add    $0x1,%ecx
   1966f:	83 c2 14             	add    $0x14,%edx
   19672:	39 4f 3c             	cmp    %ecx,0x3c(%edi)
   19675:	7f d2                	jg     19649 <Parse_ELF_Executable+0x2b>
   19677:	b8 00 00 00 00       	mov    $0x0,%eax
   1967c:	5b                   	pop    %ebx
   1967d:	5e                   	pop    %esi
   1967e:	5f                   	pop    %edi
   1967f:	5d                   	pop    %ebp
   19680:	c3                   	ret    
   19681:	66 90                	xchg   %ax,%ax
   19683:	66 90                	xchg   %ax,%ax
   19685:	66 90                	xchg   %ax,%ax
   19687:	66 90                	xchg   %ax,%ax
   19689:	66 90                	xchg   %ax,%ax
   1968b:	66 90                	xchg   %ax,%ax
   1968d:	66 90                	xchg   %ax,%ax
   1968f:	90                   	nop

00019690 <Register_Block_Device>:
   19690:	55                   	push   %ebp
   19691:	89 e5                	mov    %esp,%ebp
   19693:	57                   	push   %edi
   19694:	56                   	push   %esi
   19695:	53                   	push   %ebx
   19696:	83 ec 2c             	sub    $0x2c,%esp
   19699:	8b 7d 18             	mov    0x18(%ebp),%edi
   1969c:	8b 75 1c             	mov    0x1c(%ebp),%esi
   1969f:	83 7d 0c 00          	cmpl   $0x0,0xc(%ebp)
   196a3:	75 4a                	jne    196ef <Register_Block_Device+0x5f>
   196a5:	c7 04 24 4f 00 00 00 	movl   $0x4f,(%esp)
   196ac:	e8 0a 7b ff ff       	call   111bb <Set_Current_Attr>
   196b1:	a1 6c 5e 02 00       	mov    0x25e6c,%eax
   196b6:	89 44 24 18          	mov    %eax,0x18(%esp)
   196ba:	8b 45 04             	mov    0x4(%ebp),%eax
   196bd:	89 44 24 14          	mov    %eax,0x14(%esp)
   196c1:	c7 44 24 10 51 00 00 	movl   $0x51,0x10(%esp)
   196c8:	00 
   196c9:	c7 44 24 0c 65 0a 02 	movl   $0x20a65,0xc(%esp)
   196d0:	00 
   196d1:	c7 44 24 08 7e 0a 02 	movl   $0x20a7e,0x8(%esp)
   196d8:	00 
   196d9:	c7 44 24 04 21 0c 02 	movl   $0x20c21,0x4(%esp)
   196e0:	00 
   196e1:	c7 04 24 b4 ee 01 00 	movl   $0x1eeb4,(%esp)
   196e8:	e8 79 79 ff ff       	call   11066 <Print>
   196ed:	eb fe                	jmp    196ed <Register_Block_Device+0x5d>
   196ef:	85 ff                	test   %edi,%edi
   196f1:	75 4a                	jne    1973d <Register_Block_Device+0xad>
   196f3:	c7 04 24 4f 00 00 00 	movl   $0x4f,(%esp)
   196fa:	e8 bc 7a ff ff       	call   111bb <Set_Current_Attr>
   196ff:	a1 6c 5e 02 00       	mov    0x25e6c,%eax
   19704:	89 44 24 18          	mov    %eax,0x18(%esp)
   19708:	8b 45 04             	mov    0x4(%ebp),%eax
   1970b:	89 44 24 14          	mov    %eax,0x14(%esp)
   1970f:	c7 44 24 10 52 00 00 	movl   $0x52,0x10(%esp)
   19716:	00 
   19717:	c7 44 24 0c 65 0a 02 	movl   $0x20a65,0xc(%esp)
   1971e:	00 
   1971f:	c7 44 24 08 87 0a 02 	movl   $0x20a87,0x8(%esp)
   19726:	00 
   19727:	c7 44 24 04 21 0c 02 	movl   $0x20c21,0x4(%esp)
   1972e:	00 
   1972f:	c7 04 24 b4 ee 01 00 	movl   $0x1eeb4,(%esp)
   19736:	e8 2b 79 ff ff       	call   11066 <Print>
   1973b:	eb fe                	jmp    1973b <Register_Block_Device+0xab>
   1973d:	85 f6                	test   %esi,%esi
   1973f:	75 4a                	jne    1978b <Register_Block_Device+0xfb>
   19741:	c7 04 24 4f 00 00 00 	movl   $0x4f,(%esp)
   19748:	e8 6e 7a ff ff       	call   111bb <Set_Current_Attr>
   1974d:	a1 6c 5e 02 00       	mov    0x25e6c,%eax
   19752:	89 44 24 18          	mov    %eax,0x18(%esp)
   19756:	8b 45 04             	mov    0x4(%ebp),%eax
   19759:	89 44 24 14          	mov    %eax,0x14(%esp)
   1975d:	c7 44 24 10 53 00 00 	movl   $0x53,0x10(%esp)
   19764:	00 
   19765:	c7 44 24 0c 65 0a 02 	movl   $0x20a65,0xc(%esp)
   1976c:	00 
   1976d:	c7 44 24 08 96 0a 02 	movl   $0x20a96,0x8(%esp)
   19774:	00 
   19775:	c7 44 24 04 21 0c 02 	movl   $0x20c21,0x4(%esp)
   1977c:	00 
   1977d:	c7 04 24 b4 ee 01 00 	movl   $0x1eeb4,(%esp)
   19784:	e8 dd 78 ff ff       	call   11066 <Print>
   19789:	eb fe                	jmp    19789 <Register_Block_Device+0xf9>
   1978b:	c7 04 24 30 00 00 00 	movl   $0x30,(%esp)
   19792:	e8 a3 ac ff ff       	call   1443a <Malloc>
   19797:	89 c3                	mov    %eax,%ebx
   19799:	85 c0                	test   %eax,%eax
   1979b:	0f 84 95 00 00 00    	je     19836 <Register_Block_Device+0x1a6>
   197a1:	8b 45 08             	mov    0x8(%ebp),%eax
   197a4:	89 44 24 04          	mov    %eax,0x4(%esp)
   197a8:	89 1c 24             	mov    %ebx,(%esp)
   197ab:	e8 27 54 00 00       	call   1ebd7 <strcpy>
   197b0:	8b 45 0c             	mov    0xc(%ebp),%eax
   197b3:	89 43 10             	mov    %eax,0x10(%ebx)
   197b6:	8b 45 10             	mov    0x10(%ebp),%eax
   197b9:	89 43 14             	mov    %eax,0x14(%ebx)
   197bc:	c6 43 18 00          	movb   $0x0,0x18(%ebx)
   197c0:	8b 45 14             	mov    0x14(%ebp),%eax
   197c3:	89 43 1c             	mov    %eax,0x1c(%ebx)
   197c6:	89 7b 20             	mov    %edi,0x20(%ebx)
   197c9:	89 73 24             	mov    %esi,0x24(%ebx)
   197cc:	c7 04 24 90 53 02 00 	movl   $0x25390,(%esp)
   197d3:	e8 d3 b0 ff ff       	call   148ab <Mutex_Lock>
   197d8:	a1 88 53 02 00       	mov    0x25388,%eax
   197dd:	85 c0                	test   %eax,%eax
   197df:	0f 84 a5 00 00 00    	je     1988a <Register_Block_Device+0x1fa>
   197e5:	39 c3                	cmp    %eax,%ebx
   197e7:	75 09                	jne    197f2 <Register_Block_Device+0x162>
   197e9:	eb 52                	jmp    1983d <Register_Block_Device+0x1ad>
   197eb:	39 c3                	cmp    %eax,%ebx
   197ed:	8d 76 00             	lea    0x0(%esi),%esi
   197f0:	74 4b                	je     1983d <Register_Block_Device+0x1ad>
   197f2:	8b 40 2c             	mov    0x2c(%eax),%eax
   197f5:	85 c0                	test   %eax,%eax
   197f7:	75 f2                	jne    197eb <Register_Block_Device+0x15b>
   197f9:	e9 8c 00 00 00       	jmp    1988a <Register_Block_Device+0x1fa>
   197fe:	66 90                	xchg   %ax,%ax
   19800:	eb fc                	jmp    197fe <Register_Block_Device+0x16e>
   19802:	89 1d 8c 53 02 00    	mov    %ebx,0x2538c
   19808:	89 1d 88 53 02 00    	mov    %ebx,0x25388
   1980e:	c7 43 28 00 00 00 00 	movl   $0x0,0x28(%ebx)
   19815:	eb 0c                	jmp    19823 <Register_Block_Device+0x193>
   19817:	89 58 2c             	mov    %ebx,0x2c(%eax)
   1981a:	89 43 28             	mov    %eax,0x28(%ebx)
   1981d:	89 1d 8c 53 02 00    	mov    %ebx,0x2538c
   19823:	c7 04 24 90 53 02 00 	movl   $0x25390,(%esp)
   1982a:	e8 b9 b1 ff ff       	call   149e8 <Mutex_Unlock>
   1982f:	b8 00 00 00 00       	mov    $0x0,%eax
   19834:	eb 6d                	jmp    198a3 <Register_Block_Device+0x213>
   19836:	b8 f9 ff ff ff       	mov    $0xfffffff9,%eax
   1983b:	eb 66                	jmp    198a3 <Register_Block_Device+0x213>
   1983d:	c7 04 24 4f 00 00 00 	movl   $0x4f,(%esp)
   19844:	e8 72 79 ff ff       	call   111bb <Set_Current_Attr>
   19849:	a1 6c 5e 02 00       	mov    0x25e6c,%eax
   1984e:	89 44 24 18          	mov    %eax,0x18(%esp)
   19852:	8b 45 04             	mov    0x4(%ebp),%eax
   19855:	89 44 24 14          	mov    %eax,0x14(%esp)
   19859:	c7 44 24 10 27 00 00 	movl   $0x27,0x10(%esp)
   19860:	00 
   19861:	c7 44 24 0c 65 0a 02 	movl   $0x20a65,0xc(%esp)
   19868:	00 
   19869:	c7 44 24 08 dc 0a 02 	movl   $0x20adc,0x8(%esp)
   19870:	00 
   19871:	c7 44 24 04 00 0c 02 	movl   $0x20c00,0x4(%esp)
   19878:	00 
   19879:	c7 04 24 b4 ee 01 00 	movl   $0x1eeb4,(%esp)
   19880:	e8 e1 77 ff ff       	call   11066 <Print>
   19885:	e9 74 ff ff ff       	jmp    197fe <Register_Block_Device+0x16e>
   1988a:	c7 43 2c 00 00 00 00 	movl   $0x0,0x2c(%ebx)
   19891:	a1 8c 53 02 00       	mov    0x2538c,%eax
   19896:	85 c0                	test   %eax,%eax
   19898:	0f 85 79 ff ff ff    	jne    19817 <Register_Block_Device+0x187>
   1989e:	e9 5f ff ff ff       	jmp    19802 <Register_Block_Device+0x172>
   198a3:	83 c4 2c             	add    $0x2c,%esp
   198a6:	5b                   	pop    %ebx
   198a7:	5e                   	pop    %esi
   198a8:	5f                   	pop    %edi
   198a9:	5d                   	pop    %ebp
   198aa:	c3                   	ret    

000198ab <Open_Block_Device>:
   198ab:	55                   	push   %ebp
   198ac:	89 e5                	mov    %esp,%ebp
   198ae:	56                   	push   %esi
   198af:	53                   	push   %ebx
   198b0:	83 ec 10             	sub    $0x10,%esp
   198b3:	8b 75 08             	mov    0x8(%ebp),%esi
   198b6:	c7 04 24 90 53 02 00 	movl   $0x25390,(%esp)
   198bd:	e8 e9 af ff ff       	call   148ab <Mutex_Lock>
   198c2:	8b 1d 88 53 02 00    	mov    0x25388,%ebx
   198c8:	85 db                	test   %ebx,%ebx
   198ca:	74 3f                	je     1990b <Open_Block_Device+0x60>
   198cc:	89 74 24 04          	mov    %esi,0x4(%esp)
   198d0:	89 1c 24             	mov    %ebx,(%esp)
   198d3:	e8 e1 51 00 00       	call   1eab9 <strcmp>
   198d8:	85 c0                	test   %eax,%eax
   198da:	74 09                	je     198e5 <Open_Block_Device+0x3a>
   198dc:	8b 5b 2c             	mov    0x2c(%ebx),%ebx
   198df:	85 db                	test   %ebx,%ebx
   198e1:	75 e9                	jne    198cc <Open_Block_Device+0x21>
   198e3:	eb 2d                	jmp    19912 <Open_Block_Device+0x67>
   198e5:	85 db                	test   %ebx,%ebx
   198e7:	74 30                	je     19919 <Open_Block_Device+0x6e>
   198e9:	80 7b 18 00          	cmpb   $0x0,0x18(%ebx)
   198ed:	8d 76 00             	lea    0x0(%esi),%esi
   198f0:	75 2e                	jne    19920 <Open_Block_Device+0x75>
   198f2:	8b 43 10             	mov    0x10(%ebx),%eax
   198f5:	89 1c 24             	mov    %ebx,(%esp)
   198f8:	ff 10                	call   *(%eax)
   198fa:	89 c6                	mov    %eax,%esi
   198fc:	85 c0                	test   %eax,%eax
   198fe:	75 25                	jne    19925 <Open_Block_Device+0x7a>
   19900:	8b 45 0c             	mov    0xc(%ebp),%eax
   19903:	89 18                	mov    %ebx,(%eax)
   19905:	c6 43 18 01          	movb   $0x1,0x18(%ebx)
   19909:	eb 1a                	jmp    19925 <Open_Block_Device+0x7a>
   1990b:	be fc ff ff ff       	mov    $0xfffffffc,%esi
   19910:	eb 13                	jmp    19925 <Open_Block_Device+0x7a>
   19912:	be fc ff ff ff       	mov    $0xfffffffc,%esi
   19917:	eb 0c                	jmp    19925 <Open_Block_Device+0x7a>
   19919:	be fc ff ff ff       	mov    $0xfffffffc,%esi
   1991e:	eb 05                	jmp    19925 <Open_Block_Device+0x7a>
   19920:	be fa ff ff ff       	mov    $0xfffffffa,%esi
   19925:	c7 04 24 90 53 02 00 	movl   $0x25390,(%esp)
   1992c:	e8 b7 b0 ff ff       	call   149e8 <Mutex_Unlock>
   19931:	89 f0                	mov    %esi,%eax
   19933:	83 c4 10             	add    $0x10,%esp
   19936:	5b                   	pop    %ebx
   19937:	5e                   	pop    %esi
   19938:	5d                   	pop    %ebp
   19939:	c3                   	ret    

0001993a <Close_Block_Device>:
   1993a:	55                   	push   %ebp
   1993b:	89 e5                	mov    %esp,%ebp
   1993d:	56                   	push   %esi
   1993e:	53                   	push   %ebx
   1993f:	83 ec 20             	sub    $0x20,%esp
   19942:	8b 5d 08             	mov    0x8(%ebp),%ebx
   19945:	c7 04 24 90 53 02 00 	movl   $0x25390,(%esp)
   1994c:	e8 5a af ff ff       	call   148ab <Mutex_Lock>
   19951:	80 7b 18 00          	cmpb   $0x0,0x18(%ebx)
   19955:	75 4a                	jne    199a1 <Close_Block_Device+0x67>
   19957:	c7 04 24 4f 00 00 00 	movl   $0x4f,(%esp)
   1995e:	e8 58 78 ff ff       	call   111bb <Set_Current_Attr>
   19963:	a1 6c 5e 02 00       	mov    0x25e6c,%eax
   19968:	89 44 24 18          	mov    %eax,0x18(%esp)
   1996c:	8b 45 04             	mov    0x4(%ebp),%eax
   1996f:	89 44 24 14          	mov    %eax,0x14(%esp)
   19973:	c7 44 24 10 97 00 00 	movl   $0x97,0x10(%esp)
   1997a:	00 
   1997b:	c7 44 24 0c 65 0a 02 	movl   $0x20a65,0xc(%esp)
   19982:	00 
   19983:	c7 44 24 08 55 07 02 	movl   $0x20755,0x8(%esp)
   1998a:	00 
   1998b:	c7 44 24 04 d8 0b 02 	movl   $0x20bd8,0x4(%esp)
   19992:	00 
   19993:	c7 04 24 b4 ee 01 00 	movl   $0x1eeb4,(%esp)
   1999a:	e8 c7 76 ff ff       	call   11066 <Print>
   1999f:	eb fe                	jmp    1999f <Close_Block_Device+0x65>
   199a1:	8b 43 10             	mov    0x10(%ebx),%eax
   199a4:	89 1c 24             	mov    %ebx,(%esp)
   199a7:	ff 50 04             	call   *0x4(%eax)
   199aa:	89 c6                	mov    %eax,%esi
   199ac:	85 c0                	test   %eax,%eax
   199ae:	75 04                	jne    199b4 <Close_Block_Device+0x7a>
   199b0:	c6 43 18 00          	movb   $0x0,0x18(%ebx)
   199b4:	c7 04 24 90 53 02 00 	movl   $0x25390,(%esp)
   199bb:	e8 28 b0 ff ff       	call   149e8 <Mutex_Unlock>
   199c0:	89 f0                	mov    %esi,%eax
   199c2:	83 c4 20             	add    $0x20,%esp
   199c5:	5b                   	pop    %ebx
   199c6:	5e                   	pop    %esi
   199c7:	5d                   	pop    %ebp
   199c8:	c3                   	ret    

000199c9 <Create_Request>:
   199c9:	55                   	push   %ebp
   199ca:	89 e5                	mov    %esp,%ebp
   199cc:	83 ec 18             	sub    $0x18,%esp
   199cf:	c7 04 24 28 00 00 00 	movl   $0x28,(%esp)
   199d6:	e8 5f aa ff ff       	call   1443a <Malloc>
   199db:	85 c0                	test   %eax,%eax
   199dd:	74 2c                	je     19a0b <Create_Request+0x42>
   199df:	8b 55 08             	mov    0x8(%ebp),%edx
   199e2:	89 10                	mov    %edx,(%eax)
   199e4:	8b 55 0c             	mov    0xc(%ebp),%edx
   199e7:	89 50 04             	mov    %edx,0x4(%eax)
   199ea:	8b 55 10             	mov    0x10(%ebp),%edx
   199ed:	89 50 08             	mov    %edx,0x8(%eax)
   199f0:	8b 55 14             	mov    0x14(%ebp),%edx
   199f3:	89 50 0c             	mov    %edx,0xc(%eax)
   199f6:	c7 40 10 00 00 00 00 	movl   $0x0,0x10(%eax)
   199fd:	c7 40 1c 00 00 00 00 	movl   $0x0,0x1c(%eax)
   19a04:	c7 40 18 00 00 00 00 	movl   $0x0,0x18(%eax)
   19a0b:	c9                   	leave  
   19a0c:	c3                   	ret    

00019a0d <Post_Request_And_Wait>:
   19a0d:	55                   	push   %ebp
   19a0e:	89 e5                	mov    %esp,%ebp
   19a10:	56                   	push   %esi
   19a11:	53                   	push   %ebx
   19a12:	83 ec 20             	sub    $0x20,%esp
   19a15:	8b 5d 08             	mov    0x8(%ebp),%ebx
   19a18:	85 db                	test   %ebx,%ebx
   19a1a:	75 4a                	jne    19a66 <Post_Request_And_Wait+0x59>
   19a1c:	c7 04 24 4f 00 00 00 	movl   $0x4f,(%esp)
   19a23:	e8 93 77 ff ff       	call   111bb <Set_Current_Attr>
   19a28:	a1 6c 5e 02 00       	mov    0x25e6c,%eax
   19a2d:	89 44 24 18          	mov    %eax,0x18(%esp)
   19a31:	8b 45 04             	mov    0x4(%ebp),%eax
   19a34:	89 44 24 14          	mov    %eax,0x14(%esp)
   19a38:	c7 44 24 10 bc 00 00 	movl   $0xbc,0x10(%esp)
   19a3f:	00 
   19a40:	c7 44 24 0c 65 0a 02 	movl   $0x20a65,0xc(%esp)
   19a47:	00 
   19a48:	c7 44 24 08 a8 0a 02 	movl   $0x20aa8,0x8(%esp)
   19a4f:	00 
   19a50:	c7 44 24 04 c2 0b 02 	movl   $0x20bc2,0x4(%esp)
   19a57:	00 
   19a58:	c7 04 24 b4 ee 01 00 	movl   $0x1eeb4,(%esp)
   19a5f:	e8 02 76 ff ff       	call   11066 <Print>
   19a64:	eb fe                	jmp    19a64 <Post_Request_And_Wait+0x57>
   19a66:	8b 33                	mov    (%ebx),%esi
   19a68:	85 f6                	test   %esi,%esi
   19a6a:	75 4a                	jne    19ab6 <Post_Request_And_Wait+0xa9>
   19a6c:	c7 04 24 4f 00 00 00 	movl   $0x4f,(%esp)
   19a73:	e8 43 77 ff ff       	call   111bb <Set_Current_Attr>
   19a78:	a1 6c 5e 02 00       	mov    0x25e6c,%eax
   19a7d:	89 44 24 18          	mov    %eax,0x18(%esp)
   19a81:	8b 45 04             	mov    0x4(%ebp),%eax
   19a84:	89 44 24 14          	mov    %eax,0x14(%esp)
   19a88:	c7 44 24 10 bf 00 00 	movl   $0xbf,0x10(%esp)
   19a8f:	00 
   19a90:	c7 44 24 0c 65 0a 02 	movl   $0x20a65,0xc(%esp)
   19a97:	00 
   19a98:	c7 44 24 08 b5 0a 02 	movl   $0x20ab5,0x8(%esp)
   19a9f:	00 
   19aa0:	c7 44 24 04 c2 0b 02 	movl   $0x20bc2,0x4(%esp)
   19aa7:	00 
   19aa8:	c7 04 24 b4 ee 01 00 	movl   $0x1eeb4,(%esp)
   19aaf:	e8 b2 75 ff ff       	call   11066 <Print>
   19ab4:	eb fe                	jmp    19ab4 <Post_Request_And_Wait+0xa7>
   19ab6:	e8 84 67 ff ff       	call   1023f <Interrupts_Enabled>
   19abb:	84 c0                	test   %al,%al
   19abd:	8d 76 00             	lea    0x0(%esi),%esi
   19ac0:	75 4a                	jne    19b0c <Post_Request_And_Wait+0xff>
   19ac2:	c7 04 24 4f 00 00 00 	movl   $0x4f,(%esp)
   19ac9:	e8 ed 76 ff ff       	call   111bb <Set_Current_Attr>
   19ace:	a1 6c 5e 02 00       	mov    0x25e6c,%eax
   19ad3:	89 44 24 18          	mov    %eax,0x18(%esp)
   19ad7:	8b 45 04             	mov    0x4(%ebp),%eax
   19ada:	89 44 24 14          	mov    %eax,0x14(%esp)
   19ade:	c7 44 24 10 c3 00 00 	movl   $0xc3,0x10(%esp)
   19ae5:	00 
   19ae6:	c7 44 24 0c 65 0a 02 	movl   $0x20a65,0xc(%esp)
   19aed:	00 
   19aee:	c7 44 24 08 d3 ef 01 	movl   $0x1efd3,0x8(%esp)
   19af5:	00 
   19af6:	c7 44 24 04 c2 0b 02 	movl   $0x20bc2,0x4(%esp)
   19afd:	00 
   19afe:	c7 04 24 b4 ee 01 00 	movl   $0x1eeb4,(%esp)
   19b05:	e8 5c 75 ff ff       	call   11066 <Print>
   19b0a:	eb fe                	jmp    19b0a <Post_Request_And_Wait+0xfd>
   19b0c:	fa                   	cli    
   19b0d:	8b 46 24             	mov    0x24(%esi),%eax
   19b10:	8b 10                	mov    (%eax),%edx
   19b12:	85 d2                	test   %edx,%edx
   19b14:	0f 84 af 01 00 00    	je     19cc9 <Post_Request_And_Wait+0x2bc>
   19b1a:	39 d3                	cmp    %edx,%ebx
   19b1c:	75 0f                	jne    19b2d <Post_Request_And_Wait+0x120>
   19b1e:	66 90                	xchg   %ax,%ax
   19b20:	e9 57 01 00 00       	jmp    19c7c <Post_Request_And_Wait+0x26f>
   19b25:	39 d3                	cmp    %edx,%ebx
   19b27:	0f 84 4f 01 00 00    	je     19c7c <Post_Request_And_Wait+0x26f>
   19b2d:	8b 52 24             	mov    0x24(%edx),%edx
   19b30:	85 d2                	test   %edx,%edx
   19b32:	75 f1                	jne    19b25 <Post_Request_And_Wait+0x118>
   19b34:	e9 90 01 00 00       	jmp    19cc9 <Post_Request_And_Wait+0x2bc>
   19b39:	eb fe                	jmp    19b39 <Post_Request_And_Wait+0x12c>
   19b3b:	89 58 04             	mov    %ebx,0x4(%eax)
   19b3e:	89 18                	mov    %ebx,(%eax)
   19b40:	c7 43 20 00 00 00 00 	movl   $0x0,0x20(%ebx)
   19b47:	eb 0c                	jmp    19b55 <Post_Request_And_Wait+0x148>
   19b49:	89 5a 24             	mov    %ebx,0x24(%edx)
   19b4c:	8b 50 04             	mov    0x4(%eax),%edx
   19b4f:	89 53 20             	mov    %edx,0x20(%ebx)
   19b52:	89 58 04             	mov    %ebx,0x4(%eax)
   19b55:	8b 46 20             	mov    0x20(%esi),%eax
   19b58:	89 04 24             	mov    %eax,(%esp)
   19b5b:	e8 05 c8 ff ff       	call   16365 <Wake_Up>
   19b60:	e8 da 66 ff ff       	call   1023f <Interrupts_Enabled>
   19b65:	84 c0                	test   %al,%al
   19b67:	74 4a                	je     19bb3 <Post_Request_And_Wait+0x1a6>
   19b69:	c7 04 24 4f 00 00 00 	movl   $0x4f,(%esp)
   19b70:	e8 46 76 ff ff       	call   111bb <Set_Current_Attr>
   19b75:	a1 6c 5e 02 00       	mov    0x25e6c,%eax
   19b7a:	89 44 24 18          	mov    %eax,0x18(%esp)
   19b7e:	8b 45 04             	mov    0x4(%ebp),%eax
   19b81:	89 44 24 14          	mov    %eax,0x14(%esp)
   19b85:	c7 44 24 10 c6 00 00 	movl   $0xc6,0x10(%esp)
   19b8c:	00 
   19b8d:	c7 44 24 0c 65 0a 02 	movl   $0x20a65,0xc(%esp)
   19b94:	00 
   19b95:	c7 44 24 08 d2 ef 01 	movl   $0x1efd2,0x8(%esp)
   19b9c:	00 
   19b9d:	c7 44 24 04 c2 0b 02 	movl   $0x20bc2,0x4(%esp)
   19ba4:	00 
   19ba5:	c7 04 24 b4 ee 01 00 	movl   $0x1eeb4,(%esp)
   19bac:	e8 b5 74 ff ff       	call   11066 <Print>
   19bb1:	eb fe                	jmp    19bb1 <Post_Request_And_Wait+0x1a4>
   19bb3:	fb                   	sti    
   19bb4:	e8 86 66 ff ff       	call   1023f <Interrupts_Enabled>
   19bb9:	84 c0                	test   %al,%al
   19bbb:	90                   	nop
   19bbc:	8d 74 26 00          	lea    0x0(%esi,%eiz,1),%esi
   19bc0:	75 4a                	jne    19c0c <Post_Request_And_Wait+0x1ff>
   19bc2:	c7 04 24 4f 00 00 00 	movl   $0x4f,(%esp)
   19bc9:	e8 ed 75 ff ff       	call   111bb <Set_Current_Attr>
   19bce:	a1 6c 5e 02 00       	mov    0x25e6c,%eax
   19bd3:	89 44 24 18          	mov    %eax,0x18(%esp)
   19bd7:	8b 45 04             	mov    0x4(%ebp),%eax
   19bda:	89 44 24 14          	mov    %eax,0x14(%esp)
   19bde:	c7 44 24 10 c9 00 00 	movl   $0xc9,0x10(%esp)
   19be5:	00 
   19be6:	c7 44 24 0c 65 0a 02 	movl   $0x20a65,0xc(%esp)
   19bed:	00 
   19bee:	c7 44 24 08 d3 ef 01 	movl   $0x1efd3,0x8(%esp)
   19bf5:	00 
   19bf6:	c7 44 24 04 c2 0b 02 	movl   $0x20bc2,0x4(%esp)
   19bfd:	00 
   19bfe:	c7 04 24 b4 ee 01 00 	movl   $0x1eeb4,(%esp)
   19c05:	e8 5c 74 ff ff       	call   11066 <Print>
   19c0a:	eb fe                	jmp    19c0a <Post_Request_And_Wait+0x1fd>
   19c0c:	fa                   	cli    
   19c0d:	8b 43 10             	mov    0x10(%ebx),%eax
   19c10:	85 c0                	test   %eax,%eax
   19c12:	75 12                	jne    19c26 <Post_Request_And_Wait+0x219>
   19c14:	8d 73 18             	lea    0x18(%ebx),%esi
   19c17:	89 34 24             	mov    %esi,(%esp)
   19c1a:	e8 65 c3 ff ff       	call   15f84 <Wait>
   19c1f:	8b 43 10             	mov    0x10(%ebx),%eax
   19c22:	85 c0                	test   %eax,%eax
   19c24:	74 f1                	je     19c17 <Post_Request_And_Wait+0x20a>
   19c26:	e8 14 66 ff ff       	call   1023f <Interrupts_Enabled>
   19c2b:	84 c0                	test   %al,%al
   19c2d:	74 4a                	je     19c79 <Post_Request_And_Wait+0x26c>
   19c2f:	c7 04 24 4f 00 00 00 	movl   $0x4f,(%esp)
   19c36:	e8 80 75 ff ff       	call   111bb <Set_Current_Attr>
   19c3b:	a1 6c 5e 02 00       	mov    0x25e6c,%eax
   19c40:	89 44 24 18          	mov    %eax,0x18(%esp)
   19c44:	8b 45 04             	mov    0x4(%ebp),%eax
   19c47:	89 44 24 14          	mov    %eax,0x14(%esp)
   19c4b:	c7 44 24 10 cf 00 00 	movl   $0xcf,0x10(%esp)
   19c52:	00 
   19c53:	c7 44 24 0c 65 0a 02 	movl   $0x20a65,0xc(%esp)
   19c5a:	00 
   19c5b:	c7 44 24 08 d2 ef 01 	movl   $0x1efd2,0x8(%esp)
   19c62:	00 
   19c63:	c7 44 24 04 c2 0b 02 	movl   $0x20bc2,0x4(%esp)
   19c6a:	00 
   19c6b:	c7 04 24 b4 ee 01 00 	movl   $0x1eeb4,(%esp)
   19c72:	e8 ef 73 ff ff       	call   11066 <Print>
   19c77:	eb fe                	jmp    19c77 <Post_Request_And_Wait+0x26a>
   19c79:	fb                   	sti    
   19c7a:	eb 64                	jmp    19ce0 <Post_Request_And_Wait+0x2d3>
   19c7c:	c7 04 24 4f 00 00 00 	movl   $0x4f,(%esp)
   19c83:	e8 33 75 ff ff       	call   111bb <Set_Current_Attr>
   19c88:	a1 6c 5e 02 00       	mov    0x25e6c,%eax
   19c8d:	89 44 24 18          	mov    %eax,0x18(%esp)
   19c91:	8b 45 04             	mov    0x4(%ebp),%eax
   19c94:	89 44 24 14          	mov    %eax,0x14(%esp)
   19c98:	c7 44 24 10 39 00 00 	movl   $0x39,0x10(%esp)
   19c9f:	00 
   19ca0:	c7 44 24 0c be 0a 02 	movl   $0x20abe,0xc(%esp)
   19ca7:	00 
   19ca8:	c7 44 24 08 10 0b 02 	movl   $0x20b10,0x8(%esp)
   19caf:	00 
   19cb0:	c7 44 24 04 a0 0b 02 	movl   $0x20ba0,0x4(%esp)
   19cb7:	00 
   19cb8:	c7 04 24 b4 ee 01 00 	movl   $0x1eeb4,(%esp)
   19cbf:	e8 a2 73 ff ff       	call   11066 <Print>
   19cc4:	e9 70 fe ff ff       	jmp    19b39 <Post_Request_And_Wait+0x12c>
   19cc9:	c7 43 24 00 00 00 00 	movl   $0x0,0x24(%ebx)
   19cd0:	8b 50 04             	mov    0x4(%eax),%edx
   19cd3:	85 d2                	test   %edx,%edx
   19cd5:	0f 85 6e fe ff ff    	jne    19b49 <Post_Request_And_Wait+0x13c>
   19cdb:	e9 5b fe ff ff       	jmp    19b3b <Post_Request_And_Wait+0x12e>
   19ce0:	83 c4 20             	add    $0x20,%esp
   19ce3:	5b                   	pop    %ebx
   19ce4:	5e                   	pop    %esi
   19ce5:	5d                   	pop    %ebp
   19ce6:	c3                   	ret    

00019ce7 <Dequeue_Request>:
   19ce7:	55                   	push   %ebp
   19ce8:	89 e5                	mov    %esp,%ebp
   19cea:	57                   	push   %edi
   19ceb:	56                   	push   %esi
   19cec:	53                   	push   %ebx
   19ced:	83 ec 2c             	sub    $0x2c,%esp
   19cf0:	8b 75 08             	mov    0x8(%ebp),%esi
   19cf3:	8b 7d 0c             	mov    0xc(%ebp),%edi
   19cf6:	e8 44 65 ff ff       	call   1023f <Interrupts_Enabled>
   19cfb:	84 c0                	test   %al,%al
   19cfd:	75 4a                	jne    19d49 <Dequeue_Request+0x62>
   19cff:	c7 04 24 4f 00 00 00 	movl   $0x4f,(%esp)
   19d06:	e8 b0 74 ff ff       	call   111bb <Set_Current_Attr>
   19d0b:	a1 6c 5e 02 00       	mov    0x25e6c,%eax
   19d10:	89 44 24 18          	mov    %eax,0x18(%esp)
   19d14:	8b 45 04             	mov    0x4(%ebp),%eax
   19d17:	89 44 24 14          	mov    %eax,0x14(%esp)
   19d1b:	c7 44 24 10 da 00 00 	movl   $0xda,0x10(%esp)
   19d22:	00 
   19d23:	c7 44 24 0c 65 0a 02 	movl   $0x20a65,0xc(%esp)
   19d2a:	00 
   19d2b:	c7 44 24 08 d3 ef 01 	movl   $0x1efd3,0x8(%esp)
   19d32:	00 
   19d33:	c7 44 24 04 7a 0b 02 	movl   $0x20b7a,0x4(%esp)
   19d3a:	00 
   19d3b:	c7 04 24 b4 ee 01 00 	movl   $0x1eeb4,(%esp)
   19d42:	e8 1f 73 ff ff       	call   11066 <Print>
   19d47:	eb fe                	jmp    19d47 <Dequeue_Request+0x60>
   19d49:	fa                   	cli    
   19d4a:	8b 1e                	mov    (%esi),%ebx
   19d4c:	85 db                	test   %ebx,%ebx
   19d4e:	75 73                	jne    19dc3 <Dequeue_Request+0xdc>
   19d50:	89 3c 24             	mov    %edi,(%esp)
   19d53:	e8 2c c2 ff ff       	call   15f84 <Wait>
   19d58:	8b 1e                	mov    (%esi),%ebx
   19d5a:	85 db                	test   %ebx,%ebx
   19d5c:	74 f2                	je     19d50 <Dequeue_Request+0x69>
   19d5e:	eb 63                	jmp    19dc3 <Dequeue_Request+0xdc>
   19d60:	c7 46 04 00 00 00 00 	movl   $0x0,0x4(%esi)
   19d67:	eb 07                	jmp    19d70 <Dequeue_Request+0x89>
   19d69:	c7 40 20 00 00 00 00 	movl   $0x0,0x20(%eax)
   19d70:	e8 ca 64 ff ff       	call   1023f <Interrupts_Enabled>
   19d75:	84 c0                	test   %al,%al
   19d77:	74 59                	je     19dd2 <Dequeue_Request+0xeb>
   19d79:	c7 04 24 4f 00 00 00 	movl   $0x4f,(%esp)
   19d80:	e8 36 74 ff ff       	call   111bb <Set_Current_Attr>
   19d85:	a1 6c 5e 02 00       	mov    0x25e6c,%eax
   19d8a:	89 44 24 18          	mov    %eax,0x18(%esp)
   19d8e:	8b 45 04             	mov    0x4(%ebp),%eax
   19d91:	89 44 24 14          	mov    %eax,0x14(%esp)
   19d95:	c7 44 24 10 df 00 00 	movl   $0xdf,0x10(%esp)
   19d9c:	00 
   19d9d:	c7 44 24 0c 65 0a 02 	movl   $0x20a65,0xc(%esp)
   19da4:	00 
   19da5:	c7 44 24 08 d2 ef 01 	movl   $0x1efd2,0x8(%esp)
   19dac:	00 
   19dad:	c7 44 24 04 7a 0b 02 	movl   $0x20b7a,0x4(%esp)
   19db4:	00 
   19db5:	c7 04 24 b4 ee 01 00 	movl   $0x1eeb4,(%esp)
   19dbc:	e8 a5 72 ff ff       	call   11066 <Print>
   19dc1:	eb fe                	jmp    19dc1 <Dequeue_Request+0xda>
   19dc3:	8b 43 24             	mov    0x24(%ebx),%eax
   19dc6:	89 06                	mov    %eax,(%esi)
   19dc8:	85 c0                	test   %eax,%eax
   19dca:	75 9d                	jne    19d69 <Dequeue_Request+0x82>
   19dcc:	8d 74 26 00          	lea    0x0(%esi,%eiz,1),%esi
   19dd0:	eb 8e                	jmp    19d60 <Dequeue_Request+0x79>
   19dd2:	fb                   	sti    
   19dd3:	89 d8                	mov    %ebx,%eax
   19dd5:	83 c4 2c             	add    $0x2c,%esp
   19dd8:	5b                   	pop    %ebx
   19dd9:	5e                   	pop    %esi
   19dda:	5f                   	pop    %edi
   19ddb:	5d                   	pop    %ebp
   19ddc:	c3                   	ret    

00019ddd <Notify_Request_Completion>:
   19ddd:	55                   	push   %ebp
   19dde:	89 e5                	mov    %esp,%ebp
   19de0:	53                   	push   %ebx
   19de1:	83 ec 24             	sub    $0x24,%esp
   19de4:	8b 5d 08             	mov    0x8(%ebp),%ebx
   19de7:	e8 53 64 ff ff       	call   1023f <Interrupts_Enabled>
   19dec:	84 c0                	test   %al,%al
   19dee:	75 4a                	jne    19e3a <Notify_Request_Completion+0x5d>
   19df0:	c7 04 24 4f 00 00 00 	movl   $0x4f,(%esp)
   19df7:	e8 bf 73 ff ff       	call   111bb <Set_Current_Attr>
   19dfc:	a1 6c 5e 02 00       	mov    0x25e6c,%eax
   19e01:	89 44 24 18          	mov    %eax,0x18(%esp)
   19e05:	8b 45 04             	mov    0x4(%ebp),%eax
   19e08:	89 44 24 14          	mov    %eax,0x14(%esp)
   19e0c:	c7 44 24 10 e9 00 00 	movl   $0xe9,0x10(%esp)
   19e13:	00 
   19e14:	c7 44 24 0c 65 0a 02 	movl   $0x20a65,0xc(%esp)
   19e1b:	00 
   19e1c:	c7 44 24 08 d3 ef 01 	movl   $0x1efd3,0x8(%esp)
   19e23:	00 
   19e24:	c7 44 24 04 60 0b 02 	movl   $0x20b60,0x4(%esp)
   19e2b:	00 
   19e2c:	c7 04 24 b4 ee 01 00 	movl   $0x1eeb4,(%esp)
   19e33:	e8 2e 72 ff ff       	call   11066 <Print>
   19e38:	eb fe                	jmp    19e38 <Notify_Request_Completion+0x5b>
   19e3a:	fa                   	cli    
   19e3b:	8b 45 0c             	mov    0xc(%ebp),%eax
   19e3e:	89 43 10             	mov    %eax,0x10(%ebx)
   19e41:	8b 45 10             	mov    0x10(%ebp),%eax
   19e44:	89 43 14             	mov    %eax,0x14(%ebx)
   19e47:	83 c3 18             	add    $0x18,%ebx
   19e4a:	89 1c 24             	mov    %ebx,(%esp)
   19e4d:	e8 13 c5 ff ff       	call   16365 <Wake_Up>
   19e52:	e8 e8 63 ff ff       	call   1023f <Interrupts_Enabled>
   19e57:	84 c0                	test   %al,%al
   19e59:	74 4a                	je     19ea5 <Notify_Request_Completion+0xc8>
   19e5b:	c7 04 24 4f 00 00 00 	movl   $0x4f,(%esp)
   19e62:	e8 54 73 ff ff       	call   111bb <Set_Current_Attr>
   19e67:	a1 6c 5e 02 00       	mov    0x25e6c,%eax
   19e6c:	89 44 24 18          	mov    %eax,0x18(%esp)
   19e70:	8b 45 04             	mov    0x4(%ebp),%eax
   19e73:	89 44 24 14          	mov    %eax,0x14(%esp)
   19e77:	c7 44 24 10 ed 00 00 	movl   $0xed,0x10(%esp)
   19e7e:	00 
   19e7f:	c7 44 24 0c 65 0a 02 	movl   $0x20a65,0xc(%esp)
   19e86:	00 
   19e87:	c7 44 24 08 d2 ef 01 	movl   $0x1efd2,0x8(%esp)
   19e8e:	00 
   19e8f:	c7 44 24 04 60 0b 02 	movl   $0x20b60,0x4(%esp)
   19e96:	00 
   19e97:	c7 04 24 b4 ee 01 00 	movl   $0x1eeb4,(%esp)
   19e9e:	e8 c3 71 ff ff       	call   11066 <Print>
   19ea3:	eb fe                	jmp    19ea3 <Notify_Request_Completion+0xc6>
   19ea5:	fb                   	sti    
   19ea6:	83 c4 24             	add    $0x24,%esp
   19ea9:	5b                   	pop    %ebx
   19eaa:	5d                   	pop    %ebp
   19eab:	c3                   	ret    

00019eac <Block_Read>:
   19eac:	55                   	push   %ebp
   19ead:	89 e5                	mov    %esp,%ebp
   19eaf:	56                   	push   %esi
   19eb0:	53                   	push   %ebx
   19eb1:	83 ec 10             	sub    $0x10,%esp
   19eb4:	8b 45 10             	mov    0x10(%ebp),%eax
   19eb7:	89 44 24 0c          	mov    %eax,0xc(%esp)
   19ebb:	8b 45 0c             	mov    0xc(%ebp),%eax
   19ebe:	89 44 24 08          	mov    %eax,0x8(%esp)
   19ec2:	c7 44 24 04 00 00 00 	movl   $0x0,0x4(%esp)
   19ec9:	00 
   19eca:	8b 45 08             	mov    0x8(%ebp),%eax
   19ecd:	89 04 24             	mov    %eax,(%esp)
   19ed0:	e8 f4 fa ff ff       	call   199c9 <Create_Request>
   19ed5:	89 c3                	mov    %eax,%ebx
   19ed7:	85 c0                	test   %eax,%eax
   19ed9:	74 17                	je     19ef2 <Block_Read+0x46>
   19edb:	89 04 24             	mov    %eax,(%esp)
   19ede:	e8 2a fb ff ff       	call   19a0d <Post_Request_And_Wait>
   19ee3:	8b 73 14             	mov    0x14(%ebx),%esi
   19ee6:	89 1c 24             	mov    %ebx,(%esp)
   19ee9:	e8 de a6 ff ff       	call   145cc <Free>
   19eee:	89 f0                	mov    %esi,%eax
   19ef0:	eb 05                	jmp    19ef7 <Block_Read+0x4b>
   19ef2:	b8 f9 ff ff ff       	mov    $0xfffffff9,%eax
   19ef7:	83 c4 10             	add    $0x10,%esp
   19efa:	5b                   	pop    %ebx
   19efb:	5e                   	pop    %esi
   19efc:	5d                   	pop    %ebp
   19efd:	c3                   	ret    

00019efe <Block_Write>:
   19efe:	55                   	push   %ebp
   19eff:	89 e5                	mov    %esp,%ebp
   19f01:	56                   	push   %esi
   19f02:	53                   	push   %ebx
   19f03:	83 ec 10             	sub    $0x10,%esp
   19f06:	8b 45 10             	mov    0x10(%ebp),%eax
   19f09:	89 44 24 0c          	mov    %eax,0xc(%esp)
   19f0d:	8b 45 0c             	mov    0xc(%ebp),%eax
   19f10:	89 44 24 08          	mov    %eax,0x8(%esp)
   19f14:	c7 44 24 04 01 00 00 	movl   $0x1,0x4(%esp)
   19f1b:	00 
   19f1c:	8b 45 08             	mov    0x8(%ebp),%eax
   19f1f:	89 04 24             	mov    %eax,(%esp)
   19f22:	e8 a2 fa ff ff       	call   199c9 <Create_Request>
   19f27:	89 c3                	mov    %eax,%ebx
   19f29:	85 c0                	test   %eax,%eax
   19f2b:	74 17                	je     19f44 <Block_Write+0x46>
   19f2d:	89 04 24             	mov    %eax,(%esp)
   19f30:	e8 d8 fa ff ff       	call   19a0d <Post_Request_And_Wait>
   19f35:	8b 73 14             	mov    0x14(%ebx),%esi
   19f38:	89 1c 24             	mov    %ebx,(%esp)
   19f3b:	e8 8c a6 ff ff       	call   145cc <Free>
   19f40:	89 f0                	mov    %esi,%eax
   19f42:	eb 05                	jmp    19f49 <Block_Write+0x4b>
   19f44:	b8 f9 ff ff ff       	mov    $0xfffffff9,%eax
   19f49:	83 c4 10             	add    $0x10,%esp
   19f4c:	5b                   	pop    %ebx
   19f4d:	5e                   	pop    %esi
   19f4e:	5d                   	pop    %ebp
   19f4f:	c3                   	ret    

00019f50 <Get_Num_Blocks>:
   19f50:	55                   	push   %ebp
   19f51:	89 e5                	mov    %esp,%ebp
   19f53:	83 ec 18             	sub    $0x18,%esp
   19f56:	8b 45 08             	mov    0x8(%ebp),%eax
   19f59:	8b 50 10             	mov    0x10(%eax),%edx
   19f5c:	89 04 24             	mov    %eax,(%esp)
   19f5f:	ff 52 08             	call   *0x8(%edx)
   19f62:	c9                   	leave  
   19f63:	c3                   	ret    
   19f64:	66 90                	xchg   %ax,%ax
   19f66:	66 90                	xchg   %ax,%ax
   19f68:	66 90                	xchg   %ax,%ax
   19f6a:	66 90                	xchg   %ax,%ax
   19f6c:	66 90                	xchg   %ax,%ax
   19f6e:	66 90                	xchg   %ax,%ax

00019f70 <IDE_getNumBlocks>:
   19f70:	55                   	push   %ebp
   19f71:	89 e5                	mov    %esp,%ebp
   19f73:	83 f8 02             	cmp    $0x2,%eax
   19f76:	77 22                	ja     19f9a <IDE_getNumBlocks+0x2a>
   19f78:	0f bf 0c c5 a6 53 02 	movswl 0x253a6(,%eax,8),%ecx
   19f7f:	00 
   19f80:	0f bf 14 c5 a8 53 02 	movswl 0x253a8(,%eax,8),%edx
   19f87:	00 
   19f88:	0f af ca             	imul   %edx,%ecx
   19f8b:	0f bf 14 c5 a4 53 02 	movswl 0x253a4(,%eax,8),%edx
   19f92:	00 
   19f93:	89 c8                	mov    %ecx,%eax
   19f95:	0f af c2             	imul   %edx,%eax
   19f98:	eb 05                	jmp    19f9f <IDE_getNumBlocks+0x2f>
   19f9a:	b8 ff ff ff ff       	mov    $0xffffffff,%eax
   19f9f:	5d                   	pop    %ebp
   19fa0:	c3                   	ret    

00019fa1 <IDE_Get_Num_Blocks>:
   19fa1:	55                   	push   %ebp
   19fa2:	89 e5                	mov    %esp,%ebp
   19fa4:	8b 45 08             	mov    0x8(%ebp),%eax
   19fa7:	8b 40 14             	mov    0x14(%eax),%eax
   19faa:	e8 c1 ff ff ff       	call   19f70 <IDE_getNumBlocks>
   19faf:	5d                   	pop    %ebp
   19fb0:	c3                   	ret    

00019fb1 <IDE_Close>:
   19fb1:	55                   	push   %ebp
   19fb2:	89 e5                	mov    %esp,%ebp
   19fb4:	83 ec 28             	sub    $0x28,%esp
   19fb7:	8b 45 08             	mov    0x8(%ebp),%eax
   19fba:	80 78 18 00          	cmpb   $0x0,0x18(%eax)
   19fbe:	75 4a                	jne    1a00a <IDE_Close+0x59>
   19fc0:	c7 04 24 4f 00 00 00 	movl   $0x4f,(%esp)
   19fc7:	e8 ef 71 ff ff       	call   111bb <Set_Current_Attr>
   19fcc:	a1 6c 5e 02 00       	mov    0x25e6c,%eax
   19fd1:	89 44 24 18          	mov    %eax,0x18(%esp)
   19fd5:	8b 45 04             	mov    0x4(%ebp),%eax
   19fd8:	89 44 24 14          	mov    %eax,0x14(%esp)
   19fdc:	c7 44 24 10 19 01 00 	movl   $0x119,0x10(%esp)
   19fe3:	00 
   19fe4:	c7 44 24 0c 37 0c 02 	movl   $0x20c37,0xc(%esp)
   19feb:	00 
   19fec:	c7 44 24 08 55 07 02 	movl   $0x20755,0x8(%esp)
   19ff3:	00 
   19ff4:	c7 44 24 04 0d 0e 02 	movl   $0x20e0d,0x4(%esp)
   19ffb:	00 
   19ffc:	c7 04 24 b4 ee 01 00 	movl   $0x1eeb4,(%esp)
   1a003:	e8 5e 70 ff ff       	call   11066 <Print>
   1a008:	eb fe                	jmp    1a008 <IDE_Close+0x57>
   1a00a:	b8 00 00 00 00       	mov    $0x0,%eax
   1a00f:	c9                   	leave  
   1a010:	c3                   	ret    

0001a011 <IDE_Open>:
   1a011:	55                   	push   %ebp
   1a012:	89 e5                	mov    %esp,%ebp
   1a014:	83 ec 28             	sub    $0x28,%esp
   1a017:	8b 45 08             	mov    0x8(%ebp),%eax
   1a01a:	80 78 18 00          	cmpb   $0x0,0x18(%eax)
   1a01e:	74 4a                	je     1a06a <IDE_Open+0x59>
   1a020:	c7 04 24 4f 00 00 00 	movl   $0x4f,(%esp)
   1a027:	e8 8f 71 ff ff       	call   111bb <Set_Current_Attr>
   1a02c:	a1 6c 5e 02 00       	mov    0x25e6c,%eax
   1a031:	89 44 24 18          	mov    %eax,0x18(%esp)
   1a035:	8b 45 04             	mov    0x4(%ebp),%eax
   1a038:	89 44 24 14          	mov    %eax,0x14(%esp)
   1a03c:	c7 44 24 10 13 01 00 	movl   $0x113,0x10(%esp)
   1a043:	00 
   1a044:	c7 44 24 0c 37 0c 02 	movl   $0x20c37,0xc(%esp)
   1a04b:	00 
   1a04c:	c7 44 24 08 54 07 02 	movl   $0x20754,0x8(%esp)
   1a053:	00 
   1a054:	c7 44 24 04 04 0e 02 	movl   $0x20e04,0x4(%esp)
   1a05b:	00 
   1a05c:	c7 04 24 b4 ee 01 00 	movl   $0x1eeb4,(%esp)
   1a063:	e8 fe 6f ff ff       	call   11066 <Print>
   1a068:	eb fe                	jmp    1a068 <IDE_Open+0x57>
   1a06a:	b8 00 00 00 00       	mov    $0x0,%eax
   1a06f:	c9                   	leave  
   1a070:	c3                   	ret    

0001a071 <IDE_Request_Thread>:
   1a071:	55                   	push   %ebp
   1a072:	89 e5                	mov    %esp,%ebp
   1a074:	57                   	push   %edi
   1a075:	56                   	push   %esi
   1a076:	53                   	push   %ebx
   1a077:	83 ec 4c             	sub    $0x4c,%esp
   1a07a:	c7 44 24 04 84 5e 02 	movl   $0x25e84,0x4(%esp)
   1a081:	00 
   1a082:	c7 04 24 7c 5e 02 00 	movl   $0x25e7c,(%esp)
   1a089:	e8 59 fc ff ff       	call   19ce7 <Dequeue_Request>
   1a08e:	89 c3                	mov    %eax,%ebx
   1a090:	83 78 04 00          	cmpl   $0x0,0x4(%eax)
   1a094:	0f 85 30 03 00 00    	jne    1a3ca <IDE_Request_Thread+0x359>
   1a09a:	8b 78 0c             	mov    0xc(%eax),%edi
   1a09d:	8b 40 08             	mov    0x8(%eax),%eax
   1a0a0:	89 45 e4             	mov    %eax,-0x1c(%ebp)
   1a0a3:	8b 03                	mov    (%ebx),%eax
   1a0a5:	8b 70 14             	mov    0x14(%eax),%esi
   1a0a8:	85 f6                	test   %esi,%esi
   1a0aa:	78 0c                	js     1a0b8 <IDE_Request_Thread+0x47>
   1a0ac:	a1 b4 53 02 00       	mov    0x253b4,%eax
   1a0b1:	83 e8 01             	sub    $0x1,%eax
   1a0b4:	39 c6                	cmp    %eax,%esi
   1a0b6:	7e 2c                	jle    1a0e4 <IDE_Request_Thread+0x73>
   1a0b8:	b8 ff ff ff ff       	mov    $0xffffffff,%eax
   1a0bd:	83 3d a0 53 02 00 00 	cmpl   $0x0,0x253a0
   1a0c4:	0f 84 ed 05 00 00    	je     1a6b7 <IDE_Request_Thread+0x646>
   1a0ca:	89 74 24 04          	mov    %esi,0x4(%esp)
   1a0ce:	c7 04 24 4b 0c 02 00 	movl   $0x20c4b,(%esp)
   1a0d5:	e8 8c 6f ff ff       	call   11066 <Print>
   1a0da:	b8 ff ff ff ff       	mov    $0xffffffff,%eax
   1a0df:	e9 d3 05 00 00       	jmp    1a6b7 <IDE_Request_Thread+0x646>
   1a0e4:	83 7d e4 00          	cmpl   $0x0,-0x1c(%ebp)
   1a0e8:	78 0c                	js     1a0f6 <IDE_Request_Thread+0x85>
   1a0ea:	89 f0                	mov    %esi,%eax
   1a0ec:	e8 7f fe ff ff       	call   19f70 <IDE_getNumBlocks>
   1a0f1:	39 45 e4             	cmp    %eax,-0x1c(%ebp)
   1a0f4:	7c 2f                	jl     1a125 <IDE_Request_Thread+0xb4>
   1a0f6:	b8 fe ff ff ff       	mov    $0xfffffffe,%eax
   1a0fb:	83 3d a0 53 02 00 00 	cmpl   $0x0,0x253a0
   1a102:	0f 84 af 05 00 00    	je     1a6b7 <IDE_Request_Thread+0x646>
   1a108:	8b 45 e4             	mov    -0x1c(%ebp),%eax
   1a10b:	89 44 24 04          	mov    %eax,0x4(%esp)
   1a10f:	c7 04 24 62 0c 02 00 	movl   $0x20c62,(%esp)
   1a116:	e8 4b 6f ff ff       	call   11066 <Print>
   1a11b:	b8 fe ff ff ff       	mov    $0xfffffffe,%eax
   1a120:	e9 92 05 00 00       	jmp    1a6b7 <IDE_Request_Thread+0x646>
   1a125:	e8 15 61 ff ff       	call   1023f <Interrupts_Enabled>
   1a12a:	c7 45 d4 00 00 00 00 	movl   $0x0,-0x2c(%ebp)
   1a131:	84 c0                	test   %al,%al
   1a133:	74 5b                	je     1a190 <IDE_Request_Thread+0x11f>
   1a135:	e8 05 61 ff ff       	call   1023f <Interrupts_Enabled>
   1a13a:	84 c0                	test   %al,%al
   1a13c:	75 4a                	jne    1a188 <IDE_Request_Thread+0x117>
   1a13e:	c7 04 24 4f 00 00 00 	movl   $0x4f,(%esp)
   1a145:	e8 71 70 ff ff       	call   111bb <Set_Current_Attr>
   1a14a:	a1 6c 5e 02 00       	mov    0x25e6c,%eax
   1a14f:	89 44 24 18          	mov    %eax,0x18(%esp)
   1a153:	8b 45 04             	mov    0x4(%ebp),%eax
   1a156:	89 44 24 14          	mov    %eax,0x14(%esp)
   1a15a:	c7 44 24 10 92 00 00 	movl   $0x92,0x10(%esp)
   1a161:	00 
   1a162:	c7 44 24 0c 37 0c 02 	movl   $0x20c37,0xc(%esp)
   1a169:	00 
   1a16a:	c7 44 24 08 d3 ef 01 	movl   $0x1efd3,0x8(%esp)
   1a171:	00 
   1a172:	c7 44 24 04 21 0e 02 	movl   $0x20e21,0x4(%esp)
   1a179:	00 
   1a17a:	c7 04 24 b4 ee 01 00 	movl   $0x1eeb4,(%esp)
   1a181:	e8 e0 6e ff ff       	call   11066 <Print>
   1a186:	eb fe                	jmp    1a186 <IDE_Request_Thread+0x115>
   1a188:	fa                   	cli    
   1a189:	c7 45 d4 01 00 00 00 	movl   $0x1,-0x2c(%ebp)
   1a190:	0f bf 0c f5 a8 53 02 	movswl 0x253a8(,%esi,8),%ecx
   1a197:	00 
   1a198:	8b 45 e4             	mov    -0x1c(%ebp),%eax
   1a19b:	99                   	cltd   
   1a19c:	f7 f9                	idiv   %ecx
   1a19e:	89 45 dc             	mov    %eax,-0x24(%ebp)
   1a1a1:	83 c2 01             	add    $0x1,%edx
   1a1a4:	89 55 d8             	mov    %edx,-0x28(%ebp)
   1a1a7:	0f bf 14 f5 a6 53 02 	movswl 0x253a6(,%esi,8),%edx
   1a1ae:	00 
   1a1af:	89 c8                	mov    %ecx,%eax
   1a1b1:	89 d1                	mov    %edx,%ecx
   1a1b3:	0f af c2             	imul   %edx,%eax
   1a1b6:	89 45 e0             	mov    %eax,-0x20(%ebp)
   1a1b9:	8b 45 e4             	mov    -0x1c(%ebp),%eax
   1a1bc:	99                   	cltd   
   1a1bd:	f7 7d e0             	idivl  -0x20(%ebp)
   1a1c0:	89 45 e0             	mov    %eax,-0x20(%ebp)
   1a1c3:	8b 45 dc             	mov    -0x24(%ebp),%eax
   1a1c6:	99                   	cltd   
   1a1c7:	f7 f9                	idiv   %ecx
   1a1c9:	89 55 dc             	mov    %edx,-0x24(%ebp)
   1a1cc:	83 3d a0 53 02 00 01 	cmpl   $0x1,0x253a0
   1a1d3:	7e 4c                	jle    1a221 <IDE_Request_Thread+0x1b0>
   1a1d5:	8b 45 e4             	mov    -0x1c(%ebp),%eax
   1a1d8:	89 44 24 04          	mov    %eax,0x4(%esp)
   1a1dc:	c7 04 24 79 0c 02 00 	movl   $0x20c79,(%esp)
   1a1e3:	e8 7e 6e ff ff       	call   11066 <Print>
   1a1e8:	8b 4d dc             	mov    -0x24(%ebp),%ecx
   1a1eb:	89 4c 24 04          	mov    %ecx,0x4(%esp)
   1a1ef:	c7 04 24 93 0c 02 00 	movl   $0x20c93,(%esp)
   1a1f6:	e8 6b 6e ff ff       	call   11066 <Print>
   1a1fb:	8b 45 e0             	mov    -0x20(%ebp),%eax
   1a1fe:	89 44 24 04          	mov    %eax,0x4(%esp)
   1a202:	c7 04 24 a0 0c 02 00 	movl   $0x20ca0,(%esp)
   1a209:	e8 58 6e ff ff       	call   11066 <Print>
   1a20e:	8b 55 d8             	mov    -0x28(%ebp),%edx
   1a211:	89 54 24 04          	mov    %edx,0x4(%esp)
   1a215:	c7 04 24 b1 0c 02 00 	movl   $0x20cb1,(%esp)
   1a21c:	e8 45 6e ff ff       	call   11066 <Print>
   1a221:	c7 44 24 04 01 00 00 	movl   $0x1,0x4(%esp)
   1a228:	00 
   1a229:	c7 04 24 f2 01 00 00 	movl   $0x1f2,(%esp)
   1a230:	e8 fe 66 ff ff       	call   10933 <Out_Byte>
   1a235:	0f b6 45 d8          	movzbl -0x28(%ebp),%eax
   1a239:	89 44 24 04          	mov    %eax,0x4(%esp)
   1a23d:	c7 04 24 f3 01 00 00 	movl   $0x1f3,(%esp)
   1a244:	e8 ea 66 ff ff       	call   10933 <Out_Byte>
   1a249:	0f b6 45 e0          	movzbl -0x20(%ebp),%eax
   1a24d:	89 44 24 04          	mov    %eax,0x4(%esp)
   1a251:	c7 04 24 f4 01 00 00 	movl   $0x1f4,(%esp)
   1a258:	e8 d6 66 ff ff       	call   10933 <Out_Byte>
   1a25d:	8b 45 e0             	mov    -0x20(%ebp),%eax
   1a260:	0f b6 c4             	movzbl %ah,%eax
   1a263:	89 44 24 04          	mov    %eax,0x4(%esp)
   1a267:	c7 04 24 f5 01 00 00 	movl   $0x1f5,(%esp)
   1a26e:	e8 c0 66 ff ff       	call   10933 <Out_Byte>
   1a273:	85 f6                	test   %esi,%esi
   1a275:	75 1c                	jne    1a293 <IDE_Request_Thread+0x222>
   1a277:	0f b6 45 dc          	movzbl -0x24(%ebp),%eax
   1a27b:	83 c8 a0             	or     $0xffffffa0,%eax
   1a27e:	0f b6 c0             	movzbl %al,%eax
   1a281:	89 44 24 04          	mov    %eax,0x4(%esp)
   1a285:	c7 04 24 f6 01 00 00 	movl   $0x1f6,(%esp)
   1a28c:	e8 a2 66 ff ff       	call   10933 <Out_Byte>
   1a291:	eb 1f                	jmp    1a2b2 <IDE_Request_Thread+0x241>
   1a293:	83 fe 01             	cmp    $0x1,%esi
   1a296:	75 1a                	jne    1a2b2 <IDE_Request_Thread+0x241>
   1a298:	0f b6 45 dc          	movzbl -0x24(%ebp),%eax
   1a29c:	83 c8 b0             	or     $0xffffffb0,%eax
   1a29f:	0f b6 c0             	movzbl %al,%eax
   1a2a2:	89 44 24 04          	mov    %eax,0x4(%esp)
   1a2a6:	c7 04 24 f6 01 00 00 	movl   $0x1f6,(%esp)
   1a2ad:	e8 81 66 ff ff       	call   10933 <Out_Byte>
   1a2b2:	c7 44 24 04 21 00 00 	movl   $0x21,0x4(%esp)
   1a2b9:	00 
   1a2ba:	c7 04 24 f7 01 00 00 	movl   $0x1f7,(%esp)
   1a2c1:	e8 6d 66 ff ff       	call   10933 <Out_Byte>
   1a2c6:	83 3d a0 53 02 00 02 	cmpl   $0x2,0x253a0
   1a2cd:	7e 0c                	jle    1a2db <IDE_Request_Thread+0x26a>
   1a2cf:	c7 04 24 c0 0c 02 00 	movl   $0x20cc0,(%esp)
   1a2d6:	e8 8b 6d ff ff       	call   11066 <Print>
   1a2db:	c7 04 24 f7 01 00 00 	movl   $0x1f7,(%esp)
   1a2e2:	e8 58 66 ff ff       	call   1093f <In_Byte>
   1a2e7:	84 c0                	test   %al,%al
   1a2e9:	78 f0                	js     1a2db <IDE_Request_Thread+0x26a>
   1a2eb:	c7 04 24 f7 01 00 00 	movl   $0x1f7,(%esp)
   1a2f2:	e8 48 66 ff ff       	call   1093f <In_Byte>
   1a2f7:	a8 01                	test   $0x1,%al
   1a2f9:	74 29                	je     1a324 <IDE_Request_Thread+0x2b3>
   1a2fb:	c7 04 24 f7 01 00 00 	movl   $0x1f7,(%esp)
   1a302:	e8 38 66 ff ff       	call   1093f <In_Byte>
   1a307:	0f b6 c0             	movzbl %al,%eax
   1a30a:	89 44 24 04          	mov    %eax,0x4(%esp)
   1a30e:	c7 04 24 d9 0c 02 00 	movl   $0x20cd9,(%esp)
   1a315:	e8 4c 6d ff ff       	call   11066 <Print>
   1a31a:	b8 fd ff ff ff       	mov    $0xfffffffd,%eax
   1a31f:	e9 93 03 00 00       	jmp    1a6b7 <IDE_Request_Thread+0x646>
   1a324:	83 3d a0 53 02 00 02 	cmpl   $0x2,0x253a0
   1a32b:	0f 8e a3 03 00 00    	jle    1a6d4 <IDE_Request_Thread+0x663>
   1a331:	c7 04 24 ed 0c 02 00 	movl   $0x20ced,(%esp)
   1a338:	e8 29 6d ff ff       	call   11066 <Print>
   1a33d:	e9 92 03 00 00       	jmp    1a6d4 <IDE_Request_Thread+0x663>
   1a342:	c7 04 24 f0 01 00 00 	movl   $0x1f0,(%esp)
   1a349:	e8 07 66 ff ff       	call   10955 <In_Word>
   1a34e:	66 89 04 77          	mov    %ax,(%edi,%esi,2)
   1a352:	83 c6 01             	add    $0x1,%esi
   1a355:	81 fe 00 01 00 00    	cmp    $0x100,%esi
   1a35b:	75 e5                	jne    1a342 <IDE_Request_Thread+0x2d1>
   1a35d:	b8 00 00 00 00       	mov    $0x0,%eax
   1a362:	83 7d d4 00          	cmpl   $0x0,-0x2c(%ebp)
   1a366:	0f 84 4b 03 00 00    	je     1a6b7 <IDE_Request_Thread+0x646>
   1a36c:	e8 ce 5e ff ff       	call   1023f <Interrupts_Enabled>
   1a371:	84 c0                	test   %al,%al
   1a373:	74 4a                	je     1a3bf <IDE_Request_Thread+0x34e>
   1a375:	c7 04 24 4f 00 00 00 	movl   $0x4f,(%esp)
   1a37c:	e8 3a 6e ff ff       	call   111bb <Set_Current_Attr>
   1a381:	a1 6c 5e 02 00       	mov    0x25e6c,%eax
   1a386:	89 44 24 18          	mov    %eax,0x18(%esp)
   1a38a:	8b 45 04             	mov    0x4(%ebp),%eax
   1a38d:	89 44 24 14          	mov    %eax,0x14(%esp)
   1a391:	c7 44 24 10 c1 00 00 	movl   $0xc1,0x10(%esp)
   1a398:	00 
   1a399:	c7 44 24 0c 37 0c 02 	movl   $0x20c37,0xc(%esp)
   1a3a0:	00 
   1a3a1:	c7 44 24 08 d2 ef 01 	movl   $0x1efd2,0x8(%esp)
   1a3a8:	00 
   1a3a9:	c7 44 24 04 21 0e 02 	movl   $0x20e21,0x4(%esp)
   1a3b0:	00 
   1a3b1:	c7 04 24 b4 ee 01 00 	movl   $0x1eeb4,(%esp)
   1a3b8:	e8 a9 6c ff ff       	call   11066 <Print>
   1a3bd:	eb fe                	jmp    1a3bd <IDE_Request_Thread+0x34c>
   1a3bf:	fb                   	sti    
   1a3c0:	b8 00 00 00 00       	mov    $0x0,%eax
   1a3c5:	e9 ed 02 00 00       	jmp    1a6b7 <IDE_Request_Thread+0x646>
   1a3ca:	8b 70 0c             	mov    0xc(%eax),%esi
   1a3cd:	8b 40 08             	mov    0x8(%eax),%eax
   1a3d0:	89 c7                	mov    %eax,%edi
   1a3d2:	89 45 e4             	mov    %eax,-0x1c(%ebp)
   1a3d5:	8b 03                	mov    (%ebx),%eax
   1a3d7:	8b 40 14             	mov    0x14(%eax),%eax
   1a3da:	89 c1                	mov    %eax,%ecx
   1a3dc:	89 45 e0             	mov    %eax,-0x20(%ebp)
   1a3df:	85 c0                	test   %eax,%eax
   1a3e1:	0f 88 b6 02 00 00    	js     1a69d <IDE_Request_Thread+0x62c>
   1a3e7:	a1 b4 53 02 00       	mov    0x253b4,%eax
   1a3ec:	83 e8 01             	sub    $0x1,%eax
   1a3ef:	39 c1                	cmp    %eax,%ecx
   1a3f1:	0f 8f ad 02 00 00    	jg     1a6a4 <IDE_Request_Thread+0x633>
   1a3f7:	85 ff                	test   %edi,%edi
   1a3f9:	0f 88 ac 02 00 00    	js     1a6ab <IDE_Request_Thread+0x63a>
   1a3ff:	89 c8                	mov    %ecx,%eax
   1a401:	e8 6a fb ff ff       	call   19f70 <IDE_getNumBlocks>
   1a406:	39 c7                	cmp    %eax,%edi
   1a408:	0f 8d a4 02 00 00    	jge    1a6b2 <IDE_Request_Thread+0x641>
   1a40e:	e8 2c 5e ff ff       	call   1023f <Interrupts_Enabled>
   1a413:	c7 45 d4 00 00 00 00 	movl   $0x0,-0x2c(%ebp)
   1a41a:	84 c0                	test   %al,%al
   1a41c:	74 5b                	je     1a479 <IDE_Request_Thread+0x408>
   1a41e:	e8 1c 5e ff ff       	call   1023f <Interrupts_Enabled>
   1a423:	84 c0                	test   %al,%al
   1a425:	75 4a                	jne    1a471 <IDE_Request_Thread+0x400>
   1a427:	c7 04 24 4f 00 00 00 	movl   $0x4f,(%esp)
   1a42e:	e8 88 6d ff ff       	call   111bb <Set_Current_Attr>
   1a433:	a1 6c 5e 02 00       	mov    0x25e6c,%eax
   1a438:	89 44 24 18          	mov    %eax,0x18(%esp)
   1a43c:	8b 45 04             	mov    0x4(%ebp),%eax
   1a43f:	89 44 24 14          	mov    %eax,0x14(%esp)
   1a443:	c7 44 24 10 db 00 00 	movl   $0xdb,0x10(%esp)
   1a44a:	00 
   1a44b:	c7 44 24 0c 37 0c 02 	movl   $0x20c37,0xc(%esp)
   1a452:	00 
   1a453:	c7 44 24 08 d3 ef 01 	movl   $0x1efd3,0x8(%esp)
   1a45a:	00 
   1a45b:	c7 44 24 04 17 0e 02 	movl   $0x20e17,0x4(%esp)
   1a462:	00 
   1a463:	c7 04 24 b4 ee 01 00 	movl   $0x1eeb4,(%esp)
   1a46a:	e8 f7 6b ff ff       	call   11066 <Print>
   1a46f:	eb fe                	jmp    1a46f <IDE_Request_Thread+0x3fe>
   1a471:	fa                   	cli    
   1a472:	c7 45 d4 01 00 00 00 	movl   $0x1,-0x2c(%ebp)
   1a479:	8b 4d e0             	mov    -0x20(%ebp),%ecx
   1a47c:	0f bf 3c cd a8 53 02 	movswl 0x253a8(,%ecx,8),%edi
   1a483:	00 
   1a484:	8b 45 e4             	mov    -0x1c(%ebp),%eax
   1a487:	99                   	cltd   
   1a488:	f7 ff                	idiv   %edi
   1a48a:	89 45 d0             	mov    %eax,-0x30(%ebp)
   1a48d:	83 c2 01             	add    $0x1,%edx
   1a490:	89 55 d8             	mov    %edx,-0x28(%ebp)
   1a493:	0f bf 0c cd a6 53 02 	movswl 0x253a6(,%ecx,8),%ecx
   1a49a:	00 
   1a49b:	0f af f9             	imul   %ecx,%edi
   1a49e:	8b 45 e4             	mov    -0x1c(%ebp),%eax
   1a4a1:	99                   	cltd   
   1a4a2:	f7 ff                	idiv   %edi
   1a4a4:	89 45 dc             	mov    %eax,-0x24(%ebp)
   1a4a7:	8b 45 d0             	mov    -0x30(%ebp),%eax
   1a4aa:	99                   	cltd   
   1a4ab:	f7 f9                	idiv   %ecx
   1a4ad:	89 d7                	mov    %edx,%edi
   1a4af:	83 3d a0 53 02 00 00 	cmpl   $0x0,0x253a0
   1a4b6:	74 49                	je     1a501 <IDE_Request_Thread+0x490>
   1a4b8:	8b 45 e4             	mov    -0x1c(%ebp),%eax
   1a4bb:	89 44 24 04          	mov    %eax,0x4(%esp)
   1a4bf:	c7 04 24 fa 0c 02 00 	movl   $0x20cfa,(%esp)
   1a4c6:	e8 9b 6b ff ff       	call   11066 <Print>
   1a4cb:	89 7c 24 04          	mov    %edi,0x4(%esp)
   1a4cf:	c7 04 24 93 0c 02 00 	movl   $0x20c93,(%esp)
   1a4d6:	e8 8b 6b ff ff       	call   11066 <Print>
   1a4db:	8b 45 dc             	mov    -0x24(%ebp),%eax
   1a4de:	89 44 24 04          	mov    %eax,0x4(%esp)
   1a4e2:	c7 04 24 a0 0c 02 00 	movl   $0x20ca0,(%esp)
   1a4e9:	e8 78 6b ff ff       	call   11066 <Print>
   1a4ee:	8b 45 d8             	mov    -0x28(%ebp),%eax
   1a4f1:	89 44 24 04          	mov    %eax,0x4(%esp)
   1a4f5:	c7 04 24 b1 0c 02 00 	movl   $0x20cb1,(%esp)
   1a4fc:	e8 65 6b ff ff       	call   11066 <Print>
   1a501:	c7 44 24 04 01 00 00 	movl   $0x1,0x4(%esp)
   1a508:	00 
   1a509:	c7 04 24 f2 01 00 00 	movl   $0x1f2,(%esp)
   1a510:	e8 1e 64 ff ff       	call   10933 <Out_Byte>
   1a515:	0f b6 45 d8          	movzbl -0x28(%ebp),%eax
   1a519:	89 44 24 04          	mov    %eax,0x4(%esp)
   1a51d:	c7 04 24 f3 01 00 00 	movl   $0x1f3,(%esp)
   1a524:	e8 0a 64 ff ff       	call   10933 <Out_Byte>
   1a529:	0f b6 45 dc          	movzbl -0x24(%ebp),%eax
   1a52d:	89 44 24 04          	mov    %eax,0x4(%esp)
   1a531:	c7 04 24 f4 01 00 00 	movl   $0x1f4,(%esp)
   1a538:	e8 f6 63 ff ff       	call   10933 <Out_Byte>
   1a53d:	8b 45 dc             	mov    -0x24(%ebp),%eax
   1a540:	0f b6 c4             	movzbl %ah,%eax
   1a543:	89 44 24 04          	mov    %eax,0x4(%esp)
   1a547:	c7 04 24 f5 01 00 00 	movl   $0x1f5,(%esp)
   1a54e:	e8 e0 63 ff ff       	call   10933 <Out_Byte>
   1a553:	83 7d e0 00          	cmpl   $0x0,-0x20(%ebp)
   1a557:	75 1a                	jne    1a573 <IDE_Request_Thread+0x502>
   1a559:	89 f8                	mov    %edi,%eax
   1a55b:	83 c8 a0             	or     $0xffffffa0,%eax
   1a55e:	0f b6 c0             	movzbl %al,%eax
   1a561:	89 44 24 04          	mov    %eax,0x4(%esp)
   1a565:	c7 04 24 f6 01 00 00 	movl   $0x1f6,(%esp)
   1a56c:	e8 c2 63 ff ff       	call   10933 <Out_Byte>
   1a571:	eb 1e                	jmp    1a591 <IDE_Request_Thread+0x520>
   1a573:	83 7d e0 01          	cmpl   $0x1,-0x20(%ebp)
   1a577:	75 18                	jne    1a591 <IDE_Request_Thread+0x520>
   1a579:	89 f8                	mov    %edi,%eax
   1a57b:	83 c8 b0             	or     $0xffffffb0,%eax
   1a57e:	0f b6 c0             	movzbl %al,%eax
   1a581:	89 44 24 04          	mov    %eax,0x4(%esp)
   1a585:	c7 04 24 f6 01 00 00 	movl   $0x1f6,(%esp)
   1a58c:	e8 a2 63 ff ff       	call   10933 <Out_Byte>
   1a591:	c7 44 24 04 30 00 00 	movl   $0x30,0x4(%esp)
   1a598:	00 
   1a599:	c7 04 24 f7 01 00 00 	movl   $0x1f7,(%esp)
   1a5a0:	e8 8e 63 ff ff       	call   10933 <Out_Byte>
   1a5a5:	c7 04 24 f7 01 00 00 	movl   $0x1f7,(%esp)
   1a5ac:	e8 8e 63 ff ff       	call   1093f <In_Byte>
   1a5b1:	84 c0                	test   %al,%al
   1a5b3:	78 f0                	js     1a5a5 <IDE_Request_Thread+0x534>
   1a5b5:	bf 00 00 00 00       	mov    $0x0,%edi
   1a5ba:	0f b7 04 7e          	movzwl (%esi,%edi,2),%eax
   1a5be:	89 44 24 04          	mov    %eax,0x4(%esp)
   1a5c2:	c7 04 24 f0 01 00 00 	movl   $0x1f0,(%esp)
   1a5c9:	e8 7a 63 ff ff       	call   10948 <Out_Word>
   1a5ce:	83 c7 01             	add    $0x1,%edi
   1a5d1:	81 ff 00 01 00 00    	cmp    $0x100,%edi
   1a5d7:	75 e1                	jne    1a5ba <IDE_Request_Thread+0x549>
   1a5d9:	83 3d a0 53 02 00 00 	cmpl   $0x0,0x253a0
   1a5e0:	74 0c                	je     1a5ee <IDE_Request_Thread+0x57d>
   1a5e2:	c7 04 24 15 0d 02 00 	movl   $0x20d15,(%esp)
   1a5e9:	e8 78 6a ff ff       	call   11066 <Print>
   1a5ee:	c7 04 24 f7 01 00 00 	movl   $0x1f7,(%esp)
   1a5f5:	e8 45 63 ff ff       	call   1093f <In_Byte>
   1a5fa:	84 c0                	test   %al,%al
   1a5fc:	78 f0                	js     1a5ee <IDE_Request_Thread+0x57d>
   1a5fe:	c7 04 24 f7 01 00 00 	movl   $0x1f7,(%esp)
   1a605:	e8 35 63 ff ff       	call   1093f <In_Byte>
   1a60a:	a8 01                	test   $0x1,%al
   1a60c:	74 29                	je     1a637 <IDE_Request_Thread+0x5c6>
   1a60e:	c7 04 24 f7 01 00 00 	movl   $0x1f7,(%esp)
   1a615:	e8 25 63 ff ff       	call   1093f <In_Byte>
   1a61a:	0f b6 c0             	movzbl %al,%eax
   1a61d:	89 44 24 04          	mov    %eax,0x4(%esp)
   1a621:	c7 04 24 d9 0c 02 00 	movl   $0x20cd9,(%esp)
   1a628:	e8 39 6a ff ff       	call   11066 <Print>
   1a62d:	b8 fd ff ff ff       	mov    $0xfffffffd,%eax
   1a632:	e9 80 00 00 00       	jmp    1a6b7 <IDE_Request_Thread+0x646>
   1a637:	b8 00 00 00 00       	mov    $0x0,%eax
   1a63c:	83 7d d4 00          	cmpl   $0x0,-0x2c(%ebp)
   1a640:	74 75                	je     1a6b7 <IDE_Request_Thread+0x646>
   1a642:	e8 f8 5b ff ff       	call   1023f <Interrupts_Enabled>
   1a647:	84 c0                	test   %al,%al
   1a649:	74 4a                	je     1a695 <IDE_Request_Thread+0x624>
   1a64b:	c7 04 24 4f 00 00 00 	movl   $0x4f,(%esp)
   1a652:	e8 64 6b ff ff       	call   111bb <Set_Current_Attr>
   1a657:	a1 6c 5e 02 00       	mov    0x25e6c,%eax
   1a65c:	89 44 24 18          	mov    %eax,0x18(%esp)
   1a660:	8b 45 04             	mov    0x4(%ebp),%eax
   1a663:	89 44 24 14          	mov    %eax,0x14(%esp)
   1a667:	c7 44 24 10 0c 01 00 	movl   $0x10c,0x10(%esp)
   1a66e:	00 
   1a66f:	c7 44 24 0c 37 0c 02 	movl   $0x20c37,0xc(%esp)
   1a676:	00 
   1a677:	c7 44 24 08 d2 ef 01 	movl   $0x1efd2,0x8(%esp)
   1a67e:	00 
   1a67f:	c7 44 24 04 17 0e 02 	movl   $0x20e17,0x4(%esp)
   1a686:	00 
   1a687:	c7 04 24 b4 ee 01 00 	movl   $0x1eeb4,(%esp)
   1a68e:	e8 d3 69 ff ff       	call   11066 <Print>
   1a693:	eb fe                	jmp    1a693 <IDE_Request_Thread+0x622>
   1a695:	fb                   	sti    
   1a696:	b8 00 00 00 00       	mov    $0x0,%eax
   1a69b:	eb 1a                	jmp    1a6b7 <IDE_Request_Thread+0x646>
   1a69d:	b8 ff ff ff ff       	mov    $0xffffffff,%eax
   1a6a2:	eb 13                	jmp    1a6b7 <IDE_Request_Thread+0x646>
   1a6a4:	b8 ff ff ff ff       	mov    $0xffffffff,%eax
   1a6a9:	eb 0c                	jmp    1a6b7 <IDE_Request_Thread+0x646>
   1a6ab:	b8 fe ff ff ff       	mov    $0xfffffffe,%eax
   1a6b0:	eb 05                	jmp    1a6b7 <IDE_Request_Thread+0x646>
   1a6b2:	b8 fe ff ff ff       	mov    $0xfffffffe,%eax
   1a6b7:	83 f8 01             	cmp    $0x1,%eax
   1a6ba:	19 d2                	sbb    %edx,%edx
   1a6bc:	83 c2 02             	add    $0x2,%edx
   1a6bf:	89 44 24 08          	mov    %eax,0x8(%esp)
   1a6c3:	89 54 24 04          	mov    %edx,0x4(%esp)
   1a6c7:	89 1c 24             	mov    %ebx,(%esp)
   1a6ca:	e8 0e f7 ff ff       	call   19ddd <Notify_Request_Completion>
   1a6cf:	e9 a6 f9 ff ff       	jmp    1a07a <IDE_Request_Thread+0x9>
   1a6d4:	be 00 00 00 00       	mov    $0x0,%esi
   1a6d9:	e9 64 fc ff ff       	jmp    1a342 <IDE_Request_Thread+0x2d1>

0001a6de <readDriveConfig>:
   1a6de:	55                   	push   %ebp
   1a6df:	89 e5                	mov    %esp,%ebp
   1a6e1:	57                   	push   %edi
   1a6e2:	56                   	push   %esi
   1a6e3:	53                   	push   %ebx
   1a6e4:	81 ec 3c 02 00 00    	sub    $0x23c,%esp
   1a6ea:	89 c7                	mov    %eax,%edi
   1a6ec:	83 3d a0 53 02 00 01 	cmpl   $0x1,0x253a0
   1a6f3:	7e 10                	jle    1a705 <readDriveConfig+0x27>
   1a6f5:	89 44 24 04          	mov    %eax,0x4(%esp)
   1a6f9:	c7 04 24 88 0d 02 00 	movl   $0x20d88,(%esp)
   1a700:	e8 61 69 ff ff       	call   11066 <Print>
   1a705:	83 ff 01             	cmp    $0x1,%edi
   1a708:	19 c0                	sbb    %eax,%eax
   1a70a:	83 e0 f0             	and    $0xfffffff0,%eax
   1a70d:	05 b0 00 00 00       	add    $0xb0,%eax
   1a712:	89 44 24 04          	mov    %eax,0x4(%esp)
   1a716:	c7 04 24 f6 01 00 00 	movl   $0x1f6,(%esp)
   1a71d:	e8 11 62 ff ff       	call   10933 <Out_Byte>
   1a722:	c7 44 24 04 ec 00 00 	movl   $0xec,0x4(%esp)
   1a729:	00 
   1a72a:	c7 04 24 f7 01 00 00 	movl   $0x1f7,(%esp)
   1a731:	e8 fd 61 ff ff       	call   10933 <Out_Byte>
   1a736:	c7 04 24 f7 01 00 00 	movl   $0x1f7,(%esp)
   1a73d:	e8 fd 61 ff ff       	call   1093f <In_Byte>
   1a742:	84 c0                	test   %al,%al
   1a744:	78 f0                	js     1a736 <readDriveConfig+0x58>
   1a746:	c7 04 24 f7 01 00 00 	movl   $0x1f7,(%esp)
   1a74d:	e8 ed 61 ff ff       	call   1093f <In_Byte>
   1a752:	a8 08                	test   $0x8,%al
   1a754:	0f 84 d5 00 00 00    	je     1a82f <readDriveConfig+0x151>
   1a75a:	8d 9d e8 fd ff ff    	lea    -0x218(%ebp),%ebx
   1a760:	8d 75 e8             	lea    -0x18(%ebp),%esi
   1a763:	c7 04 24 f0 01 00 00 	movl   $0x1f0,(%esp)
   1a76a:	e8 e6 61 ff ff       	call   10955 <In_Word>
   1a76f:	66 89 03             	mov    %ax,(%ebx)
   1a772:	83 c3 02             	add    $0x2,%ebx
   1a775:	39 f3                	cmp    %esi,%ebx
   1a777:	75 ea                	jne    1a763 <readDriveConfig+0x85>
   1a779:	0f b7 85 ea fd ff ff 	movzwl -0x216(%ebp),%eax
   1a780:	66 89 04 fd a4 53 02 	mov    %ax,0x253a4(,%edi,8)
   1a787:	00 
   1a788:	0f b7 95 ee fd ff ff 	movzwl -0x212(%ebp),%edx
   1a78f:	66 89 14 fd a6 53 02 	mov    %dx,0x253a6(,%edi,8)
   1a796:	00 
   1a797:	0f b7 8d f4 fd ff ff 	movzwl -0x20c(%ebp),%ecx
   1a79e:	66 89 0c fd a8 53 02 	mov    %cx,0x253a8(,%edi,8)
   1a7a5:	00 
   1a7a6:	0f b7 9d f2 fd ff ff 	movzwl -0x20e(%ebp),%ebx
   1a7ad:	66 89 1c fd aa 53 02 	mov    %bx,0x253aa(,%edi,8)
   1a7b4:	00 
   1a7b5:	0f bf c9             	movswl %cx,%ecx
   1a7b8:	89 4c 24 10          	mov    %ecx,0x10(%esp)
   1a7bc:	0f bf d2             	movswl %dx,%edx
   1a7bf:	89 54 24 0c          	mov    %edx,0xc(%esp)
   1a7c3:	98                   	cwtl   
   1a7c4:	89 44 24 08          	mov    %eax,0x8(%esp)
   1a7c8:	89 7c 24 04          	mov    %edi,0x4(%esp)
   1a7cc:	c7 04 24 b8 0d 02 00 	movl   $0x20db8,(%esp)
   1a7d3:	e8 8e 68 ff ff       	call   11066 <Print>
   1a7d8:	89 7c 24 0c          	mov    %edi,0xc(%esp)
   1a7dc:	c7 44 24 08 2f 0d 02 	movl   $0x20d2f,0x8(%esp)
   1a7e3:	00 
   1a7e4:	c7 44 24 04 0f 00 00 	movl   $0xf,0x4(%esp)
   1a7eb:	00 
   1a7ec:	8d 9d d9 fd ff ff    	lea    -0x227(%ebp),%ebx
   1a7f2:	89 1c 24             	mov    %ebx,(%esp)
   1a7f5:	e8 b1 45 00 00       	call   1edab <snprintf>
   1a7fa:	c7 44 24 14 7c 5e 02 	movl   $0x25e7c,0x14(%esp)
   1a801:	00 
   1a802:	c7 44 24 10 84 5e 02 	movl   $0x25e84,0x10(%esp)
   1a809:	00 
   1a80a:	c7 44 24 0c 00 00 00 	movl   $0x0,0xc(%esp)
   1a811:	00 
   1a812:	89 7c 24 08          	mov    %edi,0x8(%esp)
   1a816:	c7 44 24 04 d8 40 02 	movl   $0x240d8,0x4(%esp)
   1a81d:	00 
   1a81e:	89 1c 24             	mov    %ebx,(%esp)
   1a821:	e8 6a ee ff ff       	call   19690 <Register_Block_Device>
   1a826:	85 c0                	test   %eax,%eax
   1a828:	75 6d                	jne    1a897 <readDriveConfig+0x1b9>
   1a82a:	e9 83 00 00 00       	jmp    1a8b2 <readDriveConfig+0x1d4>
   1a82f:	c7 44 24 04 00 00 00 	movl   $0x0,0x4(%esp)
   1a836:	00 
   1a837:	c7 04 24 f1 01 00 00 	movl   $0x1f1,(%esp)
   1a83e:	e8 f0 60 ff ff       	call   10933 <Out_Byte>
   1a843:	83 ff 01             	cmp    $0x1,%edi
   1a846:	19 c0                	sbb    %eax,%eax
   1a848:	83 e0 f0             	and    $0xfffffff0,%eax
   1a84b:	05 b0 00 00 00       	add    $0xb0,%eax
   1a850:	89 44 24 04          	mov    %eax,0x4(%esp)
   1a854:	c7 04 24 f6 01 00 00 	movl   $0x1f6,(%esp)
   1a85b:	e8 d3 60 ff ff       	call   10933 <Out_Byte>
   1a860:	c7 44 24 04 a1 00 00 	movl   $0xa1,0x4(%esp)
   1a867:	00 
   1a868:	c7 04 24 f7 01 00 00 	movl   $0x1f7,(%esp)
   1a86f:	e8 bf 60 ff ff       	call   10933 <Out_Byte>
   1a874:	c7 04 24 f7 01 00 00 	movl   $0x1f7,(%esp)
   1a87b:	e8 bf 60 ff ff       	call   1093f <In_Byte>
   1a880:	84 c0                	test   %al,%al
   1a882:	78 f0                	js     1a874 <readDriveConfig+0x196>
   1a884:	c7 04 24 f7 01 00 00 	movl   $0x1f7,(%esp)
   1a88b:	e8 af 60 ff ff       	call   1093f <In_Byte>
   1a890:	b8 ff ff ff ff       	mov    $0xffffffff,%eax
   1a895:	eb 1b                	jmp    1a8b2 <readDriveConfig+0x1d4>
   1a897:	8d 85 d9 fd ff ff    	lea    -0x227(%ebp),%eax
   1a89d:	89 44 24 04          	mov    %eax,0x4(%esp)
   1a8a1:	c7 04 24 0c 08 02 00 	movl   $0x2080c,(%esp)
   1a8a8:	e8 b9 67 ff ff       	call   11066 <Print>
   1a8ad:	b8 00 00 00 00       	mov    $0x0,%eax
   1a8b2:	81 c4 3c 02 00 00    	add    $0x23c,%esp
   1a8b8:	5b                   	pop    %ebx
   1a8b9:	5e                   	pop    %esi
   1a8ba:	5f                   	pop    %edi
   1a8bb:	5d                   	pop    %ebp
   1a8bc:	c3                   	ret    

0001a8bd <Init_IDE>:
   1a8bd:	55                   	push   %ebp
   1a8be:	89 e5                	mov    %esp,%ebp
   1a8c0:	83 ec 18             	sub    $0x18,%esp
   1a8c3:	c7 04 24 e4 0d 02 00 	movl   $0x20de4,(%esp)
   1a8ca:	e8 97 67 ff ff       	call   11066 <Print>
   1a8cf:	c7 44 24 04 06 00 00 	movl   $0x6,0x4(%esp)
   1a8d6:	00 
   1a8d7:	c7 04 24 f6 03 00 00 	movl   $0x3f6,(%esp)
   1a8de:	e8 50 60 ff ff       	call   10933 <Out_Byte>
   1a8e3:	c7 04 24 64 00 00 00 	movl   $0x64,(%esp)
   1a8ea:	e8 43 7d ff ff       	call   12632 <Micro_Delay>
   1a8ef:	c7 44 24 04 02 00 00 	movl   $0x2,0x4(%esp)
   1a8f6:	00 
   1a8f7:	c7 04 24 f6 03 00 00 	movl   $0x3f6,(%esp)
   1a8fe:	e8 30 60 ff ff       	call   10933 <Out_Byte>
   1a903:	c7 04 24 f7 01 00 00 	movl   $0x1f7,(%esp)
   1a90a:	e8 30 60 ff ff       	call   1093f <In_Byte>
   1a90f:	84 c0                	test   %al,%al
   1a911:	78 f0                	js     1a903 <Init_IDE+0x46>
   1a913:	83 3d a0 53 02 00 00 	cmpl   $0x0,0x253a0
   1a91a:	74 0c                	je     1a928 <Init_IDE+0x6b>
   1a91c:	c7 04 24 35 0d 02 00 	movl   $0x20d35,(%esp)
   1a923:	e8 3e 67 ff ff       	call   11066 <Print>
   1a928:	c7 44 24 04 90 00 00 	movl   $0x90,0x4(%esp)
   1a92f:	00 
   1a930:	c7 04 24 f7 01 00 00 	movl   $0x1f7,(%esp)
   1a937:	e8 f7 5f ff ff       	call   10933 <Out_Byte>
   1a93c:	c7 04 24 f7 01 00 00 	movl   $0x1f7,(%esp)
   1a943:	e8 f7 5f ff ff       	call   1093f <In_Byte>
   1a948:	84 c0                	test   %al,%al
   1a94a:	78 f0                	js     1a93c <Init_IDE+0x7f>
   1a94c:	c7 04 24 f1 01 00 00 	movl   $0x1f1,(%esp)
   1a953:	e8 e7 5f ff ff       	call   1093f <In_Byte>
   1a958:	83 3d a0 53 02 00 01 	cmpl   $0x1,0x253a0
   1a95f:	7e 13                	jle    1a974 <Init_IDE+0xb7>
   1a961:	0f b6 c0             	movzbl %al,%eax
   1a964:	89 44 24 04          	mov    %eax,0x4(%esp)
   1a968:	c7 04 24 53 0d 02 00 	movl   $0x20d53,(%esp)
   1a96f:	e8 f2 66 ff ff       	call   11066 <Print>
   1a974:	b8 00 00 00 00       	mov    $0x0,%eax
   1a979:	e8 60 fd ff ff       	call   1a6de <readDriveConfig>
   1a97e:	85 c0                	test   %eax,%eax
   1a980:	75 07                	jne    1a989 <Init_IDE+0xcc>
   1a982:	83 05 b4 53 02 00 01 	addl   $0x1,0x253b4
   1a989:	b8 01 00 00 00       	mov    $0x1,%eax
   1a98e:	e8 4b fd ff ff       	call   1a6de <readDriveConfig>
   1a993:	85 c0                	test   %eax,%eax
   1a995:	75 07                	jne    1a99e <Init_IDE+0xe1>
   1a997:	83 05 b4 53 02 00 01 	addl   $0x1,0x253b4
   1a99e:	83 3d a0 53 02 00 00 	cmpl   $0x0,0x253a0
   1a9a5:	74 15                	je     1a9bc <Init_IDE+0xff>
   1a9a7:	a1 b4 53 02 00       	mov    0x253b4,%eax
   1a9ac:	89 44 24 04          	mov    %eax,0x4(%esp)
   1a9b0:	c7 04 24 71 0d 02 00 	movl   $0x20d71,(%esp)
   1a9b7:	e8 aa 66 ff ff       	call   11066 <Print>
   1a9bc:	83 3d b4 53 02 00 00 	cmpl   $0x0,0x253b4
   1a9c3:	7e 24                	jle    1a9e9 <Init_IDE+0x12c>
   1a9c5:	c7 44 24 0c 01 00 00 	movl   $0x1,0xc(%esp)
   1a9cc:	00 
   1a9cd:	c7 44 24 08 05 00 00 	movl   $0x5,0x8(%esp)
   1a9d4:	00 
   1a9d5:	c7 44 24 04 00 00 00 	movl   $0x0,0x4(%esp)
   1a9dc:	00 
   1a9dd:	c7 04 24 71 a0 01 00 	movl   $0x1a071,(%esp)
   1a9e4:	e8 05 ae ff ff       	call   157ee <Start_Kernel_Thread>
   1a9e9:	c9                   	leave  
   1a9ea:	c3                   	ret    
   1a9eb:	66 90                	xchg   %ax,%ax
   1a9ed:	66 90                	xchg   %ax,%ax
   1a9ef:	90                   	nop

0001a9f0 <Do_Open_File>:
   1a9f0:	55                   	push   %ebp
   1a9f1:	89 e5                	mov    %esp,%ebp
   1a9f3:	83 ec 28             	sub    $0x28,%esp
   1a9f6:	8b 55 08             	mov    0x8(%ebp),%edx
   1a9f9:	8b 02                	mov    (%edx),%eax
   1a9fb:	8b 00                	mov    (%eax),%eax
   1a9fd:	85 c0                	test   %eax,%eax
   1a9ff:	75 4a                	jne    1aa4b <Do_Open_File+0x5b>
   1aa01:	c7 04 24 4f 00 00 00 	movl   $0x4f,(%esp)
   1aa08:	e8 ae 67 ff ff       	call   111bb <Set_Current_Attr>
   1aa0d:	a1 6c 5e 02 00       	mov    0x25e6c,%eax
   1aa12:	89 44 24 18          	mov    %eax,0x18(%esp)
   1aa16:	8b 45 04             	mov    0x4(%ebp),%eax
   1aa19:	89 44 24 14          	mov    %eax,0x14(%esp)
   1aa1d:	c7 44 24 10 d3 00 00 	movl   $0xd3,0x10(%esp)
   1aa24:	00 
   1aa25:	c7 44 24 0c 2a 0e 02 	movl   $0x20e2a,0xc(%esp)
   1aa2c:	00 
   1aa2d:	c7 44 24 08 3e 0e 02 	movl   $0x20e3e,0x8(%esp)
   1aa34:	00 
   1aa35:	c7 44 24 04 40 11 02 	movl   $0x21140,0x4(%esp)
   1aa3c:	00 
   1aa3d:	c7 04 24 b4 ee 01 00 	movl   $0x1eeb4,(%esp)
   1aa44:	e8 1d 66 ff ff       	call   11066 <Print>
   1aa49:	eb fe                	jmp    1aa49 <Do_Open_File+0x59>
   1aa4b:	8b 4d 14             	mov    0x14(%ebp),%ecx
   1aa4e:	89 4c 24 0c          	mov    %ecx,0xc(%esp)
   1aa52:	8b 4d 10             	mov    0x10(%ebp),%ecx
   1aa55:	89 4c 24 08          	mov    %ecx,0x8(%esp)
   1aa59:	8b 4d 0c             	mov    0xc(%ebp),%ecx
   1aa5c:	89 4c 24 04          	mov    %ecx,0x4(%esp)
   1aa60:	89 14 24             	mov    %edx,(%esp)
   1aa63:	ff d0                	call   *%eax
   1aa65:	c9                   	leave  
   1aa66:	c3                   	ret    

0001aa67 <Do_Open_Directory>:
   1aa67:	55                   	push   %ebp
   1aa68:	89 e5                	mov    %esp,%ebp
   1aa6a:	83 ec 28             	sub    $0x28,%esp
   1aa6d:	8b 55 08             	mov    0x8(%ebp),%edx
   1aa70:	8b 02                	mov    (%edx),%eax
   1aa72:	8b 40 08             	mov    0x8(%eax),%eax
   1aa75:	85 c0                	test   %eax,%eax
   1aa77:	75 4a                	jne    1aac3 <Do_Open_Directory+0x5c>
   1aa79:	c7 04 24 4f 00 00 00 	movl   $0x4f,(%esp)
   1aa80:	e8 36 67 ff ff       	call   111bb <Set_Current_Attr>
   1aa85:	a1 6c 5e 02 00       	mov    0x25e6c,%eax
   1aa8a:	89 44 24 18          	mov    %eax,0x18(%esp)
   1aa8e:	8b 45 04             	mov    0x4(%ebp),%eax
   1aa91:	89 44 24 14          	mov    %eax,0x14(%esp)
   1aa95:	c7 44 24 10 dc 00 00 	movl   $0xdc,0x10(%esp)
   1aa9c:	00 
   1aa9d:	c7 44 24 0c 2a 0e 02 	movl   $0x20e2a,0xc(%esp)
   1aaa4:	00 
   1aaa5:	c7 44 24 08 58 0f 02 	movl   $0x20f58,0x8(%esp)
   1aaac:	00 
   1aaad:	c7 44 24 04 17 11 02 	movl   $0x21117,0x4(%esp)
   1aab4:	00 
   1aab5:	c7 04 24 b4 ee 01 00 	movl   $0x1eeb4,(%esp)
   1aabc:	e8 a5 65 ff ff       	call   11066 <Print>
   1aac1:	eb fe                	jmp    1aac1 <Do_Open_Directory+0x5a>
   1aac3:	8b 4d 14             	mov    0x14(%ebp),%ecx
   1aac6:	89 4c 24 08          	mov    %ecx,0x8(%esp)
   1aaca:	8b 4d 0c             	mov    0xc(%ebp),%ecx
   1aacd:	89 4c 24 04          	mov    %ecx,0x4(%esp)
   1aad1:	89 14 24             	mov    %edx,(%esp)
   1aad4:	ff d0                	call   *%eax
   1aad6:	c9                   	leave  
   1aad7:	c3                   	ret    

0001aad8 <Lookup_Filesystem>:
   1aad8:	55                   	push   %ebp
   1aad9:	89 e5                	mov    %esp,%ebp
   1aadb:	56                   	push   %esi
   1aadc:	53                   	push   %ebx
   1aadd:	83 ec 10             	sub    $0x10,%esp
   1aae0:	89 c6                	mov    %eax,%esi
   1aae2:	c7 04 24 d0 53 02 00 	movl   $0x253d0,(%esp)
   1aae9:	e8 bd 9d ff ff       	call   148ab <Mutex_Lock>
   1aaee:	8b 1d c0 53 02 00    	mov    0x253c0,%ebx
   1aaf4:	85 db                	test   %ebx,%ebx
   1aaf6:	74 1a                	je     1ab12 <Lookup_Filesystem+0x3a>
   1aaf8:	8d 43 04             	lea    0x4(%ebx),%eax
   1aafb:	89 74 24 04          	mov    %esi,0x4(%esp)
   1aaff:	89 04 24             	mov    %eax,(%esp)
   1ab02:	e8 b2 3f 00 00       	call   1eab9 <strcmp>
   1ab07:	85 c0                	test   %eax,%eax
   1ab09:	74 07                	je     1ab12 <Lookup_Filesystem+0x3a>
   1ab0b:	8b 5b 18             	mov    0x18(%ebx),%ebx
   1ab0e:	85 db                	test   %ebx,%ebx
   1ab10:	75 e6                	jne    1aaf8 <Lookup_Filesystem+0x20>
   1ab12:	c7 04 24 d0 53 02 00 	movl   $0x253d0,(%esp)
   1ab19:	e8 ca 9e ff ff       	call   149e8 <Mutex_Unlock>
   1ab1e:	89 d8                	mov    %ebx,%eax
   1ab20:	83 c4 10             	add    $0x10,%esp
   1ab23:	5b                   	pop    %ebx
   1ab24:	5e                   	pop    %esi
   1ab25:	5d                   	pop    %ebp
   1ab26:	c3                   	ret    

0001ab27 <Lookup_Mount_Point>:
   1ab27:	55                   	push   %ebp
   1ab28:	89 e5                	mov    %esp,%ebp
   1ab2a:	56                   	push   %esi
   1ab2b:	53                   	push   %ebx
   1ab2c:	83 ec 10             	sub    $0x10,%esp
   1ab2f:	89 c6                	mov    %eax,%esi
   1ab31:	c7 04 24 d0 53 02 00 	movl   $0x253d0,(%esp)
   1ab38:	e8 6e 9d ff ff       	call   148ab <Mutex_Lock>
   1ab3d:	8b 1d c8 53 02 00    	mov    0x253c8,%ebx
   1ab43:	85 db                	test   %ebx,%ebx
   1ab45:	74 3a                	je     1ab81 <Lookup_Mount_Point+0x5a>
   1ab47:	83 3d b8 53 02 00 00 	cmpl   $0x0,0x253b8
   1ab4e:	74 17                	je     1ab67 <Lookup_Mount_Point+0x40>
   1ab50:	8b 43 04             	mov    0x4(%ebx),%eax
   1ab53:	89 44 24 08          	mov    %eax,0x8(%esp)
   1ab57:	89 74 24 04          	mov    %esi,0x4(%esp)
   1ab5b:	c7 04 24 80 0f 02 00 	movl   $0x20f80,(%esp)
   1ab62:	e8 ff 64 ff ff       	call   11066 <Print>
   1ab67:	8b 43 04             	mov    0x4(%ebx),%eax
   1ab6a:	89 44 24 04          	mov    %eax,0x4(%esp)
   1ab6e:	89 34 24             	mov    %esi,(%esp)
   1ab71:	e8 43 3f 00 00       	call   1eab9 <strcmp>
   1ab76:	85 c0                	test   %eax,%eax
   1ab78:	74 07                	je     1ab81 <Lookup_Mount_Point+0x5a>
   1ab7a:	8b 5b 14             	mov    0x14(%ebx),%ebx
   1ab7d:	85 db                	test   %ebx,%ebx
   1ab7f:	75 c6                	jne    1ab47 <Lookup_Mount_Point+0x20>
   1ab81:	c7 04 24 d0 53 02 00 	movl   $0x253d0,(%esp)
   1ab88:	e8 5b 9e ff ff       	call   149e8 <Mutex_Unlock>
   1ab8d:	89 d8                	mov    %ebx,%eax
   1ab8f:	83 c4 10             	add    $0x10,%esp
   1ab92:	5b                   	pop    %ebx
   1ab93:	5e                   	pop    %esi
   1ab94:	5d                   	pop    %ebp
   1ab95:	c3                   	ret    

0001ab96 <Unpack_Path>:
   1ab96:	55                   	push   %ebp
   1ab97:	89 e5                	mov    %esp,%ebp
   1ab99:	57                   	push   %edi
   1ab9a:	56                   	push   %esi
   1ab9b:	53                   	push   %ebx
   1ab9c:	83 ec 3c             	sub    $0x3c,%esp
   1ab9f:	89 c6                	mov    %eax,%esi
   1aba1:	89 55 e4             	mov    %edx,-0x1c(%ebp)
   1aba4:	89 cb                	mov    %ecx,%ebx
   1aba6:	83 3d b8 53 02 00 00 	cmpl   $0x0,0x253b8
   1abad:	74 10                	je     1abbf <Unpack_Path+0x29>
   1abaf:	89 44 24 04          	mov    %eax,0x4(%esp)
   1abb3:	c7 04 24 59 0e 02 00 	movl   $0x20e59,(%esp)
   1abba:	e8 a7 64 ff ff       	call   11066 <Print>
   1abbf:	b8 00 00 00 00       	mov    $0x0,%eax
   1abc4:	80 3e 2f             	cmpb   $0x2f,(%esi)
   1abc7:	0f 85 f4 00 00 00    	jne    1acc1 <Unpack_Path+0x12b>
   1abcd:	83 c6 01             	add    $0x1,%esi
   1abd0:	c7 44 24 04 2f 00 00 	movl   $0x2f,0x4(%esp)
   1abd7:	00 
   1abd8:	89 34 24             	mov    %esi,(%esp)
   1abdb:	e8 dd 40 00 00       	call   1ecbd <strchr>
   1abe0:	89 45 e0             	mov    %eax,-0x20(%ebp)
   1abe3:	85 c0                	test   %eax,%eax
   1abe5:	75 30                	jne    1ac17 <Unpack_Path+0x81>
   1abe7:	89 f7                	mov    %esi,%edi
   1abe9:	b9 ff ff ff ff       	mov    $0xffffffff,%ecx
   1abee:	f2 ae                	repnz scas %es:(%edi),%al
   1abf0:	f7 d1                	not    %ecx
   1abf2:	89 ca                	mov    %ecx,%edx
   1abf4:	83 ea 02             	sub    $0x2,%edx
   1abf7:	83 fa 0f             	cmp    $0xf,%edx
   1abfa:	0f 87 c1 00 00 00    	ja     1acc1 <Unpack_Path+0x12b>
   1ac00:	89 74 24 04          	mov    %esi,0x4(%esp)
   1ac04:	8b 45 e4             	mov    -0x1c(%ebp),%eax
   1ac07:	89 04 24             	mov    %eax,(%esp)
   1ac0a:	e8 c8 3f 00 00       	call   1ebd7 <strcpy>
   1ac0f:	c7 03 67 0e 02 00    	movl   $0x20e67,(%ebx)
   1ac15:	eb 32                	jmp    1ac49 <Unpack_Path+0xb3>
   1ac17:	8b 7d e0             	mov    -0x20(%ebp),%edi
   1ac1a:	29 f7                	sub    %esi,%edi
   1ac1c:	8d 57 ff             	lea    -0x1(%edi),%edx
   1ac1f:	b8 00 00 00 00       	mov    $0x0,%eax
   1ac24:	83 fa 0f             	cmp    $0xf,%edx
   1ac27:	0f 87 94 00 00 00    	ja     1acc1 <Unpack_Path+0x12b>
   1ac2d:	89 7c 24 08          	mov    %edi,0x8(%esp)
   1ac31:	89 74 24 04          	mov    %esi,0x4(%esp)
   1ac35:	8b 75 e4             	mov    -0x1c(%ebp),%esi
   1ac38:	89 34 24             	mov    %esi,(%esp)
   1ac3b:	e8 b3 3d 00 00       	call   1e9f3 <memcpy>
   1ac40:	c6 04 3e 00          	movb   $0x0,(%esi,%edi,1)
   1ac44:	8b 45 e0             	mov    -0x20(%ebp),%eax
   1ac47:	89 03                	mov    %eax,(%ebx)
   1ac49:	83 3d b8 53 02 00 00 	cmpl   $0x0,0x253b8
   1ac50:	74 19                	je     1ac6b <Unpack_Path+0xd5>
   1ac52:	8b 03                	mov    (%ebx),%eax
   1ac54:	89 44 24 08          	mov    %eax,0x8(%esp)
   1ac58:	8b 45 e4             	mov    -0x1c(%ebp),%eax
   1ac5b:	89 44 24 04          	mov    %eax,0x4(%esp)
   1ac5f:	c7 04 24 69 0e 02 00 	movl   $0x20e69,(%esp)
   1ac66:	e8 fb 63 ff ff       	call   11066 <Print>
   1ac6b:	8b 03                	mov    (%ebx),%eax
   1ac6d:	80 38 2f             	cmpb   $0x2f,(%eax)
   1ac70:	74 4a                	je     1acbc <Unpack_Path+0x126>
   1ac72:	c7 04 24 4f 00 00 00 	movl   $0x4f,(%esp)
   1ac79:	e8 3d 65 ff ff       	call   111bb <Set_Current_Attr>
   1ac7e:	a1 6c 5e 02 00       	mov    0x25e6c,%eax
   1ac83:	89 44 24 18          	mov    %eax,0x18(%esp)
   1ac87:	8b 45 04             	mov    0x4(%ebp),%eax
   1ac8a:	89 44 24 14          	mov    %eax,0x14(%esp)
   1ac8e:	c7 44 24 10 7a 00 00 	movl   $0x7a,0x10(%esp)
   1ac95:	00 
   1ac96:	c7 44 24 0c 2a 0e 02 	movl   $0x20e2a,0xc(%esp)
   1ac9d:	00 
   1ac9e:	c7 44 24 08 84 0e 02 	movl   $0x20e84,0x8(%esp)
   1aca5:	00 
   1aca6:	c7 44 24 04 34 11 02 	movl   $0x21134,0x4(%esp)
   1acad:	00 
   1acae:	c7 04 24 b4 ee 01 00 	movl   $0x1eeb4,(%esp)
   1acb5:	e8 ac 63 ff ff       	call   11066 <Print>
   1acba:	eb fe                	jmp    1acba <Unpack_Path+0x124>
   1acbc:	b8 01 00 00 00       	mov    $0x1,%eax
   1acc1:	83 c4 3c             	add    $0x3c,%esp
   1acc4:	5b                   	pop    %ebx
   1acc5:	5e                   	pop    %esi
   1acc6:	5f                   	pop    %edi
   1acc7:	5d                   	pop    %ebp
   1acc8:	c3                   	ret    

0001acc9 <Do_Open>:
   1acc9:	55                   	push   %ebp
   1acca:	89 e5                	mov    %esp,%ebp
   1accc:	57                   	push   %edi
   1accd:	56                   	push   %esi
   1acce:	53                   	push   %ebx
   1accf:	83 ec 3c             	sub    $0x3c,%esp
   1acd2:	89 d7                	mov    %edx,%edi
   1acd4:	89 ce                	mov    %ecx,%esi
   1acd6:	8d 4d d0             	lea    -0x30(%ebp),%ecx
   1acd9:	8d 55 d7             	lea    -0x29(%ebp),%edx
   1acdc:	e8 b5 fe ff ff       	call   1ab96 <Unpack_Path>
   1ace1:	84 c0                	test   %al,%al
   1ace3:	74 37                	je     1ad1c <Do_Open+0x53>
   1ace5:	8d 45 d7             	lea    -0x29(%ebp),%eax
   1ace8:	e8 3a fe ff ff       	call   1ab27 <Lookup_Mount_Point>
   1aced:	89 c3                	mov    %eax,%ebx
   1acef:	85 c0                	test   %eax,%eax
   1acf1:	74 30                	je     1ad23 <Do_Open+0x5a>
   1acf3:	89 74 24 0c          	mov    %esi,0xc(%esp)
   1acf7:	89 7c 24 08          	mov    %edi,0x8(%esp)
   1acfb:	8b 45 d0             	mov    -0x30(%ebp),%eax
   1acfe:	89 44 24 04          	mov    %eax,0x4(%esp)
   1ad02:	89 1c 24             	mov    %ebx,(%esp)
   1ad05:	ff 55 08             	call   *0x8(%ebp)
   1ad08:	89 c2                	mov    %eax,%edx
   1ad0a:	85 d2                	test   %edx,%edx
   1ad0c:	75 1a                	jne    1ad28 <Do_Open+0x5f>
   1ad0e:	8b 06                	mov    (%esi),%eax
   1ad10:	89 78 10             	mov    %edi,0x10(%eax)
   1ad13:	8b 06                	mov    (%esi),%eax
   1ad15:	89 58 14             	mov    %ebx,0x14(%eax)
   1ad18:	89 d0                	mov    %edx,%eax
   1ad1a:	eb 0c                	jmp    1ad28 <Do_Open+0x5f>
   1ad1c:	b8 fe ff ff ff       	mov    $0xfffffffe,%eax
   1ad21:	eb 05                	jmp    1ad28 <Do_Open+0x5f>
   1ad23:	b8 fe ff ff ff       	mov    $0xfffffffe,%eax
   1ad28:	83 c4 3c             	add    $0x3c,%esp
   1ad2b:	5b                   	pop    %ebx
   1ad2c:	5e                   	pop    %esi
   1ad2d:	5f                   	pop    %edi
   1ad2e:	5d                   	pop    %ebp
   1ad2f:	c3                   	ret    

0001ad30 <Register_Filesystem>:
   1ad30:	55                   	push   %ebp
   1ad31:	89 e5                	mov    %esp,%ebp
   1ad33:	57                   	push   %edi
   1ad34:	56                   	push   %esi
   1ad35:	53                   	push   %ebx
   1ad36:	83 ec 2c             	sub    $0x2c,%esp
   1ad39:	8b 75 08             	mov    0x8(%ebp),%esi
   1ad3c:	8b 7d 0c             	mov    0xc(%ebp),%edi
   1ad3f:	85 f6                	test   %esi,%esi
   1ad41:	75 4a                	jne    1ad8d <Register_Filesystem+0x5d>
   1ad43:	c7 04 24 4f 00 00 00 	movl   $0x4f,(%esp)
   1ad4a:	e8 6c 64 ff ff       	call   111bb <Set_Current_Attr>
   1ad4f:	a1 6c 5e 02 00       	mov    0x25e6c,%eax
   1ad54:	89 44 24 18          	mov    %eax,0x18(%esp)
   1ad58:	8b 45 04             	mov    0x4(%ebp),%eax
   1ad5b:	89 44 24 14          	mov    %eax,0x14(%esp)
   1ad5f:	c7 44 24 10 f1 00 00 	movl   $0xf1,0x10(%esp)
   1ad66:	00 
   1ad67:	c7 44 24 0c 2a 0e 02 	movl   $0x20e2a,0xc(%esp)
   1ad6e:	00 
   1ad6f:	c7 44 24 08 95 0e 02 	movl   $0x20e95,0x8(%esp)
   1ad76:	00 
   1ad77:	c7 44 24 04 a7 11 02 	movl   $0x211a7,0x4(%esp)
   1ad7e:	00 
   1ad7f:	c7 04 24 b4 ee 01 00 	movl   $0x1eeb4,(%esp)
   1ad86:	e8 db 62 ff ff       	call   11066 <Print>
   1ad8b:	eb fe                	jmp    1ad8b <Register_Filesystem+0x5b>
   1ad8d:	85 ff                	test   %edi,%edi
   1ad8f:	75 4a                	jne    1addb <Register_Filesystem+0xab>
   1ad91:	c7 04 24 4f 00 00 00 	movl   $0x4f,(%esp)
   1ad98:	e8 1e 64 ff ff       	call   111bb <Set_Current_Attr>
   1ad9d:	a1 6c 5e 02 00       	mov    0x25e6c,%eax
   1ada2:	89 44 24 18          	mov    %eax,0x18(%esp)
   1ada6:	8b 45 04             	mov    0x4(%ebp),%eax
   1ada9:	89 44 24 14          	mov    %eax,0x14(%esp)
   1adad:	c7 44 24 10 f2 00 00 	movl   $0xf2,0x10(%esp)
   1adb4:	00 
   1adb5:	c7 44 24 0c 2a 0e 02 	movl   $0x20e2a,0xc(%esp)
   1adbc:	00 
   1adbd:	c7 44 24 08 a1 0e 02 	movl   $0x20ea1,0x8(%esp)
   1adc4:	00 
   1adc5:	c7 44 24 04 a7 11 02 	movl   $0x211a7,0x4(%esp)
   1adcc:	00 
   1adcd:	c7 04 24 b4 ee 01 00 	movl   $0x1eeb4,(%esp)
   1add4:	e8 8d 62 ff ff       	call   11066 <Print>
   1add9:	eb fe                	jmp    1add9 <Register_Filesystem+0xa9>
   1addb:	83 7f 04 00          	cmpl   $0x0,0x4(%edi)
   1addf:	75 4a                	jne    1ae2b <Register_Filesystem+0xfb>
   1ade1:	c7 04 24 4f 00 00 00 	movl   $0x4f,(%esp)
   1ade8:	e8 ce 63 ff ff       	call   111bb <Set_Current_Attr>
   1aded:	a1 6c 5e 02 00       	mov    0x25e6c,%eax
   1adf2:	89 44 24 18          	mov    %eax,0x18(%esp)
   1adf6:	8b 45 04             	mov    0x4(%ebp),%eax
   1adf9:	89 44 24 14          	mov    %eax,0x14(%esp)
   1adfd:	c7 44 24 10 f3 00 00 	movl   $0xf3,0x10(%esp)
   1ae04:	00 
   1ae05:	c7 44 24 0c 2a 0e 02 	movl   $0x20e2a,0xc(%esp)
   1ae0c:	00 
   1ae0d:	c7 44 24 08 ac 0e 02 	movl   $0x20eac,0x8(%esp)
   1ae14:	00 
   1ae15:	c7 44 24 04 a7 11 02 	movl   $0x211a7,0x4(%esp)
   1ae1c:	00 
   1ae1d:	c7 04 24 b4 ee 01 00 	movl   $0x1eeb4,(%esp)
   1ae24:	e8 3d 62 ff ff       	call   11066 <Print>
   1ae29:	eb fe                	jmp    1ae29 <Register_Filesystem+0xf9>
   1ae2b:	83 3d b8 53 02 00 00 	cmpl   $0x0,0x253b8
   1ae32:	74 10                	je     1ae44 <Register_Filesystem+0x114>
   1ae34:	89 74 24 04          	mov    %esi,0x4(%esp)
   1ae38:	c7 04 24 a0 0f 02 00 	movl   $0x20fa0,(%esp)
   1ae3f:	e8 22 62 ff ff       	call   11066 <Print>
   1ae44:	c7 04 24 1c 00 00 00 	movl   $0x1c,(%esp)
   1ae4b:	e8 ea 95 ff ff       	call   1443a <Malloc>
   1ae50:	89 c3                	mov    %eax,%ebx
   1ae52:	85 c0                	test   %eax,%eax
   1ae54:	0f 84 7e 00 00 00    	je     1aed8 <Register_Filesystem+0x1a8>
   1ae5a:	89 38                	mov    %edi,(%eax)
   1ae5c:	c7 44 24 08 0f 00 00 	movl   $0xf,0x8(%esp)
   1ae63:	00 
   1ae64:	89 74 24 04          	mov    %esi,0x4(%esp)
   1ae68:	8d 40 04             	lea    0x4(%eax),%eax
   1ae6b:	89 04 24             	mov    %eax,(%esp)
   1ae6e:	e8 91 3d 00 00       	call   1ec04 <strncpy>
   1ae73:	c6 43 13 00          	movb   $0x0,0x13(%ebx)
   1ae77:	c7 04 24 d0 53 02 00 	movl   $0x253d0,(%esp)
   1ae7e:	e8 28 9a ff ff       	call   148ab <Mutex_Lock>
   1ae83:	a1 c0 53 02 00       	mov    0x253c0,%eax
   1ae88:	85 c0                	test   %eax,%eax
   1ae8a:	74 53                	je     1aedf <Register_Filesystem+0x1af>
   1ae8c:	39 c3                	cmp    %eax,%ebx
   1ae8e:	75 06                	jne    1ae96 <Register_Filesystem+0x166>
   1ae90:	eb 5f                	jmp    1aef1 <Register_Filesystem+0x1c1>
   1ae92:	39 c3                	cmp    %eax,%ebx
   1ae94:	74 5b                	je     1aef1 <Register_Filesystem+0x1c1>
   1ae96:	8b 40 18             	mov    0x18(%eax),%eax
   1ae99:	85 c0                	test   %eax,%eax
   1ae9b:	75 f5                	jne    1ae92 <Register_Filesystem+0x162>
   1ae9d:	8d 76 00             	lea    0x0(%esi),%esi
   1aea0:	eb 3d                	jmp    1aedf <Register_Filesystem+0x1af>
   1aea2:	eb fe                	jmp    1aea2 <Register_Filesystem+0x172>
   1aea4:	89 1d c4 53 02 00    	mov    %ebx,0x253c4
   1aeaa:	89 1d c0 53 02 00    	mov    %ebx,0x253c0
   1aeb0:	c7 43 14 00 00 00 00 	movl   $0x0,0x14(%ebx)
   1aeb7:	eb 0c                	jmp    1aec5 <Register_Filesystem+0x195>
   1aeb9:	89 58 18             	mov    %ebx,0x18(%eax)
   1aebc:	89 43 14             	mov    %eax,0x14(%ebx)
   1aebf:	89 1d c4 53 02 00    	mov    %ebx,0x253c4
   1aec5:	c7 04 24 d0 53 02 00 	movl   $0x253d0,(%esp)
   1aecc:	e8 17 9b ff ff       	call   149e8 <Mutex_Unlock>
   1aed1:	b8 01 00 00 00       	mov    $0x1,%eax
   1aed6:	eb 66                	jmp    1af3e <Register_Filesystem+0x20e>
   1aed8:	b8 00 00 00 00       	mov    $0x0,%eax
   1aedd:	eb 5f                	jmp    1af3e <Register_Filesystem+0x20e>
   1aedf:	c7 43 18 00 00 00 00 	movl   $0x0,0x18(%ebx)
   1aee6:	a1 c4 53 02 00       	mov    0x253c4,%eax
   1aeeb:	85 c0                	test   %eax,%eax
   1aeed:	75 ca                	jne    1aeb9 <Register_Filesystem+0x189>
   1aeef:	eb b3                	jmp    1aea4 <Register_Filesystem+0x174>
   1aef1:	c7 04 24 4f 00 00 00 	movl   $0x4f,(%esp)
   1aef8:	e8 be 62 ff ff       	call   111bb <Set_Current_Attr>
   1aefd:	a1 6c 5e 02 00       	mov    0x25e6c,%eax
   1af02:	89 44 24 18          	mov    %eax,0x18(%esp)
   1af06:	8b 45 04             	mov    0x4(%ebp),%eax
   1af09:	89 44 24 14          	mov    %eax,0x14(%esp)
   1af0d:	c7 44 24 10 37 00 00 	movl   $0x37,0x10(%esp)
   1af14:	00 
   1af15:	c7 44 24 0c 2a 0e 02 	movl   $0x20e2a,0xc(%esp)
   1af1c:	00 
   1af1d:	c7 44 24 08 c8 0f 02 	movl   $0x20fc8,0x8(%esp)
   1af24:	00 
   1af25:	c7 44 24 04 88 11 02 	movl   $0x21188,0x4(%esp)
   1af2c:	00 
   1af2d:	c7 04 24 b4 ee 01 00 	movl   $0x1eeb4,(%esp)
   1af34:	e8 2d 61 ff ff       	call   11066 <Print>
   1af39:	e9 64 ff ff ff       	jmp    1aea2 <Register_Filesystem+0x172>
   1af3e:	83 c4 2c             	add    $0x2c,%esp
   1af41:	5b                   	pop    %ebx
   1af42:	5e                   	pop    %esi
   1af43:	5f                   	pop    %edi
   1af44:	5d                   	pop    %ebp
   1af45:	c3                   	ret    

0001af46 <Format>:
   1af46:	55                   	push   %ebp
   1af47:	89 e5                	mov    %esp,%ebp
   1af49:	56                   	push   %esi
   1af4a:	53                   	push   %ebx
   1af4b:	83 ec 20             	sub    $0x20,%esp
   1af4e:	8b 75 0c             	mov    0xc(%ebp),%esi
   1af51:	c7 45 f4 00 00 00 00 	movl   $0x0,-0xc(%ebp)
   1af58:	89 f0                	mov    %esi,%eax
   1af5a:	e8 79 fb ff ff       	call   1aad8 <Lookup_Filesystem>
   1af5f:	89 c3                	mov    %eax,%ebx
   1af61:	85 c0                	test   %eax,%eax
   1af63:	74 6d                	je     1afd2 <Format+0x8c>
   1af65:	83 3d b8 53 02 00 00 	cmpl   $0x0,0x253b8
   1af6c:	74 10                	je     1af7e <Format+0x38>
   1af6e:	89 74 24 04          	mov    %esi,0x4(%esp)
   1af72:	c7 04 24 f8 0f 02 00 	movl   $0x20ff8,(%esp)
   1af79:	e8 e8 60 ff ff       	call   11066 <Print>
   1af7e:	8b 03                	mov    (%ebx),%eax
   1af80:	83 38 00             	cmpl   $0x0,(%eax)
   1af83:	74 54                	je     1afd9 <Format+0x93>
   1af85:	8d 45 f4             	lea    -0xc(%ebp),%eax
   1af88:	89 44 24 04          	mov    %eax,0x4(%esp)
   1af8c:	8b 45 08             	mov    0x8(%ebp),%eax
   1af8f:	89 04 24             	mov    %eax,(%esp)
   1af92:	e8 14 e9 ff ff       	call   198ab <Open_Block_Device>
   1af97:	85 c0                	test   %eax,%eax
   1af99:	78 43                	js     1afde <Format+0x98>
   1af9b:	83 3d b8 53 02 00 00 	cmpl   $0x0,0x253b8
   1afa2:	74 13                	je     1afb7 <Format+0x71>
   1afa4:	8b 45 f4             	mov    -0xc(%ebp),%eax
   1afa7:	89 44 24 04          	mov    %eax,0x4(%esp)
   1afab:	c7 04 24 be 0e 02 00 	movl   $0x20ebe,(%esp)
   1afb2:	e8 af 60 ff ff       	call   11066 <Print>
   1afb7:	8b 03                	mov    (%ebx),%eax
   1afb9:	8b 55 f4             	mov    -0xc(%ebp),%edx
   1afbc:	89 14 24             	mov    %edx,(%esp)
   1afbf:	ff 10                	call   *(%eax)
   1afc1:	89 c3                	mov    %eax,%ebx
   1afc3:	8b 45 f4             	mov    -0xc(%ebp),%eax
   1afc6:	89 04 24             	mov    %eax,(%esp)
   1afc9:	e8 6c e9 ff ff       	call   1993a <Close_Block_Device>
   1afce:	89 d8                	mov    %ebx,%eax
   1afd0:	eb 0c                	jmp    1afde <Format+0x98>
   1afd2:	b8 f8 ff ff ff       	mov    $0xfffffff8,%eax
   1afd7:	eb 05                	jmp    1afde <Format+0x98>
   1afd9:	b8 fd ff ff ff       	mov    $0xfffffffd,%eax
   1afde:	83 c4 20             	add    $0x20,%esp
   1afe1:	5b                   	pop    %ebx
   1afe2:	5e                   	pop    %esi
   1afe3:	5d                   	pop    %ebp
   1afe4:	c3                   	ret    

0001afe5 <Mount>:
   1afe5:	55                   	push   %ebp
   1afe6:	89 e5                	mov    %esp,%ebp
   1afe8:	57                   	push   %edi
   1afe9:	56                   	push   %esi
   1afea:	53                   	push   %ebx
   1afeb:	83 ec 3c             	sub    $0x3c,%esp
   1afee:	8b 5d 0c             	mov    0xc(%ebp),%ebx
   1aff1:	c7 45 e4 00 00 00 00 	movl   $0x0,-0x1c(%ebp)
   1aff8:	80 3b 2f             	cmpb   $0x2f,(%ebx)
   1affb:	75 08                	jne    1b005 <Mount+0x20>
   1affd:	83 c3 01             	add    $0x1,%ebx
   1b000:	80 3b 2f             	cmpb   $0x2f,(%ebx)
   1b003:	74 f8                	je     1affd <Mount+0x18>
   1b005:	89 df                	mov    %ebx,%edi
   1b007:	b8 00 00 00 00       	mov    $0x0,%eax
   1b00c:	b9 ff ff ff ff       	mov    $0xffffffff,%ecx
   1b011:	f2 ae                	repnz scas %es:(%edi),%al
   1b013:	89 c8                	mov    %ecx,%eax
   1b015:	f7 d0                	not    %eax
   1b017:	83 e8 01             	sub    $0x1,%eax
   1b01a:	83 f8 10             	cmp    $0x10,%eax
   1b01d:	0f 87 05 02 00 00    	ja     1b228 <Mount+0x243>
   1b023:	8b 45 10             	mov    0x10(%ebp),%eax
   1b026:	e8 ad fa ff ff       	call   1aad8 <Lookup_Filesystem>
   1b02b:	89 c7                	mov    %eax,%edi
   1b02d:	85 c0                	test   %eax,%eax
   1b02f:	0f 84 fd 01 00 00    	je     1b232 <Mount+0x24d>
   1b035:	8b 00                	mov    (%eax),%eax
   1b037:	83 78 04 00          	cmpl   $0x0,0x4(%eax)
   1b03b:	75 4a                	jne    1b087 <Mount+0xa2>
   1b03d:	c7 04 24 4f 00 00 00 	movl   $0x4f,(%esp)
   1b044:	e8 72 61 ff ff       	call   111bb <Set_Current_Attr>
   1b049:	a1 6c 5e 02 00       	mov    0x25e6c,%eax
   1b04e:	89 44 24 18          	mov    %eax,0x18(%esp)
   1b052:	8b 45 04             	mov    0x4(%ebp),%eax
   1b055:	89 44 24 14          	mov    %eax,0x14(%esp)
   1b059:	c7 44 24 10 47 01 00 	movl   $0x147,0x10(%esp)
   1b060:	00 
   1b061:	c7 44 24 0c 2a 0e 02 	movl   $0x20e2a,0xc(%esp)
   1b068:	00 
   1b069:	c7 44 24 08 d5 0e 02 	movl   $0x20ed5,0x8(%esp)
   1b070:	00 
   1b071:	c7 44 24 04 80 11 02 	movl   $0x21180,0x4(%esp)
   1b078:	00 
   1b079:	c7 04 24 b4 ee 01 00 	movl   $0x1eeb4,(%esp)
   1b080:	e8 e1 5f ff ff       	call   11066 <Print>
   1b085:	eb fe                	jmp    1b085 <Mount+0xa0>
   1b087:	8d 45 e4             	lea    -0x1c(%ebp),%eax
   1b08a:	89 44 24 04          	mov    %eax,0x4(%esp)
   1b08e:	8b 45 08             	mov    0x8(%ebp),%eax
   1b091:	89 04 24             	mov    %eax,(%esp)
   1b094:	e8 12 e8 ff ff       	call   198ab <Open_Block_Device>
   1b099:	85 c0                	test   %eax,%eax
   1b09b:	0f 88 98 01 00 00    	js     1b239 <Mount+0x254>
   1b0a1:	c7 04 24 18 00 00 00 	movl   $0x18,(%esp)
   1b0a8:	e8 8d 93 ff ff       	call   1443a <Malloc>
   1b0ad:	89 c6                	mov    %eax,%esi
   1b0af:	85 c0                	test   %eax,%eax
   1b0b1:	0f 84 50 01 00 00    	je     1b207 <Mount+0x222>
   1b0b7:	ba 18 00 00 00       	mov    $0x18,%edx
   1b0bc:	f7 c6 01 00 00 00    	test   $0x1,%esi
   1b0c2:	74 08                	je     1b0cc <Mount+0xe7>
   1b0c4:	c6 06 00             	movb   $0x0,(%esi)
   1b0c7:	8d 46 01             	lea    0x1(%esi),%eax
   1b0ca:	b2 17                	mov    $0x17,%dl
   1b0cc:	a8 02                	test   $0x2,%al
   1b0ce:	74 0b                	je     1b0db <Mount+0xf6>
   1b0d0:	66 c7 00 00 00       	movw   $0x0,(%eax)
   1b0d5:	83 c0 02             	add    $0x2,%eax
   1b0d8:	83 ea 02             	sub    $0x2,%edx
   1b0db:	89 d1                	mov    %edx,%ecx
   1b0dd:	83 e1 fc             	and    $0xfffffffc,%ecx
   1b0e0:	89 4d d4             	mov    %ecx,-0x2c(%ebp)
   1b0e3:	b9 00 00 00 00       	mov    $0x0,%ecx
   1b0e8:	c7 04 08 00 00 00 00 	movl   $0x0,(%eax,%ecx,1)
   1b0ef:	83 c1 04             	add    $0x4,%ecx
   1b0f2:	3b 4d d4             	cmp    -0x2c(%ebp),%ecx
   1b0f5:	72 f1                	jb     1b0e8 <Mount+0x103>
   1b0f7:	01 c8                	add    %ecx,%eax
   1b0f9:	f6 c2 02             	test   $0x2,%dl
   1b0fc:	74 08                	je     1b106 <Mount+0x121>
   1b0fe:	66 c7 00 00 00       	movw   $0x0,(%eax)
   1b103:	83 c0 02             	add    $0x2,%eax
   1b106:	f6 c2 01             	test   $0x1,%dl
   1b109:	74 03                	je     1b10e <Mount+0x129>
   1b10b:	c6 00 00             	movb   $0x0,(%eax)
   1b10e:	8b 45 e4             	mov    -0x1c(%ebp),%eax
   1b111:	89 46 08             	mov    %eax,0x8(%esi)
   1b114:	89 1c 24             	mov    %ebx,(%esp)
   1b117:	e8 2d 3b 00 00       	call   1ec49 <strdup>
   1b11c:	89 46 04             	mov    %eax,0x4(%esi)
   1b11f:	85 c0                	test   %eax,%eax
   1b121:	0f 84 d1 00 00 00    	je     1b1f8 <Mount+0x213>
   1b127:	83 3d b8 53 02 00 00 	cmpl   $0x0,0x253b8
   1b12e:	74 1e                	je     1b14e <Mount+0x169>
   1b130:	8b 45 10             	mov    0x10(%ebp),%eax
   1b133:	89 44 24 0c          	mov    %eax,0xc(%esp)
   1b137:	89 5c 24 08          	mov    %ebx,0x8(%esp)
   1b13b:	8b 45 08             	mov    0x8(%ebp),%eax
   1b13e:	89 44 24 04          	mov    %eax,0x4(%esp)
   1b142:	c7 04 24 18 10 02 00 	movl   $0x21018,(%esp)
   1b149:	e8 18 5f ff ff       	call   11066 <Print>
   1b14e:	8b 07                	mov    (%edi),%eax
   1b150:	89 34 24             	mov    %esi,(%esp)
   1b153:	ff 50 04             	call   *0x4(%eax)
   1b156:	89 c3                	mov    %eax,%ebx
   1b158:	85 c0                	test   %eax,%eax
   1b15a:	0f 88 43 01 00 00    	js     1b2a3 <Mount+0x2be>
   1b160:	83 3d b8 53 02 00 00 	cmpl   $0x0,0x253b8
   1b167:	74 0c                	je     1b175 <Mount+0x190>
   1b169:	c7 04 24 e9 0e 02 00 	movl   $0x20ee9,(%esp)
   1b170:	e8 f1 5e ff ff       	call   11066 <Print>
   1b175:	c7 04 24 d0 53 02 00 	movl   $0x253d0,(%esp)
   1b17c:	e8 2a 97 ff ff       	call   148ab <Mutex_Lock>
   1b181:	a1 c8 53 02 00       	mov    0x253c8,%eax
   1b186:	85 c0                	test   %eax,%eax
   1b188:	0f 84 fc 00 00 00    	je     1b28a <Mount+0x2a5>
   1b18e:	39 c6                	cmp    %eax,%esi
   1b190:	75 14                	jne    1b1a6 <Mount+0x1c1>
   1b192:	e9 a6 00 00 00       	jmp    1b23d <Mount+0x258>
   1b197:	39 c6                	cmp    %eax,%esi
   1b199:	8d b4 26 00 00 00 00 	lea    0x0(%esi,%eiz,1),%esi
   1b1a0:	0f 84 97 00 00 00    	je     1b23d <Mount+0x258>
   1b1a6:	8b 40 14             	mov    0x14(%eax),%eax
   1b1a9:	85 c0                	test   %eax,%eax
   1b1ab:	75 ea                	jne    1b197 <Mount+0x1b2>
   1b1ad:	8d 76 00             	lea    0x0(%esi),%esi
   1b1b0:	e9 d5 00 00 00       	jmp    1b28a <Mount+0x2a5>
   1b1b5:	eb fe                	jmp    1b1b5 <Mount+0x1d0>
   1b1b7:	89 35 cc 53 02 00    	mov    %esi,0x253cc
   1b1bd:	89 35 c8 53 02 00    	mov    %esi,0x253c8
   1b1c3:	c7 46 10 00 00 00 00 	movl   $0x0,0x10(%esi)
   1b1ca:	eb 0c                	jmp    1b1d8 <Mount+0x1f3>
   1b1cc:	89 70 14             	mov    %esi,0x14(%eax)
   1b1cf:	89 46 10             	mov    %eax,0x10(%esi)
   1b1d2:	89 35 cc 53 02 00    	mov    %esi,0x253cc
   1b1d8:	c7 04 24 d0 53 02 00 	movl   $0x253d0,(%esp)
   1b1df:	e8 04 98 ff ff       	call   149e8 <Mutex_Unlock>
   1b1e4:	ba 00 00 00 00       	mov    $0x0,%edx
   1b1e9:	e9 c7 00 00 00       	jmp    1b2b5 <Mount+0x2d0>
   1b1ee:	89 04 24             	mov    %eax,(%esp)
   1b1f1:	e8 d6 93 ff ff       	call   145cc <Free>
   1b1f6:	eb 05                	jmp    1b1fd <Mount+0x218>
   1b1f8:	bb f9 ff ff ff       	mov    $0xfffffff9,%ebx
   1b1fd:	89 34 24             	mov    %esi,(%esp)
   1b200:	e8 c7 93 ff ff       	call   145cc <Free>
   1b205:	eb 05                	jmp    1b20c <Mount+0x227>
   1b207:	bb f9 ff ff ff       	mov    $0xfffffff9,%ebx
   1b20c:	8b 45 e4             	mov    -0x1c(%ebp),%eax
   1b20f:	89 da                	mov    %ebx,%edx
   1b211:	85 c0                	test   %eax,%eax
   1b213:	0f 84 9c 00 00 00    	je     1b2b5 <Mount+0x2d0>
   1b219:	89 04 24             	mov    %eax,(%esp)
   1b21c:	e8 19 e7 ff ff       	call   1993a <Close_Block_Device>
   1b221:	89 da                	mov    %ebx,%edx
   1b223:	e9 8d 00 00 00       	jmp    1b2b5 <Mount+0x2d0>
   1b228:	ba f7 ff ff ff       	mov    $0xfffffff7,%edx
   1b22d:	e9 83 00 00 00       	jmp    1b2b5 <Mount+0x2d0>
   1b232:	ba f8 ff ff ff       	mov    $0xfffffff8,%edx
   1b237:	eb 7c                	jmp    1b2b5 <Mount+0x2d0>
   1b239:	89 c2                	mov    %eax,%edx
   1b23b:	eb 78                	jmp    1b2b5 <Mount+0x2d0>
   1b23d:	c7 04 24 4f 00 00 00 	movl   $0x4f,(%esp)
   1b244:	e8 72 5f ff ff       	call   111bb <Set_Current_Attr>
   1b249:	a1 6c 5e 02 00       	mov    0x25e6c,%eax
   1b24e:	89 44 24 18          	mov    %eax,0x18(%esp)
   1b252:	8b 45 04             	mov    0x4(%ebp),%eax
   1b255:	89 44 24 14          	mov    %eax,0x14(%esp)
   1b259:	c7 44 24 10 2a 00 00 	movl   $0x2a,0x10(%esp)
   1b260:	00 
   1b261:	c7 44 24 0c 2a 0e 02 	movl   $0x20e2a,0xc(%esp)
   1b268:	00 
   1b269:	c7 44 24 08 3c 10 02 	movl   $0x2103c,0x8(%esp)
   1b270:	00 
   1b271:	c7 44 24 04 60 11 02 	movl   $0x21160,0x4(%esp)
   1b278:	00 
   1b279:	c7 04 24 b4 ee 01 00 	movl   $0x1eeb4,(%esp)
   1b280:	e8 e1 5d ff ff       	call   11066 <Print>
   1b285:	e9 2b ff ff ff       	jmp    1b1b5 <Mount+0x1d0>
   1b28a:	c7 46 14 00 00 00 00 	movl   $0x0,0x14(%esi)
   1b291:	a1 cc 53 02 00       	mov    0x253cc,%eax
   1b296:	85 c0                	test   %eax,%eax
   1b298:	0f 85 2e ff ff ff    	jne    1b1cc <Mount+0x1e7>
   1b29e:	e9 14 ff ff ff       	jmp    1b1b7 <Mount+0x1d2>
   1b2a3:	8b 46 04             	mov    0x4(%esi),%eax
   1b2a6:	85 c0                	test   %eax,%eax
   1b2a8:	0f 85 40 ff ff ff    	jne    1b1ee <Mount+0x209>
   1b2ae:	66 90                	xchg   %ax,%ax
   1b2b0:	e9 48 ff ff ff       	jmp    1b1fd <Mount+0x218>
   1b2b5:	89 d0                	mov    %edx,%eax
   1b2b7:	83 c4 3c             	add    $0x3c,%esp
   1b2ba:	5b                   	pop    %ebx
   1b2bb:	5e                   	pop    %esi
   1b2bc:	5f                   	pop    %edi
   1b2bd:	5d                   	pop    %ebp
   1b2be:	c3                   	ret    

0001b2bf <Open>:
   1b2bf:	55                   	push   %ebp
   1b2c0:	89 e5                	mov    %esp,%ebp
   1b2c2:	83 ec 18             	sub    $0x18,%esp
   1b2c5:	c7 04 24 f0 a9 01 00 	movl   $0x1a9f0,(%esp)
   1b2cc:	8b 4d 10             	mov    0x10(%ebp),%ecx
   1b2cf:	8b 55 0c             	mov    0xc(%ebp),%edx
   1b2d2:	8b 45 08             	mov    0x8(%ebp),%eax
   1b2d5:	e8 ef f9 ff ff       	call   1acc9 <Do_Open>
   1b2da:	c9                   	leave  
   1b2db:	c3                   	ret    

0001b2dc <Close>:
   1b2dc:	55                   	push   %ebp
   1b2dd:	89 e5                	mov    %esp,%ebp
   1b2df:	56                   	push   %esi
   1b2e0:	53                   	push   %ebx
   1b2e1:	83 ec 20             	sub    $0x20,%esp
   1b2e4:	8b 5d 08             	mov    0x8(%ebp),%ebx
   1b2e7:	8b 03                	mov    (%ebx),%eax
   1b2e9:	8b 40 10             	mov    0x10(%eax),%eax
   1b2ec:	85 c0                	test   %eax,%eax
   1b2ee:	75 4a                	jne    1b33a <Close+0x5e>
   1b2f0:	c7 04 24 4f 00 00 00 	movl   $0x4f,(%esp)
   1b2f7:	e8 bf 5e ff ff       	call   111bb <Set_Current_Attr>
   1b2fc:	a1 6c 5e 02 00       	mov    0x25e6c,%eax
   1b301:	89 44 24 18          	mov    %eax,0x18(%esp)
   1b305:	8b 45 04             	mov    0x4(%ebp),%eax
   1b308:	89 44 24 14          	mov    %eax,0x14(%esp)
   1b30c:	c7 44 24 10 93 01 00 	movl   $0x193,0x10(%esp)
   1b313:	00 
   1b314:	c7 44 24 0c 2a 0e 02 	movl   $0x20e2a,0xc(%esp)
   1b31b:	00 
   1b31c:	c7 44 24 08 00 0f 02 	movl   $0x20f00,0x8(%esp)
   1b323:	00 
   1b324:	c7 44 24 04 2e 11 02 	movl   $0x2112e,0x4(%esp)
   1b32b:	00 
   1b32c:	c7 04 24 b4 ee 01 00 	movl   $0x1eeb4,(%esp)
   1b333:	e8 2e 5d ff ff       	call   11066 <Print>
   1b338:	eb fe                	jmp    1b338 <Close+0x5c>
   1b33a:	89 1c 24             	mov    %ebx,(%esp)
   1b33d:	ff d0                	call   *%eax
   1b33f:	89 c6                	mov    %eax,%esi
   1b341:	85 c0                	test   %eax,%eax
   1b343:	75 08                	jne    1b34d <Close+0x71>
   1b345:	89 1c 24             	mov    %ebx,(%esp)
   1b348:	e8 7f 92 ff ff       	call   145cc <Free>
   1b34d:	89 f0                	mov    %esi,%eax
   1b34f:	83 c4 20             	add    $0x20,%esp
   1b352:	5b                   	pop    %ebx
   1b353:	5e                   	pop    %esi
   1b354:	5d                   	pop    %ebp
   1b355:	c3                   	ret    

0001b356 <Stat>:
   1b356:	55                   	push   %ebp
   1b357:	89 e5                	mov    %esp,%ebp
   1b359:	53                   	push   %ebx
   1b35a:	83 ec 34             	sub    $0x34,%esp
   1b35d:	8d 4d e0             	lea    -0x20(%ebp),%ecx
   1b360:	8d 55 e7             	lea    -0x19(%ebp),%edx
   1b363:	8b 45 08             	mov    0x8(%ebp),%eax
   1b366:	e8 2b f8 ff ff       	call   1ab96 <Unpack_Path>
   1b36b:	84 c0                	test   %al,%al
   1b36d:	74 5d                	je     1b3cc <Stat+0x76>
   1b36f:	83 3d b8 53 02 00 00 	cmpl   $0x0,0x253b8
   1b376:	74 13                	je     1b38b <Stat+0x35>
   1b378:	8d 45 e7             	lea    -0x19(%ebp),%eax
   1b37b:	89 44 24 04          	mov    %eax,0x4(%esp)
   1b37f:	c7 04 24 70 10 02 00 	movl   $0x21070,(%esp)
   1b386:	e8 db 5c ff ff       	call   11066 <Print>
   1b38b:	8d 45 e7             	lea    -0x19(%ebp),%eax
   1b38e:	e8 94 f7 ff ff       	call   1ab27 <Lookup_Mount_Point>
   1b393:	89 c3                	mov    %eax,%ebx
   1b395:	85 c0                	test   %eax,%eax
   1b397:	74 3a                	je     1b3d3 <Stat+0x7d>
   1b399:	83 3d b8 53 02 00 00 	cmpl   $0x0,0x253b8
   1b3a0:	74 0c                	je     1b3ae <Stat+0x58>
   1b3a2:	c7 04 24 98 10 02 00 	movl   $0x21098,(%esp)
   1b3a9:	e8 b8 5c ff ff       	call   11066 <Print>
   1b3ae:	8b 03                	mov    (%ebx),%eax
   1b3b0:	8b 40 0c             	mov    0xc(%eax),%eax
   1b3b3:	85 c0                	test   %eax,%eax
   1b3b5:	74 23                	je     1b3da <Stat+0x84>
   1b3b7:	8b 55 0c             	mov    0xc(%ebp),%edx
   1b3ba:	89 54 24 08          	mov    %edx,0x8(%esp)
   1b3be:	8b 55 e0             	mov    -0x20(%ebp),%edx
   1b3c1:	89 54 24 04          	mov    %edx,0x4(%esp)
   1b3c5:	89 1c 24             	mov    %ebx,(%esp)
   1b3c8:	ff d0                	call   *%eax
   1b3ca:	eb 13                	jmp    1b3df <Stat+0x89>
   1b3cc:	b8 fe ff ff ff       	mov    $0xfffffffe,%eax
   1b3d1:	eb 0c                	jmp    1b3df <Stat+0x89>
   1b3d3:	b8 fe ff ff ff       	mov    $0xfffffffe,%eax
   1b3d8:	eb 05                	jmp    1b3df <Stat+0x89>
   1b3da:	b8 fd ff ff ff       	mov    $0xfffffffd,%eax
   1b3df:	83 c4 34             	add    $0x34,%esp
   1b3e2:	5b                   	pop    %ebx
   1b3e3:	5d                   	pop    %ebp
   1b3e4:	c3                   	ret    

0001b3e5 <Sync>:
   1b3e5:	55                   	push   %ebp
   1b3e6:	89 e5                	mov    %esp,%ebp
   1b3e8:	56                   	push   %esi
   1b3e9:	53                   	push   %ebx
   1b3ea:	83 ec 20             	sub    $0x20,%esp
   1b3ed:	c7 04 24 d0 53 02 00 	movl   $0x253d0,(%esp)
   1b3f4:	e8 b2 94 ff ff       	call   148ab <Mutex_Lock>
   1b3f9:	8b 1d c8 53 02 00    	mov    0x253c8,%ebx
   1b3ff:	85 db                	test   %ebx,%ebx
   1b401:	74 72                	je     1b475 <Sync+0x90>
   1b403:	8b 03                	mov    (%ebx),%eax
   1b405:	8b 40 10             	mov    0x10(%eax),%eax
   1b408:	85 c0                	test   %eax,%eax
   1b40a:	75 55                	jne    1b461 <Sync+0x7c>
   1b40c:	eb 09                	jmp    1b417 <Sync+0x32>
   1b40e:	8b 03                	mov    (%ebx),%eax
   1b410:	8b 40 10             	mov    0x10(%eax),%eax
   1b413:	85 c0                	test   %eax,%eax
   1b415:	75 4a                	jne    1b461 <Sync+0x7c>
   1b417:	c7 04 24 4f 00 00 00 	movl   $0x4f,(%esp)
   1b41e:	e8 98 5d ff ff       	call   111bb <Set_Current_Attr>
   1b423:	a1 6c 5e 02 00       	mov    0x25e6c,%eax
   1b428:	89 44 24 18          	mov    %eax,0x18(%esp)
   1b42c:	8b 45 04             	mov    0x4(%ebp),%eax
   1b42f:	89 44 24 14          	mov    %eax,0x14(%esp)
   1b433:	c7 44 24 10 c5 01 00 	movl   $0x1c5,0x10(%esp)
   1b43a:	00 
   1b43b:	c7 44 24 0c 2a 0e 02 	movl   $0x20e2a,0xc(%esp)
   1b442:	00 
   1b443:	c7 44 24 08 16 0f 02 	movl   $0x20f16,0x8(%esp)
   1b44a:	00 
   1b44b:	c7 44 24 04 29 11 02 	movl   $0x21129,0x4(%esp)
   1b452:	00 
   1b453:	c7 04 24 b4 ee 01 00 	movl   $0x1eeb4,(%esp)
   1b45a:	e8 07 5c ff ff       	call   11066 <Print>
   1b45f:	eb fe                	jmp    1b45f <Sync+0x7a>
   1b461:	89 1c 24             	mov    %ebx,(%esp)
   1b464:	ff d0                	call   *%eax
   1b466:	89 c6                	mov    %eax,%esi
   1b468:	85 c0                	test   %eax,%eax
   1b46a:	75 0e                	jne    1b47a <Sync+0x95>
   1b46c:	8b 5b 14             	mov    0x14(%ebx),%ebx
   1b46f:	85 db                	test   %ebx,%ebx
   1b471:	75 9b                	jne    1b40e <Sync+0x29>
   1b473:	eb 05                	jmp    1b47a <Sync+0x95>
   1b475:	be 00 00 00 00       	mov    $0x0,%esi
   1b47a:	c7 04 24 d0 53 02 00 	movl   $0x253d0,(%esp)
   1b481:	e8 62 95 ff ff       	call   149e8 <Mutex_Unlock>
   1b486:	89 f0                	mov    %esi,%eax
   1b488:	83 c4 20             	add    $0x20,%esp
   1b48b:	5b                   	pop    %ebx
   1b48c:	5e                   	pop    %esi
   1b48d:	5d                   	pop    %ebp
   1b48e:	c3                   	ret    

0001b48f <Allocate_File>:
   1b48f:	55                   	push   %ebp
   1b490:	89 e5                	mov    %esp,%ebp
   1b492:	83 ec 18             	sub    $0x18,%esp
   1b495:	c7 04 24 18 00 00 00 	movl   $0x18,(%esp)
   1b49c:	e8 99 8f ff ff       	call   1443a <Malloc>
   1b4a1:	85 c0                	test   %eax,%eax
   1b4a3:	74 23                	je     1b4c8 <Allocate_File+0x39>
   1b4a5:	8b 55 08             	mov    0x8(%ebp),%edx
   1b4a8:	89 10                	mov    %edx,(%eax)
   1b4aa:	8b 55 0c             	mov    0xc(%ebp),%edx
   1b4ad:	89 50 04             	mov    %edx,0x4(%eax)
   1b4b0:	8b 55 10             	mov    0x10(%ebp),%edx
   1b4b3:	89 50 08             	mov    %edx,0x8(%eax)
   1b4b6:	8b 55 14             	mov    0x14(%ebp),%edx
   1b4b9:	89 50 0c             	mov    %edx,0xc(%eax)
   1b4bc:	8b 55 18             	mov    0x18(%ebp),%edx
   1b4bf:	89 50 10             	mov    %edx,0x10(%eax)
   1b4c2:	8b 55 1c             	mov    0x1c(%ebp),%edx
   1b4c5:	89 50 14             	mov    %edx,0x14(%eax)
   1b4c8:	c9                   	leave  
   1b4c9:	c3                   	ret    

0001b4ca <FStat>:
   1b4ca:	55                   	push   %ebp
   1b4cb:	89 e5                	mov    %esp,%ebp
   1b4cd:	83 ec 18             	sub    $0x18,%esp
   1b4d0:	8b 55 08             	mov    0x8(%ebp),%edx
   1b4d3:	8b 02                	mov    (%edx),%eax
   1b4d5:	8b 00                	mov    (%eax),%eax
   1b4d7:	85 c0                	test   %eax,%eax
   1b4d9:	74 0e                	je     1b4e9 <FStat+0x1f>
   1b4db:	8b 4d 0c             	mov    0xc(%ebp),%ecx
   1b4de:	89 4c 24 04          	mov    %ecx,0x4(%esp)
   1b4e2:	89 14 24             	mov    %edx,(%esp)
   1b4e5:	ff d0                	call   *%eax
   1b4e7:	eb 05                	jmp    1b4ee <FStat+0x24>
   1b4e9:	b8 fd ff ff ff       	mov    $0xfffffffd,%eax
   1b4ee:	c9                   	leave  
   1b4ef:	c3                   	ret    

0001b4f0 <Read>:
   1b4f0:	55                   	push   %ebp
   1b4f1:	89 e5                	mov    %esp,%ebp
   1b4f3:	83 ec 18             	sub    $0x18,%esp
   1b4f6:	8b 55 08             	mov    0x8(%ebp),%edx
   1b4f9:	8b 02                	mov    (%edx),%eax
   1b4fb:	8b 40 04             	mov    0x4(%eax),%eax
   1b4fe:	85 c0                	test   %eax,%eax
   1b500:	74 15                	je     1b517 <Read+0x27>
   1b502:	8b 4d 10             	mov    0x10(%ebp),%ecx
   1b505:	89 4c 24 08          	mov    %ecx,0x8(%esp)
   1b509:	8b 4d 0c             	mov    0xc(%ebp),%ecx
   1b50c:	89 4c 24 04          	mov    %ecx,0x4(%esp)
   1b510:	89 14 24             	mov    %edx,(%esp)
   1b513:	ff d0                	call   *%eax
   1b515:	eb 05                	jmp    1b51c <Read+0x2c>
   1b517:	b8 fd ff ff ff       	mov    $0xfffffffd,%eax
   1b51c:	c9                   	leave  
   1b51d:	c3                   	ret    

0001b51e <Write>:
   1b51e:	55                   	push   %ebp
   1b51f:	89 e5                	mov    %esp,%ebp
   1b521:	83 ec 18             	sub    $0x18,%esp
   1b524:	8b 55 08             	mov    0x8(%ebp),%edx
   1b527:	8b 02                	mov    (%edx),%eax
   1b529:	8b 40 08             	mov    0x8(%eax),%eax
   1b52c:	85 c0                	test   %eax,%eax
   1b52e:	74 15                	je     1b545 <Write+0x27>
   1b530:	8b 4d 10             	mov    0x10(%ebp),%ecx
   1b533:	89 4c 24 08          	mov    %ecx,0x8(%esp)
   1b537:	8b 4d 0c             	mov    0xc(%ebp),%ecx
   1b53a:	89 4c 24 04          	mov    %ecx,0x4(%esp)
   1b53e:	89 14 24             	mov    %edx,(%esp)
   1b541:	ff d0                	call   *%eax
   1b543:	eb 05                	jmp    1b54a <Write+0x2c>
   1b545:	b8 fd ff ff ff       	mov    $0xfffffffd,%eax
   1b54a:	c9                   	leave  
   1b54b:	c3                   	ret    

0001b54c <Seek>:
   1b54c:	55                   	push   %ebp
   1b54d:	89 e5                	mov    %esp,%ebp
   1b54f:	83 ec 18             	sub    $0x18,%esp
   1b552:	8b 55 08             	mov    0x8(%ebp),%edx
   1b555:	8b 02                	mov    (%edx),%eax
   1b557:	8b 40 0c             	mov    0xc(%eax),%eax
   1b55a:	85 c0                	test   %eax,%eax
   1b55c:	74 0e                	je     1b56c <Seek+0x20>
   1b55e:	8b 4d 0c             	mov    0xc(%ebp),%ecx
   1b561:	89 4c 24 04          	mov    %ecx,0x4(%esp)
   1b565:	89 14 24             	mov    %edx,(%esp)
   1b568:	ff d0                	call   *%eax
   1b56a:	eb 05                	jmp    1b571 <Seek+0x25>
   1b56c:	b8 fd ff ff ff       	mov    $0xfffffffd,%eax
   1b571:	c9                   	leave  
   1b572:	c3                   	ret    

0001b573 <Read_Fully>:
   1b573:	55                   	push   %ebp
   1b574:	89 e5                	mov    %esp,%ebp
   1b576:	57                   	push   %edi
   1b577:	56                   	push   %esi
   1b578:	53                   	push   %ebx
   1b579:	83 ec 5c             	sub    $0x5c,%esp
   1b57c:	8b 75 08             	mov    0x8(%ebp),%esi
   1b57f:	c7 45 e4 00 00 00 00 	movl   $0x0,-0x1c(%ebp)
   1b586:	8d 45 b4             	lea    -0x4c(%ebp),%eax
   1b589:	89 44 24 04          	mov    %eax,0x4(%esp)
   1b58d:	89 34 24             	mov    %esi,(%esp)
   1b590:	e8 c1 fd ff ff       	call   1b356 <Stat>
   1b595:	89 c3                	mov    %eax,%ebx
   1b597:	85 c0                	test   %eax,%eax
   1b599:	0f 88 84 00 00 00    	js     1b623 <Read_Fully+0xb0>
   1b59f:	8d 45 e4             	lea    -0x1c(%ebp),%eax
   1b5a2:	89 44 24 08          	mov    %eax,0x8(%esp)
   1b5a6:	c7 44 24 04 02 00 00 	movl   $0x2,0x4(%esp)
   1b5ad:	00 
   1b5ae:	89 34 24             	mov    %esi,(%esp)
   1b5b1:	e8 09 fd ff ff       	call   1b2bf <Open>
   1b5b6:	89 c3                	mov    %eax,%ebx
   1b5b8:	85 c0                	test   %eax,%eax
   1b5ba:	78 6e                	js     1b62a <Read_Fully+0xb7>
   1b5bc:	8b 45 b4             	mov    -0x4c(%ebp),%eax
   1b5bf:	85 c0                	test   %eax,%eax
   1b5c1:	78 6e                	js     1b631 <Read_Fully+0xbe>
   1b5c3:	89 04 24             	mov    %eax,(%esp)
   1b5c6:	e8 6f 8e ff ff       	call   1443a <Malloc>
   1b5cb:	89 c7                	mov    %eax,%edi
   1b5cd:	85 c0                	test   %eax,%eax
   1b5cf:	74 6c                	je     1b63d <Read_Fully+0xca>
   1b5d1:	8b 45 b4             	mov    -0x4c(%ebp),%eax
   1b5d4:	85 c0                	test   %eax,%eax
   1b5d6:	7e 2c                	jle    1b604 <Read_Fully+0x91>
   1b5d8:	be 00 00 00 00       	mov    $0x0,%esi
   1b5dd:	29 f0                	sub    %esi,%eax
   1b5df:	89 44 24 08          	mov    %eax,0x8(%esp)
   1b5e3:	8d 04 37             	lea    (%edi,%esi,1),%eax
   1b5e6:	89 44 24 04          	mov    %eax,0x4(%esp)
   1b5ea:	8b 45 e4             	mov    -0x1c(%ebp),%eax
   1b5ed:	89 04 24             	mov    %eax,(%esp)
   1b5f0:	e8 fb fe ff ff       	call   1b4f0 <Read>
   1b5f5:	89 c3                	mov    %eax,%ebx
   1b5f7:	85 c0                	test   %eax,%eax
   1b5f9:	78 47                	js     1b642 <Read_Fully+0xcf>
   1b5fb:	01 c6                	add    %eax,%esi
   1b5fd:	8b 45 b4             	mov    -0x4c(%ebp),%eax
   1b600:	39 f0                	cmp    %esi,%eax
   1b602:	7f d9                	jg     1b5dd <Read_Fully+0x6a>
   1b604:	8b 45 e4             	mov    -0x1c(%ebp),%eax
   1b607:	89 04 24             	mov    %eax,(%esp)
   1b60a:	e8 cd fc ff ff       	call   1b2dc <Close>
   1b60f:	8b 45 0c             	mov    0xc(%ebp),%eax
   1b612:	89 38                	mov    %edi,(%eax)
   1b614:	8b 55 b4             	mov    -0x4c(%ebp),%edx
   1b617:	8b 45 10             	mov    0x10(%ebp),%eax
   1b61a:	89 10                	mov    %edx,(%eax)
   1b61c:	b8 00 00 00 00       	mov    $0x0,%eax
   1b621:	eb 3e                	jmp    1b661 <Read_Fully+0xee>
   1b623:	bf 00 00 00 00       	mov    $0x0,%edi
   1b628:	eb 18                	jmp    1b642 <Read_Fully+0xcf>
   1b62a:	bf 00 00 00 00       	mov    $0x0,%edi
   1b62f:	eb 11                	jmp    1b642 <Read_Fully+0xcf>
   1b631:	bf 00 00 00 00       	mov    $0x0,%edi
   1b636:	bb fe ff ff ff       	mov    $0xfffffffe,%ebx
   1b63b:	eb 05                	jmp    1b642 <Read_Fully+0xcf>
   1b63d:	bb f9 ff ff ff       	mov    $0xfffffff9,%ebx
   1b642:	8b 45 e4             	mov    -0x1c(%ebp),%eax
   1b645:	85 c0                	test   %eax,%eax
   1b647:	74 08                	je     1b651 <Read_Fully+0xde>
   1b649:	89 04 24             	mov    %eax,(%esp)
   1b64c:	e8 8b fc ff ff       	call   1b2dc <Close>
   1b651:	89 d8                	mov    %ebx,%eax
   1b653:	85 ff                	test   %edi,%edi
   1b655:	74 0a                	je     1b661 <Read_Fully+0xee>
   1b657:	89 3c 24             	mov    %edi,(%esp)
   1b65a:	e8 6d 8f ff ff       	call   145cc <Free>
   1b65f:	89 d8                	mov    %ebx,%eax
   1b661:	83 c4 5c             	add    $0x5c,%esp
   1b664:	5b                   	pop    %ebx
   1b665:	5e                   	pop    %esi
   1b666:	5f                   	pop    %edi
   1b667:	5d                   	pop    %ebp
   1b668:	c3                   	ret    

0001b669 <Create_Directory>:
   1b669:	55                   	push   %ebp
   1b66a:	89 e5                	mov    %esp,%ebp
   1b66c:	83 ec 38             	sub    $0x38,%esp
   1b66f:	8d 4d e0             	lea    -0x20(%ebp),%ecx
   1b672:	8d 55 e7             	lea    -0x19(%ebp),%edx
   1b675:	8b 45 08             	mov    0x8(%ebp),%eax
   1b678:	e8 19 f5 ff ff       	call   1ab96 <Unpack_Path>
   1b67d:	84 c0                	test   %al,%al
   1b67f:	74 23                	je     1b6a4 <Create_Directory+0x3b>
   1b681:	8d 45 e7             	lea    -0x19(%ebp),%eax
   1b684:	e8 9e f4 ff ff       	call   1ab27 <Lookup_Mount_Point>
   1b689:	85 c0                	test   %eax,%eax
   1b68b:	74 1e                	je     1b6ab <Create_Directory+0x42>
   1b68d:	8b 10                	mov    (%eax),%edx
   1b68f:	8b 52 04             	mov    0x4(%edx),%edx
   1b692:	85 d2                	test   %edx,%edx
   1b694:	74 1c                	je     1b6b2 <Create_Directory+0x49>
   1b696:	8b 4d e0             	mov    -0x20(%ebp),%ecx
   1b699:	89 4c 24 04          	mov    %ecx,0x4(%esp)
   1b69d:	89 04 24             	mov    %eax,(%esp)
   1b6a0:	ff d2                	call   *%edx
   1b6a2:	eb 13                	jmp    1b6b7 <Create_Directory+0x4e>
   1b6a4:	b8 fe ff ff ff       	mov    $0xfffffffe,%eax
   1b6a9:	eb 0c                	jmp    1b6b7 <Create_Directory+0x4e>
   1b6ab:	b8 fe ff ff ff       	mov    $0xfffffffe,%eax
   1b6b0:	eb 05                	jmp    1b6b7 <Create_Directory+0x4e>
   1b6b2:	b8 fd ff ff ff       	mov    $0xfffffffd,%eax
   1b6b7:	c9                   	leave  
   1b6b8:	c3                   	ret    

0001b6b9 <Delete>:
   1b6b9:	55                   	push   %ebp
   1b6ba:	89 e5                	mov    %esp,%ebp
   1b6bc:	83 ec 38             	sub    $0x38,%esp
   1b6bf:	8d 4d e0             	lea    -0x20(%ebp),%ecx
   1b6c2:	8d 55 e7             	lea    -0x19(%ebp),%edx
   1b6c5:	8b 45 08             	mov    0x8(%ebp),%eax
   1b6c8:	e8 c9 f4 ff ff       	call   1ab96 <Unpack_Path>
   1b6cd:	84 c0                	test   %al,%al
   1b6cf:	74 23                	je     1b6f4 <Delete+0x3b>
   1b6d1:	8d 45 e7             	lea    -0x19(%ebp),%eax
   1b6d4:	e8 4e f4 ff ff       	call   1ab27 <Lookup_Mount_Point>
   1b6d9:	85 c0                	test   %eax,%eax
   1b6db:	74 1e                	je     1b6fb <Delete+0x42>
   1b6dd:	8b 10                	mov    (%eax),%edx
   1b6df:	8b 52 14             	mov    0x14(%edx),%edx
   1b6e2:	85 d2                	test   %edx,%edx
   1b6e4:	74 1c                	je     1b702 <Delete+0x49>
   1b6e6:	8b 4d e0             	mov    -0x20(%ebp),%ecx
   1b6e9:	89 4c 24 04          	mov    %ecx,0x4(%esp)
   1b6ed:	89 04 24             	mov    %eax,(%esp)
   1b6f0:	ff d2                	call   *%edx
   1b6f2:	eb 13                	jmp    1b707 <Delete+0x4e>
   1b6f4:	b8 fe ff ff ff       	mov    $0xfffffffe,%eax
   1b6f9:	eb 0c                	jmp    1b707 <Delete+0x4e>
   1b6fb:	b8 fe ff ff ff       	mov    $0xfffffffe,%eax
   1b700:	eb 05                	jmp    1b707 <Delete+0x4e>
   1b702:	b8 fd ff ff ff       	mov    $0xfffffffd,%eax
   1b707:	c9                   	leave  
   1b708:	c3                   	ret    

0001b709 <Open_Directory>:
   1b709:	55                   	push   %ebp
   1b70a:	89 e5                	mov    %esp,%ebp
   1b70c:	83 ec 18             	sub    $0x18,%esp
   1b70f:	c7 04 24 67 aa 01 00 	movl   $0x1aa67,(%esp)
   1b716:	8b 4d 0c             	mov    0xc(%ebp),%ecx
   1b719:	ba 00 00 00 00       	mov    $0x0,%edx
   1b71e:	8b 45 08             	mov    0x8(%ebp),%eax
   1b721:	e8 a3 f5 ff ff       	call   1acc9 <Do_Open>
   1b726:	c9                   	leave  
   1b727:	c3                   	ret    

0001b728 <Read_Entry>:
   1b728:	55                   	push   %ebp
   1b729:	89 e5                	mov    %esp,%ebp
   1b72b:	83 ec 18             	sub    $0x18,%esp
   1b72e:	8b 55 08             	mov    0x8(%ebp),%edx
   1b731:	8b 02                	mov    (%edx),%eax
   1b733:	8b 40 14             	mov    0x14(%eax),%eax
   1b736:	85 c0                	test   %eax,%eax
   1b738:	74 0e                	je     1b748 <Read_Entry+0x20>
   1b73a:	8b 4d 0c             	mov    0xc(%ebp),%ecx
   1b73d:	89 4c 24 04          	mov    %ecx,0x4(%esp)
   1b741:	89 14 24             	mov    %edx,(%esp)
   1b744:	ff d0                	call   *%eax
   1b746:	eb 05                	jmp    1b74d <Read_Entry+0x25>
   1b748:	b8 fd ff ff ff       	mov    $0xfffffffd,%eax
   1b74d:	c9                   	leave  
   1b74e:	c3                   	ret    

0001b74f <Register_Paging_Device>:
   1b74f:	55                   	push   %ebp
   1b750:	89 e5                	mov    %esp,%ebp
   1b752:	53                   	push   %ebx
   1b753:	83 ec 24             	sub    $0x24,%esp
   1b756:	8b 5d 08             	mov    0x8(%ebp),%ebx
   1b759:	83 3d bc 53 02 00 00 	cmpl   $0x0,0x253bc
   1b760:	74 4a                	je     1b7ac <Register_Paging_Device+0x5d>
   1b762:	c7 04 24 4f 00 00 00 	movl   $0x4f,(%esp)
   1b769:	e8 4d 5a ff ff       	call   111bb <Set_Current_Attr>
   1b76e:	a1 6c 5e 02 00       	mov    0x25e6c,%eax
   1b773:	89 44 24 18          	mov    %eax,0x18(%esp)
   1b777:	8b 45 04             	mov    0x4(%ebp),%eax
   1b77a:	89 44 24 14          	mov    %eax,0x14(%esp)
   1b77e:	c7 44 24 10 b8 02 00 	movl   $0x2b8,0x10(%esp)
   1b785:	00 
   1b786:	c7 44 24 0c 2a 0e 02 	movl   $0x20e2a,0xc(%esp)
   1b78d:	00 
   1b78e:	c7 44 24 08 31 0f 02 	movl   $0x20f31,0x8(%esp)
   1b795:	00 
   1b796:	c7 44 24 04 00 11 02 	movl   $0x21100,0x4(%esp)
   1b79d:	00 
   1b79e:	c7 04 24 b4 ee 01 00 	movl   $0x1eeb4,(%esp)
   1b7a5:	e8 bc 58 ff ff       	call   11066 <Print>
   1b7aa:	eb fe                	jmp    1b7aa <Register_Paging_Device+0x5b>
   1b7ac:	85 db                	test   %ebx,%ebx
   1b7ae:	75 4a                	jne    1b7fa <Register_Paging_Device+0xab>
   1b7b0:	c7 04 24 4f 00 00 00 	movl   $0x4f,(%esp)
   1b7b7:	e8 ff 59 ff ff       	call   111bb <Set_Current_Attr>
   1b7bc:	a1 6c 5e 02 00       	mov    0x25e6c,%eax
   1b7c1:	89 44 24 18          	mov    %eax,0x18(%esp)
   1b7c5:	8b 45 04             	mov    0x4(%ebp),%eax
   1b7c8:	89 44 24 14          	mov    %eax,0x14(%esp)
   1b7cc:	c7 44 24 10 b9 02 00 	movl   $0x2b9,0x10(%esp)
   1b7d3:	00 
   1b7d4:	c7 44 24 0c 2a 0e 02 	movl   $0x20e2a,0xc(%esp)
   1b7db:	00 
   1b7dc:	c7 44 24 08 45 0f 02 	movl   $0x20f45,0x8(%esp)
   1b7e3:	00 
   1b7e4:	c7 44 24 04 00 11 02 	movl   $0x21100,0x4(%esp)
   1b7eb:	00 
   1b7ec:	c7 04 24 b4 ee 01 00 	movl   $0x1eeb4,(%esp)
   1b7f3:	e8 6e 58 ff ff       	call   11066 <Print>
   1b7f8:	eb fe                	jmp    1b7f8 <Register_Paging_Device+0xa9>
   1b7fa:	8b 43 04             	mov    0x4(%ebx),%eax
   1b7fd:	89 44 24 08          	mov    %eax,0x8(%esp)
   1b801:	8b 03                	mov    (%ebx),%eax
   1b803:	89 44 24 04          	mov    %eax,0x4(%esp)
   1b807:	c7 04 24 d4 10 02 00 	movl   $0x210d4,(%esp)
   1b80e:	e8 53 58 ff ff       	call   11066 <Print>
   1b813:	89 1d bc 53 02 00    	mov    %ebx,0x253bc
   1b819:	83 c4 24             	add    $0x24,%esp
   1b81c:	5b                   	pop    %ebx
   1b81d:	5d                   	pop    %ebp
   1b81e:	c3                   	ret    

0001b81f <Get_Paging_Device>:
   1b81f:	55                   	push   %ebp
   1b820:	89 e5                	mov    %esp,%ebp
   1b822:	a1 bc 53 02 00       	mov    0x253bc,%eax
   1b827:	5d                   	pop    %ebp
   1b828:	c3                   	ret    
   1b829:	66 90                	xchg   %ax,%ax
   1b82b:	66 90                	xchg   %ax,%ax
   1b82d:	66 90                	xchg   %ax,%ax
   1b82f:	90                   	nop

0001b830 <PFAT_Write>:
   1b830:	55                   	push   %ebp
   1b831:	89 e5                	mov    %esp,%ebp
   1b833:	b8 f5 ff ff ff       	mov    $0xfffffff5,%eax
   1b838:	5d                   	pop    %ebp
   1b839:	c3                   	ret    

0001b83a <PFAT_Seek>:
   1b83a:	55                   	push   %ebp
   1b83b:	89 e5                	mov    %esp,%ebp
   1b83d:	8b 45 08             	mov    0x8(%ebp),%eax
   1b840:	8b 55 0c             	mov    0xc(%ebp),%edx
   1b843:	39 50 08             	cmp    %edx,0x8(%eax)
   1b846:	76 0a                	jbe    1b852 <PFAT_Seek+0x18>
   1b848:	89 50 04             	mov    %edx,0x4(%eax)
   1b84b:	b8 00 00 00 00       	mov    $0x0,%eax
   1b850:	eb 05                	jmp    1b857 <PFAT_Seek+0x1d>
   1b852:	b8 f4 ff ff ff       	mov    $0xfffffff4,%eax
   1b857:	5d                   	pop    %ebp
   1b858:	c3                   	ret    

0001b859 <PFAT_Close>:
   1b859:	55                   	push   %ebp
   1b85a:	89 e5                	mov    %esp,%ebp
   1b85c:	b8 00 00 00 00       	mov    $0x0,%eax
   1b861:	5d                   	pop    %ebp
   1b862:	c3                   	ret    

0001b863 <PFAT_Close_Dir>:
   1b863:	55                   	push   %ebp
   1b864:	89 e5                	mov    %esp,%ebp
   1b866:	b8 00 00 00 00       	mov    $0x0,%eax
   1b86b:	5d                   	pop    %ebp
   1b86c:	c3                   	ret    

0001b86d <PFAT_Sync>:
   1b86d:	55                   	push   %ebp
   1b86e:	89 e5                	mov    %esp,%ebp
   1b870:	b8 00 00 00 00       	mov    $0x0,%eax
   1b875:	5d                   	pop    %ebp
   1b876:	c3                   	ret    

0001b877 <PFAT_Lookup>:
   1b877:	55                   	push   %ebp
   1b878:	89 e5                	mov    %esp,%ebp
   1b87a:	57                   	push   %edi
   1b87b:	56                   	push   %esi
   1b87c:	53                   	push   %ebx
   1b87d:	83 ec 3c             	sub    $0x3c,%esp
   1b880:	89 d3                	mov    %edx,%ebx
   1b882:	8b 50 20             	mov    0x20(%eax),%edx
   1b885:	89 55 e0             	mov    %edx,-0x20(%ebp)
   1b888:	80 3b 2f             	cmpb   $0x2f,(%ebx)
   1b88b:	74 4a                	je     1b8d7 <PFAT_Lookup+0x60>
   1b88d:	c7 04 24 4f 00 00 00 	movl   $0x4f,(%esp)
   1b894:	e8 22 59 ff ff       	call   111bb <Set_Current_Attr>
   1b899:	a1 6c 5e 02 00       	mov    0x25e6c,%eax
   1b89e:	89 44 24 18          	mov    %eax,0x18(%esp)
   1b8a2:	8b 45 04             	mov    0x4(%ebp),%eax
   1b8a5:	89 44 24 14          	mov    %eax,0x14(%esp)
   1b8a9:	c7 44 24 10 29 01 00 	movl   $0x129,0x10(%esp)
   1b8b0:	00 
   1b8b1:	c7 44 24 0c bb 11 02 	movl   $0x211bb,0xc(%esp)
   1b8b8:	00 
   1b8b9:	c7 44 24 08 d0 11 02 	movl   $0x211d0,0x8(%esp)
   1b8c0:	00 
   1b8c1:	c7 44 24 04 3d 15 02 	movl   $0x2153d,0x4(%esp)
   1b8c8:	00 
   1b8c9:	c7 04 24 b4 ee 01 00 	movl   $0x1eeb4,(%esp)
   1b8d0:	e8 91 57 ff ff       	call   11066 <Print>
   1b8d5:	eb fe                	jmp    1b8d5 <PFAT_Lookup+0x5e>
   1b8d7:	bf 67 0e 02 00       	mov    $0x20e67,%edi
   1b8dc:	b9 02 00 00 00       	mov    $0x2,%ecx
   1b8e1:	89 de                	mov    %ebx,%esi
   1b8e3:	f3 a6                	repz cmpsb %es:(%edi),%ds:(%esi)
   1b8e5:	0f 97 c1             	seta   %cl
   1b8e8:	0f 92 c2             	setb   %dl
   1b8eb:	38 d1                	cmp    %dl,%cl
   1b8ed:	75 05                	jne    1b8f4 <PFAT_Lookup+0x7d>
   1b8ef:	83 c0 24             	add    $0x24,%eax
   1b8f2:	eb 66                	jmp    1b95a <PFAT_Lookup+0xe3>
   1b8f4:	8d 4b 01             	lea    0x1(%ebx),%ecx
   1b8f7:	89 4d e4             	mov    %ecx,-0x1c(%ebp)
   1b8fa:	8b 78 10             	mov    0x10(%eax),%edi
   1b8fd:	85 ff                	test   %edi,%edi
   1b8ff:	7e 4d                	jle    1b94e <PFAT_Lookup+0xd7>
   1b901:	8b 5d e0             	mov    -0x20(%ebp),%ebx
   1b904:	be 00 00 00 00       	mov    $0x0,%esi
   1b909:	89 5d e0             	mov    %ebx,-0x20(%ebp)
   1b90c:	8b 45 e4             	mov    -0x1c(%ebp),%eax
   1b90f:	89 44 24 04          	mov    %eax,0x4(%esp)
   1b913:	89 1c 24             	mov    %ebx,(%esp)
   1b916:	e8 9e 31 00 00       	call   1eab9 <strcmp>
   1b91b:	85 c0                	test   %eax,%eax
   1b91d:	75 23                	jne    1b942 <PFAT_Lookup+0xcb>
   1b91f:	89 d8                	mov    %ebx,%eax
   1b921:	83 3d e0 53 02 00 00 	cmpl   $0x0,0x253e0
   1b928:	74 30                	je     1b95a <PFAT_Lookup+0xe3>
   1b92a:	8b 45 e4             	mov    -0x1c(%ebp),%eax
   1b92d:	89 44 24 04          	mov    %eax,0x4(%esp)
   1b931:	c7 04 24 b4 12 02 00 	movl   $0x212b4,(%esp)
   1b938:	e8 29 57 ff ff       	call   11066 <Print>
   1b93d:	8b 45 e0             	mov    -0x20(%ebp),%eax
   1b940:	eb 18                	jmp    1b95a <PFAT_Lookup+0xe3>
   1b942:	83 c6 01             	add    $0x1,%esi
   1b945:	83 c3 1c             	add    $0x1c,%ebx
   1b948:	39 fe                	cmp    %edi,%esi
   1b94a:	75 bd                	jne    1b909 <PFAT_Lookup+0x92>
   1b94c:	eb 07                	jmp    1b955 <PFAT_Lookup+0xde>
   1b94e:	b8 00 00 00 00       	mov    $0x0,%eax
   1b953:	eb 05                	jmp    1b95a <PFAT_Lookup+0xe3>
   1b955:	b8 00 00 00 00       	mov    $0x0,%eax
   1b95a:	83 c4 3c             	add    $0x3c,%esp
   1b95d:	5b                   	pop    %ebx
   1b95e:	5e                   	pop    %esi
   1b95f:	5f                   	pop    %edi
   1b960:	5d                   	pop    %ebp
   1b961:	c3                   	ret    

0001b962 <Copy_Stat>:
   1b962:	55                   	push   %ebp
   1b963:	89 e5                	mov    %esp,%ebp
   1b965:	57                   	push   %edi
   1b966:	56                   	push   %esi
   1b967:	53                   	push   %ebx
   1b968:	89 c3                	mov    %eax,%ebx
   1b96a:	8b 42 18             	mov    0x18(%edx),%eax
   1b96d:	89 03                	mov    %eax,(%ebx)
   1b96f:	0f b6 42 0c          	movzbl 0xc(%edx),%eax
   1b973:	c1 e0 03             	shl    $0x3,%eax
   1b976:	c0 e8 07             	shr    $0x7,%al
   1b979:	0f b6 4b 04          	movzbl 0x4(%ebx),%ecx
   1b97d:	83 e1 fc             	and    $0xfffffffc,%ecx
   1b980:	09 c8                	or     %ecx,%eax
   1b982:	88 43 04             	mov    %al,0x4(%ebx)
   1b985:	8d 43 08             	lea    0x8(%ebx),%eax
   1b988:	89 c7                	mov    %eax,%edi
   1b98a:	be 28 00 00 00       	mov    $0x28,%esi
   1b98f:	a8 01                	test   $0x1,%al
   1b991:	74 0b                	je     1b99e <Copy_Stat+0x3c>
   1b993:	c6 43 08 00          	movb   $0x0,0x8(%ebx)
   1b997:	8d 7b 09             	lea    0x9(%ebx),%edi
   1b99a:	66 be 27 00          	mov    $0x27,%si
   1b99e:	f7 c7 02 00 00 00    	test   $0x2,%edi
   1b9a4:	74 0b                	je     1b9b1 <Copy_Stat+0x4f>
   1b9a6:	66 c7 07 00 00       	movw   $0x0,(%edi)
   1b9ab:	83 c7 02             	add    $0x2,%edi
   1b9ae:	83 ee 02             	sub    $0x2,%esi
   1b9b1:	89 f1                	mov    %esi,%ecx
   1b9b3:	c1 e9 02             	shr    $0x2,%ecx
   1b9b6:	b8 00 00 00 00       	mov    $0x0,%eax
   1b9bb:	f3 ab                	rep stos %eax,%es:(%edi)
   1b9bd:	f7 c6 02 00 00 00    	test   $0x2,%esi
   1b9c3:	74 08                	je     1b9cd <Copy_Stat+0x6b>
   1b9c5:	66 c7 07 00 00       	movw   $0x0,(%edi)
   1b9ca:	83 c7 02             	add    $0x2,%edi
   1b9cd:	f7 c6 01 00 00 00    	test   $0x1,%esi
   1b9d3:	74 03                	je     1b9d8 <Copy_Stat+0x76>
   1b9d5:	c6 07 00             	movb   $0x0,(%edi)
   1b9d8:	8b 43 08             	mov    0x8(%ebx),%eax
   1b9db:	25 00 00 00 f0       	and    $0xf0000000,%eax
   1b9e0:	89 43 08             	mov    %eax,0x8(%ebx)
   1b9e3:	c6 43 0b 20          	movb   $0x20,0xb(%ebx)
   1b9e7:	f6 42 0c 01          	testb  $0x1,0xc(%edx)
   1b9eb:	75 0e                	jne    1b9fb <Copy_Stat+0x99>
   1b9ed:	b8 20 00 00 00       	mov    $0x20,%eax
   1b9f2:	83 e0 0f             	and    $0xf,%eax
   1b9f5:	83 c8 60             	or     $0x60,%eax
   1b9f8:	88 43 0b             	mov    %al,0xb(%ebx)
   1b9fb:	5b                   	pop    %ebx
   1b9fc:	5e                   	pop    %esi
   1b9fd:	5f                   	pop    %edi
   1b9fe:	5d                   	pop    %ebp
   1b9ff:	c3                   	ret    

0001ba00 <PFAT_Stat>:
   1ba00:	55                   	push   %ebp
   1ba01:	89 e5                	mov    %esp,%ebp
   1ba03:	57                   	push   %edi
   1ba04:	56                   	push   %esi
   1ba05:	53                   	push   %ebx
   1ba06:	83 ec 2c             	sub    $0x2c,%esp
   1ba09:	8b 5d 0c             	mov    0xc(%ebp),%ebx
   1ba0c:	8b 7d 10             	mov    0x10(%ebp),%edi
   1ba0f:	8b 45 08             	mov    0x8(%ebp),%eax
   1ba12:	8b 70 0c             	mov    0xc(%eax),%esi
   1ba15:	85 db                	test   %ebx,%ebx
   1ba17:	75 4a                	jne    1ba63 <PFAT_Stat+0x63>
   1ba19:	c7 04 24 4f 00 00 00 	movl   $0x4f,(%esp)
   1ba20:	e8 96 57 ff ff       	call   111bb <Set_Current_Attr>
   1ba25:	a1 6c 5e 02 00       	mov    0x25e6c,%eax
   1ba2a:	89 44 24 18          	mov    %eax,0x18(%esp)
   1ba2e:	8b 45 04             	mov    0x4(%ebp),%eax
   1ba31:	89 44 24 14          	mov    %eax,0x14(%esp)
   1ba35:	c7 44 24 10 d9 01 00 	movl   $0x1d9,0x10(%esp)
   1ba3c:	00 
   1ba3d:	c7 44 24 0c bb 11 02 	movl   $0x211bb,0xc(%esp)
   1ba44:	00 
   1ba45:	c7 44 24 08 dd 11 02 	movl   $0x211dd,0x8(%esp)
   1ba4c:	00 
   1ba4d:	c7 44 24 04 49 15 02 	movl   $0x21549,0x4(%esp)
   1ba54:	00 
   1ba55:	c7 04 24 b4 ee 01 00 	movl   $0x1eeb4,(%esp)
   1ba5c:	e8 05 56 ff ff       	call   11066 <Print>
   1ba61:	eb fe                	jmp    1ba61 <PFAT_Stat+0x61>
   1ba63:	85 ff                	test   %edi,%edi
   1ba65:	75 4a                	jne    1bab1 <PFAT_Stat+0xb1>
   1ba67:	c7 04 24 4f 00 00 00 	movl   $0x4f,(%esp)
   1ba6e:	e8 48 57 ff ff       	call   111bb <Set_Current_Attr>
   1ba73:	a1 6c 5e 02 00       	mov    0x25e6c,%eax
   1ba78:	89 44 24 18          	mov    %eax,0x18(%esp)
   1ba7c:	8b 45 04             	mov    0x4(%ebp),%eax
   1ba7f:	89 44 24 14          	mov    %eax,0x14(%esp)
   1ba83:	c7 44 24 10 da 01 00 	movl   $0x1da,0x10(%esp)
   1ba8a:	00 
   1ba8b:	c7 44 24 0c bb 11 02 	movl   $0x211bb,0xc(%esp)
   1ba92:	00 
   1ba93:	c7 44 24 08 e7 11 02 	movl   $0x211e7,0x8(%esp)
   1ba9a:	00 
   1ba9b:	c7 44 24 04 49 15 02 	movl   $0x21549,0x4(%esp)
   1baa2:	00 
   1baa3:	c7 04 24 b4 ee 01 00 	movl   $0x1eeb4,(%esp)
   1baaa:	e8 b7 55 ff ff       	call   11066 <Print>
   1baaf:	eb fe                	jmp    1baaf <PFAT_Stat+0xaf>
   1bab1:	83 3d e0 53 02 00 00 	cmpl   $0x0,0x253e0
   1bab8:	74 10                	je     1baca <PFAT_Stat+0xca>
   1baba:	89 5c 24 04          	mov    %ebx,0x4(%esp)
   1babe:	c7 04 24 f1 11 02 00 	movl   $0x211f1,(%esp)
   1bac5:	e8 9c 55 ff ff       	call   11066 <Print>
   1baca:	89 da                	mov    %ebx,%edx
   1bacc:	89 f0                	mov    %esi,%eax
   1bace:	e8 a4 fd ff ff       	call   1b877 <PFAT_Lookup>
   1bad3:	85 c0                	test   %eax,%eax
   1bad5:	74 10                	je     1bae7 <PFAT_Stat+0xe7>
   1bad7:	89 c2                	mov    %eax,%edx
   1bad9:	89 f8                	mov    %edi,%eax
   1badb:	e8 82 fe ff ff       	call   1b962 <Copy_Stat>
   1bae0:	b8 00 00 00 00       	mov    $0x0,%eax
   1bae5:	eb 05                	jmp    1baec <PFAT_Stat+0xec>
   1bae7:	b8 fe ff ff ff       	mov    $0xfffffffe,%eax
   1baec:	83 c4 2c             	add    $0x2c,%esp
   1baef:	5b                   	pop    %ebx
   1baf0:	5e                   	pop    %esi
   1baf1:	5f                   	pop    %edi
   1baf2:	5d                   	pop    %ebp
   1baf3:	c3                   	ret    

0001baf4 <PFAT_FStat_Dir>:
   1baf4:	55                   	push   %ebp
   1baf5:	89 e5                	mov    %esp,%ebp
   1baf7:	8b 45 08             	mov    0x8(%ebp),%eax
   1bafa:	8b 40 14             	mov    0x14(%eax),%eax
   1bafd:	8b 50 0c             	mov    0xc(%eax),%edx
   1bb00:	83 c2 24             	add    $0x24,%edx
   1bb03:	8b 45 0c             	mov    0xc(%ebp),%eax
   1bb06:	e8 57 fe ff ff       	call   1b962 <Copy_Stat>
   1bb0b:	b8 00 00 00 00       	mov    $0x0,%eax
   1bb10:	5d                   	pop    %ebp
   1bb11:	c3                   	ret    

0001bb12 <PFAT_FStat>:
   1bb12:	55                   	push   %ebp
   1bb13:	89 e5                	mov    %esp,%ebp
   1bb15:	8b 45 08             	mov    0x8(%ebp),%eax
   1bb18:	8b 40 0c             	mov    0xc(%eax),%eax
   1bb1b:	8b 10                	mov    (%eax),%edx
   1bb1d:	8b 45 0c             	mov    0xc(%ebp),%eax
   1bb20:	e8 3d fe ff ff       	call   1b962 <Copy_Stat>
   1bb25:	b8 00 00 00 00       	mov    $0x0,%eax
   1bb2a:	5d                   	pop    %ebp
   1bb2b:	c3                   	ret    

0001bb2c <PFAT_Open_Directory>:
   1bb2c:	55                   	push   %ebp
   1bb2d:	89 e5                	mov    %esp,%ebp
   1bb2f:	57                   	push   %edi
   1bb30:	56                   	push   %esi
   1bb31:	53                   	push   %ebx
   1bb32:	83 ec 1c             	sub    $0x1c,%esp
   1bb35:	8b 45 08             	mov    0x8(%ebp),%eax
   1bb38:	8b 58 0c             	mov    0xc(%eax),%ebx
   1bb3b:	bf 67 0e 02 00       	mov    $0x20e67,%edi
   1bb40:	b9 02 00 00 00       	mov    $0x2,%ecx
   1bb45:	8b 75 0c             	mov    0xc(%ebp),%esi
   1bb48:	f3 a6                	repz cmpsb %es:(%edi),%ds:(%esi)
   1bb4a:	0f 97 c2             	seta   %dl
   1bb4d:	0f 92 c0             	setb   %al
   1bb50:	29 c2                	sub    %eax,%edx
   1bb52:	0f be f2             	movsbl %dl,%esi
   1bb55:	85 f6                	test   %esi,%esi
   1bb57:	75 31                	jne    1bb8a <PFAT_Open_Directory+0x5e>
   1bb59:	c7 04 24 18 00 00 00 	movl   $0x18,(%esp)
   1bb60:	e8 d5 88 ff ff       	call   1443a <Malloc>
   1bb65:	85 c0                	test   %eax,%eax
   1bb67:	74 28                	je     1bb91 <PFAT_Open_Directory+0x65>
   1bb69:	c7 00 04 41 02 00    	movl   $0x24104,(%eax)
   1bb6f:	c7 40 04 00 00 00 00 	movl   $0x0,0x4(%eax)
   1bb76:	8b 53 10             	mov    0x10(%ebx),%edx
   1bb79:	89 50 08             	mov    %edx,0x8(%eax)
   1bb7c:	c7 40 0c 00 00 00 00 	movl   $0x0,0xc(%eax)
   1bb83:	8b 55 10             	mov    0x10(%ebp),%edx
   1bb86:	89 02                	mov    %eax,(%edx)
   1bb88:	eb 0c                	jmp    1bb96 <PFAT_Open_Directory+0x6a>
   1bb8a:	be fe ff ff ff       	mov    $0xfffffffe,%esi
   1bb8f:	eb 05                	jmp    1bb96 <PFAT_Open_Directory+0x6a>
   1bb91:	be f9 ff ff ff       	mov    $0xfffffff9,%esi
   1bb96:	89 f0                	mov    %esi,%eax
   1bb98:	83 c4 1c             	add    $0x1c,%esp
   1bb9b:	5b                   	pop    %ebx
   1bb9c:	5e                   	pop    %esi
   1bb9d:	5f                   	pop    %edi
   1bb9e:	5d                   	pop    %ebp
   1bb9f:	c3                   	ret    

0001bba0 <PFAT_Read_Entry>:
   1bba0:	55                   	push   %ebp
   1bba1:	89 e5                	mov    %esp,%ebp
   1bba3:	56                   	push   %esi
   1bba4:	53                   	push   %ebx
   1bba5:	83 ec 10             	sub    $0x10,%esp
   1bba8:	8b 4d 08             	mov    0x8(%ebp),%ecx
   1bbab:	8b 75 0c             	mov    0xc(%ebp),%esi
   1bbae:	8b 41 14             	mov    0x14(%ecx),%eax
   1bbb1:	8b 50 0c             	mov    0xc(%eax),%edx
   1bbb4:	8b 59 04             	mov    0x4(%ecx),%ebx
   1bbb7:	b8 01 00 00 00       	mov    $0x1,%eax
   1bbbc:	3b 59 08             	cmp    0x8(%ecx),%ebx
   1bbbf:	73 38                	jae    1bbf9 <PFAT_Read_Entry+0x59>
   1bbc1:	8b 42 20             	mov    0x20(%edx),%eax
   1bbc4:	8d 53 01             	lea    0x1(%ebx),%edx
   1bbc7:	89 51 04             	mov    %edx,0x4(%ecx)
   1bbca:	6b db 1c             	imul   $0x1c,%ebx,%ebx
   1bbcd:	01 c3                	add    %eax,%ebx
   1bbcf:	c7 44 24 08 0c 00 00 	movl   $0xc,0x8(%esp)
   1bbd6:	00 
   1bbd7:	89 5c 24 04          	mov    %ebx,0x4(%esp)
   1bbdb:	89 34 24             	mov    %esi,(%esp)
   1bbde:	e8 21 30 00 00       	call   1ec04 <strncpy>
   1bbe3:	c6 46 0c 00          	movb   $0x0,0xc(%esi)
   1bbe7:	8d 86 00 04 00 00    	lea    0x400(%esi),%eax
   1bbed:	89 da                	mov    %ebx,%edx
   1bbef:	e8 6e fd ff ff       	call   1b962 <Copy_Stat>
   1bbf4:	b8 00 00 00 00       	mov    $0x0,%eax
   1bbf9:	83 c4 10             	add    $0x10,%esp
   1bbfc:	5b                   	pop    %ebx
   1bbfd:	5e                   	pop    %esi
   1bbfe:	5d                   	pop    %ebp
   1bbff:	c3                   	ret    

0001bc00 <PFAT_Read>:
   1bc00:	55                   	push   %ebp
   1bc01:	89 e5                	mov    %esp,%ebp
   1bc03:	57                   	push   %edi
   1bc04:	56                   	push   %esi
   1bc05:	53                   	push   %ebx
   1bc06:	83 ec 3c             	sub    $0x3c,%esp
   1bc09:	8b 7d 08             	mov    0x8(%ebp),%edi
   1bc0c:	8b 47 0c             	mov    0xc(%edi),%eax
   1bc0f:	89 45 e4             	mov    %eax,-0x1c(%ebp)
   1bc12:	8b 47 14             	mov    0x14(%edi),%eax
   1bc15:	8b 40 0c             	mov    0xc(%eax),%eax
   1bc18:	89 c1                	mov    %eax,%ecx
   1bc1a:	8b 47 04             	mov    0x4(%edi),%eax
   1bc1d:	89 45 e0             	mov    %eax,-0x20(%ebp)
   1bc20:	83 7d 10 00          	cmpl   $0x0,0x10(%ebp)
   1bc24:	0f 88 98 01 00 00    	js     1bdc2 <PFAT_Read+0x1c2>
   1bc2a:	8b 57 08             	mov    0x8(%edi),%edx
   1bc2d:	39 d0                	cmp    %edx,%eax
   1bc2f:	73 0c                	jae    1bc3d <PFAT_Read+0x3d>
   1bc31:	03 45 10             	add    0x10(%ebp),%eax
   1bc34:	39 d0                	cmp    %edx,%eax
   1bc36:	77 05                	ja     1bc3d <PFAT_Read+0x3d>
   1bc38:	39 45 e0             	cmp    %eax,-0x20(%ebp)
   1bc3b:	76 3a                	jbe    1bc77 <PFAT_Read+0x77>
   1bc3d:	b8 f4 ff ff ff       	mov    $0xfffffff4,%eax
   1bc42:	83 3d e0 53 02 00 00 	cmpl   $0x0,0x253e0
   1bc49:	0f 84 96 01 00 00    	je     1bde5 <PFAT_Read+0x1e5>
   1bc4f:	89 54 24 0c          	mov    %edx,0xc(%esp)
   1bc53:	8b 45 10             	mov    0x10(%ebp),%eax
   1bc56:	89 44 24 08          	mov    %eax,0x8(%esp)
   1bc5a:	8b 45 e0             	mov    -0x20(%ebp),%eax
   1bc5d:	89 44 24 04          	mov    %eax,0x4(%esp)
   1bc61:	c7 04 24 dc 12 02 00 	movl   $0x212dc,(%esp)
   1bc68:	e8 f9 53 ff ff       	call   11066 <Print>
   1bc6d:	b8 f4 ff ff ff       	mov    $0xfffffff4,%eax
   1bc72:	e9 6e 01 00 00       	jmp    1bde5 <PFAT_Read+0x1e5>
   1bc77:	89 c2                	mov    %eax,%edx
   1bc79:	a9 ff 01 00 00       	test   $0x1ff,%eax
   1bc7e:	74 0b                	je     1bc8b <PFAT_Read+0x8b>
   1bc80:	25 00 fe ff ff       	and    $0xfffffe00,%eax
   1bc85:	8d 90 00 02 00 00    	lea    0x200(%eax),%edx
   1bc8b:	c1 ea 09             	shr    $0x9,%edx
   1bc8e:	89 55 dc             	mov    %edx,-0x24(%ebp)
   1bc91:	8b 45 e4             	mov    -0x1c(%ebp),%eax
   1bc94:	8b 00                	mov    (%eax),%eax
   1bc96:	8b 70 14             	mov    0x14(%eax),%esi
   1bc99:	85 d2                	test   %edx,%edx
   1bc9b:	0f 84 e5 00 00 00    	je     1bd86 <PFAT_Read+0x186>
   1bca1:	83 fe 01             	cmp    $0x1,%esi
   1bca4:	77 2d                	ja     1bcd3 <PFAT_Read+0xd3>
   1bca6:	eb 0c                	jmp    1bcb4 <PFAT_Read+0xb4>
   1bca8:	83 fe 01             	cmp    $0x1,%esi
   1bcab:	90                   	nop
   1bcac:	8d 74 26 00          	lea    0x0(%esi,%eiz,1),%esi
   1bcb0:	77 34                	ja     1bce6 <PFAT_Read+0xe6>
   1bcb2:	eb 05                	jmp    1bcb9 <PFAT_Read+0xb9>
   1bcb4:	bb 00 00 00 00       	mov    $0x0,%ebx
   1bcb9:	89 5c 24 04          	mov    %ebx,0x4(%esp)
   1bcbd:	c7 04 24 20 13 02 00 	movl   $0x21320,(%esp)
   1bcc4:	e8 9d 53 ff ff       	call   11066 <Print>
   1bcc9:	b8 fb ff ff ff       	mov    $0xfffffffb,%eax
   1bcce:	e9 12 01 00 00       	jmp    1bde5 <PFAT_Read+0x1e5>
   1bcd3:	bb 00 00 00 00       	mov    $0x0,%ebx
   1bcd8:	8b 45 e4             	mov    -0x1c(%ebp),%eax
   1bcdb:	83 c0 10             	add    $0x10,%eax
   1bcde:	89 45 d8             	mov    %eax,-0x28(%ebp)
   1bce1:	89 7d 08             	mov    %edi,0x8(%ebp)
   1bce4:	89 cf                	mov    %ecx,%edi
   1bce6:	b8 00 00 00 00       	mov    $0x0,%eax
   1bceb:	39 d8                	cmp    %ebx,%eax
   1bced:	0f 87 81 00 00 00    	ja     1bd74 <PFAT_Read+0x174>
   1bcf3:	8b 45 d8             	mov    -0x28(%ebp),%eax
   1bcf6:	89 45 d4             	mov    %eax,-0x2c(%ebp)
   1bcf9:	89 04 24             	mov    %eax,(%esp)
   1bcfc:	e8 aa 8b ff ff       	call   148ab <Mutex_Lock>
   1bd01:	89 5c 24 04          	mov    %ebx,0x4(%esp)
   1bd05:	8b 45 e4             	mov    -0x1c(%ebp),%eax
   1bd08:	8b 40 0c             	mov    0xc(%eax),%eax
   1bd0b:	89 04 24             	mov    %eax,(%esp)
   1bd0e:	e8 5b 09 00 00       	call   1c66e <Is_Bit_Set>
   1bd13:	84 c0                	test   %al,%al
   1bd15:	0f 85 ae 00 00 00    	jne    1bdc9 <PFAT_Read+0x1c9>
   1bd1b:	83 3d e0 53 02 00 00 	cmpl   $0x0,0x253e0
   1bd22:	74 14                	je     1bd38 <PFAT_Read+0x138>
   1bd24:	89 74 24 08          	mov    %esi,0x8(%esp)
   1bd28:	89 5c 24 04          	mov    %ebx,0x4(%esp)
   1bd2c:	c7 04 24 54 13 02 00 	movl   $0x21354,(%esp)
   1bd33:	e8 2e 53 ff ff       	call   11066 <Print>
   1bd38:	89 d8                	mov    %ebx,%eax
   1bd3a:	c1 e0 09             	shl    $0x9,%eax
   1bd3d:	8b 4d e4             	mov    -0x1c(%ebp),%ecx
   1bd40:	03 41 08             	add    0x8(%ecx),%eax
   1bd43:	89 44 24 08          	mov    %eax,0x8(%esp)
   1bd47:	89 74 24 04          	mov    %esi,0x4(%esp)
   1bd4b:	8b 45 08             	mov    0x8(%ebp),%eax
   1bd4e:	8b 40 14             	mov    0x14(%eax),%eax
   1bd51:	8b 40 08             	mov    0x8(%eax),%eax
   1bd54:	89 04 24             	mov    %eax,(%esp)
   1bd57:	e8 50 e1 ff ff       	call   19eac <Block_Read>
   1bd5c:	85 c0                	test   %eax,%eax
   1bd5e:	75 76                	jne    1bdd6 <PFAT_Read+0x1d6>
   1bd60:	89 5c 24 04          	mov    %ebx,0x4(%esp)
   1bd64:	8b 45 e4             	mov    -0x1c(%ebp),%eax
   1bd67:	8b 40 0c             	mov    0xc(%eax),%eax
   1bd6a:	89 04 24             	mov    %eax,(%esp)
   1bd6d:	e8 c2 08 00 00       	call   1c634 <Set_Bit>
   1bd72:	eb 55                	jmp    1bdc9 <PFAT_Read+0x1c9>
   1bd74:	8b 47 1c             	mov    0x1c(%edi),%eax
   1bd77:	8b 34 b0             	mov    (%eax,%esi,4),%esi
   1bd7a:	83 c3 01             	add    $0x1,%ebx
   1bd7d:	3b 5d dc             	cmp    -0x24(%ebp),%ebx
   1bd80:	0f 85 22 ff ff ff    	jne    1bca8 <PFAT_Read+0xa8>
   1bd86:	8b 4d e4             	mov    -0x1c(%ebp),%ecx
   1bd89:	8b 45 e0             	mov    -0x20(%ebp),%eax
   1bd8c:	03 41 08             	add    0x8(%ecx),%eax
   1bd8f:	8b 4d 10             	mov    0x10(%ebp),%ecx
   1bd92:	89 4c 24 08          	mov    %ecx,0x8(%esp)
   1bd96:	89 44 24 04          	mov    %eax,0x4(%esp)
   1bd9a:	8b 45 0c             	mov    0xc(%ebp),%eax
   1bd9d:	89 04 24             	mov    %eax,(%esp)
   1bda0:	e8 4e 2c 00 00       	call   1e9f3 <memcpy>
   1bda5:	8b 45 10             	mov    0x10(%ebp),%eax
   1bda8:	83 3d e0 53 02 00 00 	cmpl   $0x0,0x253e0
   1bdaf:	74 34                	je     1bde5 <PFAT_Read+0x1e5>
   1bdb1:	c7 04 24 06 12 02 00 	movl   $0x21206,(%esp)
   1bdb8:	e8 a9 52 ff ff       	call   11066 <Print>
   1bdbd:	8b 45 10             	mov    0x10(%ebp),%eax
   1bdc0:	eb 23                	jmp    1bde5 <PFAT_Read+0x1e5>
   1bdc2:	b8 f4 ff ff ff       	mov    $0xfffffff4,%eax
   1bdc7:	eb 1c                	jmp    1bde5 <PFAT_Read+0x1e5>
   1bdc9:	8b 45 d8             	mov    -0x28(%ebp),%eax
   1bdcc:	89 04 24             	mov    %eax,(%esp)
   1bdcf:	e8 14 8c ff ff       	call   149e8 <Mutex_Unlock>
   1bdd4:	eb 9e                	jmp    1bd74 <PFAT_Read+0x174>
   1bdd6:	89 c6                	mov    %eax,%esi
   1bdd8:	8b 4d d4             	mov    -0x2c(%ebp),%ecx
   1bddb:	89 0c 24             	mov    %ecx,(%esp)
   1bdde:	e8 05 8c ff ff       	call   149e8 <Mutex_Unlock>
   1bde3:	89 f0                	mov    %esi,%eax
   1bde5:	83 c4 3c             	add    $0x3c,%esp
   1bde8:	5b                   	pop    %ebx
   1bde9:	5e                   	pop    %esi
   1bdea:	5f                   	pop    %edi
   1bdeb:	5d                   	pop    %ebp
   1bdec:	c3                   	ret    

0001bded <PFAT_Open>:
   1bded:	55                   	push   %ebp
   1bdee:	89 e5                	mov    %esp,%ebp
   1bdf0:	57                   	push   %edi
   1bdf1:	56                   	push   %esi
   1bdf2:	53                   	push   %ebx
   1bdf3:	83 ec 3c             	sub    $0x3c,%esp
   1bdf6:	8b 45 08             	mov    0x8(%ebp),%eax
   1bdf9:	8b 78 0c             	mov    0xc(%eax),%edi
   1bdfc:	8b 45 10             	mov    0x10(%ebp),%eax
   1bdff:	83 e0 05             	and    $0x5,%eax
   1be02:	89 45 e4             	mov    %eax,-0x1c(%ebp)
   1be05:	0f 85 2e 02 00 00    	jne    1c039 <PFAT_Open+0x24c>
   1be0b:	8b 55 0c             	mov    0xc(%ebp),%edx
   1be0e:	89 f8                	mov    %edi,%eax
   1be10:	e8 62 fa ff ff       	call   1b877 <PFAT_Lookup>
   1be15:	89 c6                	mov    %eax,%esi
   1be17:	85 c0                	test   %eax,%eax
   1be19:	0f 84 26 02 00 00    	je     1c045 <PFAT_Open+0x258>
   1be1f:	f6 40 0c 10          	testb  $0x10,0xc(%eax)
   1be23:	0f 85 28 02 00 00    	jne    1c051 <PFAT_Open+0x264>
   1be29:	85 ff                	test   %edi,%edi
   1be2b:	75 4a                	jne    1be77 <PFAT_Open+0x8a>
   1be2d:	c7 04 24 4f 00 00 00 	movl   $0x4f,(%esp)
   1be34:	e8 82 53 ff ff       	call   111bb <Set_Current_Attr>
   1be39:	a1 6c 5e 02 00       	mov    0x25e6c,%eax
   1be3e:	89 44 24 18          	mov    %eax,0x18(%esp)
   1be42:	8b 45 04             	mov    0x4(%ebp),%eax
   1be45:	89 44 24 14          	mov    %eax,0x14(%esp)
   1be49:	c7 44 24 10 50 01 00 	movl   $0x150,0x10(%esp)
   1be50:	00 
   1be51:	c7 44 24 0c bb 11 02 	movl   $0x211bb,0xc(%esp)
   1be58:	00 
   1be59:	c7 44 24 08 1d 12 02 	movl   $0x2121d,0x8(%esp)
   1be60:	00 
   1be61:	c7 44 24 04 2f 15 02 	movl   $0x2152f,0x4(%esp)
   1be68:	00 
   1be69:	c7 04 24 b4 ee 01 00 	movl   $0x1eeb4,(%esp)
   1be70:	e8 f1 51 ff ff       	call   11066 <Print>
   1be75:	eb fe                	jmp    1be75 <PFAT_Open+0x88>
   1be77:	8d 47 40             	lea    0x40(%edi),%eax
   1be7a:	89 45 d4             	mov    %eax,-0x2c(%ebp)
   1be7d:	89 04 24             	mov    %eax,(%esp)
   1be80:	e8 26 8a ff ff       	call   148ab <Mutex_Lock>
   1be85:	8b 5f 50             	mov    0x50(%edi),%ebx
   1be88:	85 db                	test   %ebx,%ebx
   1be8a:	0f 84 d9 01 00 00    	je     1c069 <PFAT_Open+0x27c>
   1be90:	3b 33                	cmp    (%ebx),%esi
   1be92:	75 12                	jne    1bea6 <PFAT_Open+0xb9>
   1be94:	e9 65 02 00 00       	jmp    1c0fe <PFAT_Open+0x311>
   1be99:	3b 33                	cmp    (%ebx),%esi
   1be9b:	90                   	nop
   1be9c:	8d 74 26 00          	lea    0x0(%esi,%eiz,1),%esi
   1bea0:	0f 84 58 02 00 00    	je     1c0fe <PFAT_Open+0x311>
   1bea6:	8b 5b 24             	mov    0x24(%ebx),%ebx
   1bea9:	85 db                	test   %ebx,%ebx
   1beab:	75 ec                	jne    1be99 <PFAT_Open+0xac>
   1bead:	8d 76 00             	lea    0x0(%esi),%esi
   1beb0:	e9 b4 01 00 00       	jmp    1c069 <PFAT_Open+0x27c>
   1beb5:	25 00 fe ff ff       	and    $0xfffffe00,%eax
   1beba:	05 00 02 00 00       	add    $0x200,%eax
   1bebf:	c1 e8 09             	shr    $0x9,%eax
   1bec2:	89 45 dc             	mov    %eax,-0x24(%ebp)
   1bec5:	c7 04 24 28 00 00 00 	movl   $0x28,(%esp)
   1becc:	e8 69 85 ff ff       	call   1443a <Malloc>
   1bed1:	89 c3                	mov    %eax,%ebx
   1bed3:	85 c0                	test   %eax,%eax
   1bed5:	0f 84 f8 00 00 00    	je     1bfd3 <PFAT_Open+0x1e6>
   1bedb:	8b 45 dc             	mov    -0x24(%ebp),%eax
   1bede:	c1 e0 09             	shl    $0x9,%eax
   1bee1:	89 04 24             	mov    %eax,(%esp)
   1bee4:	e8 51 85 ff ff       	call   1443a <Malloc>
   1bee9:	89 45 e0             	mov    %eax,-0x20(%ebp)
   1beec:	85 c0                	test   %eax,%eax
   1beee:	0f 84 ec 01 00 00    	je     1c0e0 <PFAT_Open+0x2f3>
   1bef4:	8b 45 dc             	mov    -0x24(%ebp),%eax
   1bef7:	89 04 24             	mov    %eax,(%esp)
   1befa:	e8 f1 06 00 00       	call   1c5f0 <Create_Bit_Set>
   1beff:	89 c2                	mov    %eax,%edx
   1bf01:	89 45 d8             	mov    %eax,-0x28(%ebp)
   1bf04:	85 c0                	test   %eax,%eax
   1bf06:	0f 84 db 01 00 00    	je     1c0e7 <PFAT_Open+0x2fa>
   1bf0c:	89 33                	mov    %esi,(%ebx)
   1bf0e:	8b 45 dc             	mov    -0x24(%ebp),%eax
   1bf11:	89 43 04             	mov    %eax,0x4(%ebx)
   1bf14:	8b 45 e0             	mov    -0x20(%ebp),%eax
   1bf17:	89 43 08             	mov    %eax,0x8(%ebx)
   1bf1a:	89 53 0c             	mov    %edx,0xc(%ebx)
   1bf1d:	8d 43 10             	lea    0x10(%ebx),%eax
   1bf20:	89 04 24             	mov    %eax,(%esp)
   1bf23:	e8 60 89 ff ff       	call   14888 <Mutex_Init>
   1bf28:	8b 47 50             	mov    0x50(%edi),%eax
   1bf2b:	85 c0                	test   %eax,%eax
   1bf2d:	0f 84 49 01 00 00    	je     1c07c <PFAT_Open+0x28f>
   1bf33:	39 c3                	cmp    %eax,%ebx
   1bf35:	75 0f                	jne    1bf46 <PFAT_Open+0x159>
   1bf37:	e9 57 01 00 00       	jmp    1c093 <PFAT_Open+0x2a6>
   1bf3c:	39 c3                	cmp    %eax,%ebx
   1bf3e:	66 90                	xchg   %ax,%ax
   1bf40:	0f 84 4d 01 00 00    	je     1c093 <PFAT_Open+0x2a6>
   1bf46:	8b 40 24             	mov    0x24(%eax),%eax
   1bf49:	85 c0                	test   %eax,%eax
   1bf4b:	75 ef                	jne    1bf3c <PFAT_Open+0x14f>
   1bf4d:	8d 76 00             	lea    0x0(%esi),%esi
   1bf50:	e9 27 01 00 00       	jmp    1c07c <PFAT_Open+0x28f>
   1bf55:	eb fe                	jmp    1bf55 <PFAT_Open+0x168>
   1bf57:	89 5f 54             	mov    %ebx,0x54(%edi)
   1bf5a:	89 5f 50             	mov    %ebx,0x50(%edi)
   1bf5d:	c7 43 20 00 00 00 00 	movl   $0x0,0x20(%ebx)
   1bf64:	eb 0c                	jmp    1bf72 <PFAT_Open+0x185>
   1bf66:	89 58 24             	mov    %ebx,0x24(%eax)
   1bf69:	8b 47 54             	mov    0x54(%edi),%eax
   1bf6c:	89 43 20             	mov    %eax,0x20(%ebx)
   1bf6f:	89 5f 54             	mov    %ebx,0x54(%edi)
   1bf72:	83 7b 24 00          	cmpl   $0x0,0x24(%ebx)
   1bf76:	0f 84 82 01 00 00    	je     1c0fe <PFAT_Open+0x311>
   1bf7c:	c7 04 24 4f 00 00 00 	movl   $0x4f,(%esp)
   1bf83:	e8 33 52 ff ff       	call   111bb <Set_Current_Attr>
   1bf88:	a1 6c 5e 02 00       	mov    0x25e6c,%eax
   1bf8d:	89 44 24 18          	mov    %eax,0x18(%esp)
   1bf91:	8b 45 04             	mov    0x4(%ebp),%eax
   1bf94:	89 44 24 14          	mov    %eax,0x14(%esp)
   1bf98:	c7 44 24 10 76 01 00 	movl   $0x176,0x10(%esp)
   1bf9f:	00 
   1bfa0:	c7 44 24 0c bb 11 02 	movl   $0x211bb,0xc(%esp)
   1bfa7:	00 
   1bfa8:	c7 44 24 08 88 13 02 	movl   $0x21388,0x8(%esp)
   1bfaf:	00 
   1bfb0:	c7 44 24 04 2f 15 02 	movl   $0x2152f,0x4(%esp)
   1bfb7:	00 
   1bfb8:	c7 04 24 b4 ee 01 00 	movl   $0x1eeb4,(%esp)
   1bfbf:	e8 a2 50 ff ff       	call   11066 <Print>
   1bfc4:	eb fe                	jmp    1bfc4 <PFAT_Open+0x1d7>
   1bfc6:	8b 45 e0             	mov    -0x20(%ebp),%eax
   1bfc9:	89 04 24             	mov    %eax,(%esp)
   1bfcc:	e8 fb 85 ff ff       	call   145cc <Free>
   1bfd1:	eb 07                	jmp    1bfda <PFAT_Open+0x1ed>
   1bfd3:	c7 45 d8 00 00 00 00 	movl   $0x0,-0x28(%ebp)
   1bfda:	8b 45 d8             	mov    -0x28(%ebp),%eax
   1bfdd:	85 c0                	test   %eax,%eax
   1bfdf:	74 08                	je     1bfe9 <PFAT_Open+0x1fc>
   1bfe1:	89 04 24             	mov    %eax,(%esp)
   1bfe4:	e8 e3 85 ff ff       	call   145cc <Free>
   1bfe9:	8b 45 d4             	mov    -0x2c(%ebp),%eax
   1bfec:	89 04 24             	mov    %eax,(%esp)
   1bfef:	e8 f4 89 ff ff       	call   149e8 <Mutex_Unlock>
   1bff4:	85 db                	test   %ebx,%ebx
   1bff6:	0f 84 12 01 00 00    	je     1c10e <PFAT_Open+0x321>
   1bffc:	c7 44 24 14 00 00 00 	movl   $0x0,0x14(%esp)
   1c003:	00 
   1c004:	c7 44 24 10 00 00 00 	movl   $0x0,0x10(%esp)
   1c00b:	00 
   1c00c:	89 5c 24 0c          	mov    %ebx,0xc(%esp)
   1c010:	8b 46 18             	mov    0x18(%esi),%eax
   1c013:	89 44 24 08          	mov    %eax,0x8(%esp)
   1c017:	c7 44 24 04 00 00 00 	movl   $0x0,0x4(%esp)
   1c01e:	00 
   1c01f:	c7 04 24 1c 41 02 00 	movl   $0x2411c,(%esp)
   1c026:	e8 64 f4 ff ff       	call   1b48f <Allocate_File>
   1c02b:	85 c0                	test   %eax,%eax
   1c02d:	74 2e                	je     1c05d <PFAT_Open+0x270>
   1c02f:	8b 55 14             	mov    0x14(%ebp),%edx
   1c032:	89 02                	mov    %eax,(%edx)
   1c034:	e9 d5 00 00 00       	jmp    1c10e <PFAT_Open+0x321>
   1c039:	c7 45 e4 f5 ff ff ff 	movl   $0xfffffff5,-0x1c(%ebp)
   1c040:	e9 c9 00 00 00       	jmp    1c10e <PFAT_Open+0x321>
   1c045:	c7 45 e4 fe ff ff ff 	movl   $0xfffffffe,-0x1c(%ebp)
   1c04c:	e9 bd 00 00 00       	jmp    1c10e <PFAT_Open+0x321>
   1c051:	c7 45 e4 f5 ff ff ff 	movl   $0xfffffff5,-0x1c(%ebp)
   1c058:	e9 b1 00 00 00       	jmp    1c10e <PFAT_Open+0x321>
   1c05d:	c7 45 e4 f9 ff ff ff 	movl   $0xfffffff9,-0x1c(%ebp)
   1c064:	e9 a5 00 00 00       	jmp    1c10e <PFAT_Open+0x321>
   1c069:	8b 46 18             	mov    0x18(%esi),%eax
   1c06c:	a9 ff 01 00 00       	test   $0x1ff,%eax
   1c071:	0f 85 3e fe ff ff    	jne    1beb5 <PFAT_Open+0xc8>
   1c077:	e9 43 fe ff ff       	jmp    1bebf <PFAT_Open+0xd2>
   1c07c:	c7 43 24 00 00 00 00 	movl   $0x0,0x24(%ebx)
   1c083:	8b 47 54             	mov    0x54(%edi),%eax
   1c086:	85 c0                	test   %eax,%eax
   1c088:	0f 85 d8 fe ff ff    	jne    1bf66 <PFAT_Open+0x179>
   1c08e:	e9 c4 fe ff ff       	jmp    1bf57 <PFAT_Open+0x16a>
   1c093:	c7 04 24 4f 00 00 00 	movl   $0x4f,(%esp)
   1c09a:	e8 1c 51 ff ff       	call   111bb <Set_Current_Attr>
   1c09f:	a1 6c 5e 02 00       	mov    0x25e6c,%eax
   1c0a4:	89 44 24 18          	mov    %eax,0x18(%esp)
   1c0a8:	8b 45 04             	mov    0x4(%ebp),%eax
   1c0ab:	89 44 24 14          	mov    %eax,0x14(%esp)
   1c0af:	c7 44 24 10 4c 00 00 	movl   $0x4c,0x10(%esp)
   1c0b6:	00 
   1c0b7:	c7 44 24 0c bb 11 02 	movl   $0x211bb,0xc(%esp)
   1c0be:	00 
   1c0bf:	c7 44 24 08 ac 13 02 	movl   $0x213ac,0x8(%esp)
   1c0c6:	00 
   1c0c7:	c7 44 24 04 11 15 02 	movl   $0x21511,0x4(%esp)
   1c0ce:	00 
   1c0cf:	c7 04 24 b4 ee 01 00 	movl   $0x1eeb4,(%esp)
   1c0d6:	e8 8b 4f ff ff       	call   11066 <Print>
   1c0db:	e9 75 fe ff ff       	jmp    1bf55 <PFAT_Open+0x168>
   1c0e0:	c7 45 d8 00 00 00 00 	movl   $0x0,-0x28(%ebp)
   1c0e7:	89 1c 24             	mov    %ebx,(%esp)
   1c0ea:	e8 dd 84 ff ff       	call   145cc <Free>
   1c0ef:	83 7d e0 00          	cmpl   $0x0,-0x20(%ebp)
   1c0f3:	0f 85 cd fe ff ff    	jne    1bfc6 <PFAT_Open+0x1d9>
   1c0f9:	e9 dc fe ff ff       	jmp    1bfda <PFAT_Open+0x1ed>
   1c0fe:	8b 45 d4             	mov    -0x2c(%ebp),%eax
   1c101:	89 04 24             	mov    %eax,(%esp)
   1c104:	e8 df 88 ff ff       	call   149e8 <Mutex_Unlock>
   1c109:	e9 ee fe ff ff       	jmp    1bffc <PFAT_Open+0x20f>
   1c10e:	8b 45 e4             	mov    -0x1c(%ebp),%eax
   1c111:	83 c4 3c             	add    $0x3c,%esp
   1c114:	5b                   	pop    %ebx
   1c115:	5e                   	pop    %esi
   1c116:	5f                   	pop    %edi
   1c117:	5d                   	pop    %ebp
   1c118:	c3                   	ret    

0001c119 <PFAT_Mount>:
   1c119:	55                   	push   %ebp
   1c11a:	89 e5                	mov    %esp,%ebp
   1c11c:	57                   	push   %edi
   1c11d:	56                   	push   %esi
   1c11e:	53                   	push   %ebx
   1c11f:	83 ec 2c             	sub    $0x2c,%esp
   1c122:	c7 04 24 58 00 00 00 	movl   $0x58,(%esp)
   1c129:	e8 0c 83 ff ff       	call   1443a <Malloc>
   1c12e:	89 c6                	mov    %eax,%esi
   1c130:	b8 f9 ff ff ff       	mov    $0xfffffff9,%eax
   1c135:	85 f6                	test   %esi,%esi
   1c137:	0f 84 82 04 00 00    	je     1c5bf <PFAT_Mount+0x4a6>
   1c13d:	89 f7                	mov    %esi,%edi
   1c13f:	ba 58 00 00 00       	mov    $0x58,%edx
   1c144:	f7 c6 01 00 00 00    	test   $0x1,%esi
   1c14a:	74 08                	je     1c154 <PFAT_Mount+0x3b>
   1c14c:	c6 06 00             	movb   $0x0,(%esi)
   1c14f:	8d 7e 01             	lea    0x1(%esi),%edi
   1c152:	b2 57                	mov    $0x57,%dl
   1c154:	f7 c7 02 00 00 00    	test   $0x2,%edi
   1c15a:	74 0b                	je     1c167 <PFAT_Mount+0x4e>
   1c15c:	66 c7 07 00 00       	movw   $0x0,(%edi)
   1c161:	83 c7 02             	add    $0x2,%edi
   1c164:	83 ea 02             	sub    $0x2,%edx
   1c167:	89 d1                	mov    %edx,%ecx
   1c169:	c1 e9 02             	shr    $0x2,%ecx
   1c16c:	b8 00 00 00 00       	mov    $0x0,%eax
   1c171:	f3 ab                	rep stos %eax,%es:(%edi)
   1c173:	f6 c2 02             	test   $0x2,%dl
   1c176:	74 08                	je     1c180 <PFAT_Mount+0x67>
   1c178:	66 c7 07 00 00       	movw   $0x0,(%edi)
   1c17d:	83 c7 02             	add    $0x2,%edi
   1c180:	f6 c2 01             	test   $0x1,%dl
   1c183:	74 03                	je     1c188 <PFAT_Mount+0x6f>
   1c185:	c6 07 00             	movb   $0x0,(%edi)
   1c188:	83 3d e0 53 02 00 00 	cmpl   $0x0,0x253e0
   1c18f:	74 0c                	je     1c19d <PFAT_Mount+0x84>
   1c191:	c7 04 24 dc 13 02 00 	movl   $0x213dc,(%esp)
   1c198:	e8 c9 4e ff ff       	call   11066 <Print>
   1c19d:	c7 04 24 00 02 00 00 	movl   $0x200,(%esp)
   1c1a4:	e8 91 82 ff ff       	call   1443a <Malloc>
   1c1a9:	89 c3                	mov    %eax,%ebx
   1c1ab:	85 c0                	test   %eax,%eax
   1c1ad:	0f 84 e9 03 00 00    	je     1c59c <PFAT_Mount+0x483>
   1c1b3:	89 44 24 08          	mov    %eax,0x8(%esp)
   1c1b7:	c7 44 24 04 00 00 00 	movl   $0x0,0x4(%esp)
   1c1be:	00 
   1c1bf:	8b 45 08             	mov    0x8(%ebp),%eax
   1c1c2:	8b 40 08             	mov    0x8(%eax),%eax
   1c1c5:	89 04 24             	mov    %eax,(%esp)
   1c1c8:	e8 df dc ff ff       	call   19eac <Block_Read>
   1c1cd:	89 c7                	mov    %eax,%edi
   1c1cf:	85 c0                	test   %eax,%eax
   1c1d1:	0f 88 d8 03 00 00    	js     1c5af <PFAT_Mount+0x496>
   1c1d7:	83 3d e0 53 02 00 00 	cmpl   $0x0,0x253e0
   1c1de:	74 0c                	je     1c1ec <PFAT_Mount+0xd3>
   1c1e0:	c7 04 24 2b 12 02 00 	movl   $0x2122b,(%esp)
   1c1e7:	e8 7a 4e ff ff       	call   11066 <Print>
   1c1ec:	8b 93 e2 01 00 00    	mov    0x1e2(%ebx),%edx
   1c1f2:	89 16                	mov    %edx,(%esi)
   1c1f4:	8b 93 e6 01 00 00    	mov    0x1e6(%ebx),%edx
   1c1fa:	89 56 04             	mov    %edx,0x4(%esi)
   1c1fd:	8b 93 ea 01 00 00    	mov    0x1ea(%ebx),%edx
   1c203:	89 56 08             	mov    %edx,0x8(%esi)
   1c206:	8b 93 ee 01 00 00    	mov    0x1ee(%ebx),%edx
   1c20c:	89 56 0c             	mov    %edx,0xc(%esi)
   1c20f:	8b 93 f2 01 00 00    	mov    0x1f2(%ebx),%edx
   1c215:	89 56 10             	mov    %edx,0x10(%esi)
   1c218:	8b 93 f6 01 00 00    	mov    0x1f6(%ebx),%edx
   1c21e:	89 56 14             	mov    %edx,0x14(%esi)
   1c221:	8b 83 fa 01 00 00    	mov    0x1fa(%ebx),%eax
   1c227:	89 46 18             	mov    %eax,0x18(%esi)
   1c22a:	83 3d e0 53 02 00 00 	cmpl   $0x0,0x253e0
   1c231:	74 0c                	je     1c23f <PFAT_Mount+0x126>
   1c233:	c7 04 24 43 12 02 00 	movl   $0x21243,(%esp)
   1c23a:	e8 27 4e ff ff       	call   11066 <Print>
   1c23f:	8b 06                	mov    (%esi),%eax
   1c241:	3d 00 00 32 78       	cmp    $0x78320000,%eax
   1c246:	74 1a                	je     1c262 <PFAT_Mount+0x149>
   1c248:	89 44 24 04          	mov    %eax,0x4(%esp)
   1c24c:	c7 04 24 fc 13 02 00 	movl   $0x213fc,(%esp)
   1c253:	e8 0e 4e ff ff       	call   11066 <Print>
   1c258:	bf f6 ff ff ff       	mov    $0xfffffff6,%edi
   1c25d:	e9 4d 03 00 00       	jmp    1c5af <PFAT_Mount+0x496>
   1c262:	83 3d e0 53 02 00 00 	cmpl   $0x0,0x253e0
   1c269:	74 0c                	je     1c277 <PFAT_Mount+0x15e>
   1c26b:	c7 04 24 5d 12 02 00 	movl   $0x2125d,(%esp)
   1c272:	e8 ef 4d ff ff       	call   11066 <Print>
   1c277:	83 7e 04 00          	cmpl   $0x0,0x4(%esi)
   1c27b:	7e 12                	jle    1c28f <PFAT_Mount+0x176>
   1c27d:	83 7e 08 00          	cmpl   $0x0,0x8(%esi)
   1c281:	7e 0c                	jle    1c28f <PFAT_Mount+0x176>
   1c283:	83 7e 10 00          	cmpl   $0x0,0x10(%esi)
   1c287:	78 06                	js     1c28f <PFAT_Mount+0x176>
   1c289:	83 7e 0c 00          	cmpl   $0x0,0xc(%esi)
   1c28d:	7f 16                	jg     1c2a5 <PFAT_Mount+0x18c>
   1c28f:	c7 04 24 28 14 02 00 	movl   $0x21428,(%esp)
   1c296:	e8 cb 4d ff ff       	call   11066 <Print>
   1c29b:	bf f6 ff ff ff       	mov    $0xfffffff6,%edi
   1c2a0:	e9 0a 03 00 00       	jmp    1c5af <PFAT_Mount+0x496>
   1c2a5:	83 3d e0 53 02 00 00 	cmpl   $0x0,0x253e0
   1c2ac:	74 0c                	je     1c2ba <PFAT_Mount+0x1a1>
   1c2ae:	c7 04 24 50 14 02 00 	movl   $0x21450,(%esp)
   1c2b5:	e8 ac 4d ff ff       	call   11066 <Print>
   1c2ba:	8b 46 08             	mov    0x8(%esi),%eax
   1c2bd:	c1 e0 09             	shl    $0x9,%eax
   1c2c0:	89 04 24             	mov    %eax,(%esp)
   1c2c3:	e8 72 81 ff ff       	call   1443a <Malloc>
   1c2c8:	89 46 1c             	mov    %eax,0x1c(%esi)
   1c2cb:	85 c0                	test   %eax,%eax
   1c2cd:	0f 84 4a 02 00 00    	je     1c51d <PFAT_Mount+0x404>
   1c2d3:	83 7e 08 00          	cmpl   $0x0,0x8(%esi)
   1c2d7:	7e 40                	jle    1c319 <PFAT_Mount+0x200>
   1c2d9:	b8 00 00 00 00       	mov    $0x0,%eax
   1c2de:	89 5d e4             	mov    %ebx,-0x1c(%ebp)
   1c2e1:	89 c3                	mov    %eax,%ebx
   1c2e3:	8b 7d 08             	mov    0x8(%ebp),%edi
   1c2e6:	89 d8                	mov    %ebx,%eax
   1c2e8:	c1 e0 09             	shl    $0x9,%eax
   1c2eb:	03 46 1c             	add    0x1c(%esi),%eax
   1c2ee:	89 44 24 08          	mov    %eax,0x8(%esp)
   1c2f2:	89 d8                	mov    %ebx,%eax
   1c2f4:	03 46 04             	add    0x4(%esi),%eax
   1c2f7:	89 44 24 04          	mov    %eax,0x4(%esp)
   1c2fb:	8b 47 08             	mov    0x8(%edi),%eax
   1c2fe:	89 04 24             	mov    %eax,(%esp)
   1c301:	e8 a6 db ff ff       	call   19eac <Block_Read>
   1c306:	85 c0                	test   %eax,%eax
   1c308:	0f 88 95 02 00 00    	js     1c5a3 <PFAT_Mount+0x48a>
   1c30e:	83 c3 01             	add    $0x1,%ebx
   1c311:	39 5e 08             	cmp    %ebx,0x8(%esi)
   1c314:	7f d0                	jg     1c2e6 <PFAT_Mount+0x1cd>
   1c316:	8b 5d e4             	mov    -0x1c(%ebp),%ebx
   1c319:	83 3d e0 53 02 00 00 	cmpl   $0x0,0x253e0
   1c320:	74 0c                	je     1c32e <PFAT_Mount+0x215>
   1c322:	c7 04 24 7a 12 02 00 	movl   $0x2127a,(%esp)
   1c329:	e8 38 4d ff ff       	call   11066 <Print>
   1c32e:	6b 46 10 1c          	imul   $0x1c,0x10(%esi),%eax
   1c332:	89 c7                	mov    %eax,%edi
   1c334:	a9 ff 01 00 00       	test   $0x1ff,%eax
   1c339:	74 0b                	je     1c346 <PFAT_Mount+0x22d>
   1c33b:	25 00 fe ff ff       	and    $0xfffffe00,%eax
   1c340:	8d b8 00 02 00 00    	lea    0x200(%eax),%edi
   1c346:	89 7d e4             	mov    %edi,-0x1c(%ebp)
   1c349:	89 3c 24             	mov    %edi,(%esp)
   1c34c:	e8 e9 80 ff ff       	call   1443a <Malloc>
   1c351:	89 46 20             	mov    %eax,0x20(%esi)
   1c354:	83 3d e0 53 02 00 00 	cmpl   $0x0,0x253e0
   1c35b:	74 10                	je     1c36d <PFAT_Mount+0x254>
   1c35d:	89 7c 24 04          	mov    %edi,0x4(%esp)
   1c361:	c7 04 24 88 14 02 00 	movl   $0x21488,(%esp)
   1c368:	e8 f9 4c ff ff       	call   11066 <Print>
   1c36d:	83 7d e4 00          	cmpl   $0x0,-0x1c(%ebp)
   1c371:	7e 41                	jle    1c3b4 <PFAT_Mount+0x29b>
   1c373:	b8 00 00 00 00       	mov    $0x0,%eax
   1c378:	89 5d e0             	mov    %ebx,-0x20(%ebp)
   1c37b:	89 c3                	mov    %eax,%ebx
   1c37d:	8b 7d 08             	mov    0x8(%ebp),%edi
   1c380:	69 c3 00 38 00 00    	imul   $0x3800,%ebx,%eax
   1c386:	03 46 20             	add    0x20(%esi),%eax
   1c389:	89 44 24 08          	mov    %eax,0x8(%esp)
   1c38d:	89 d8                	mov    %ebx,%eax
   1c38f:	03 46 0c             	add    0xc(%esi),%eax
   1c392:	89 44 24 04          	mov    %eax,0x4(%esp)
   1c396:	8b 47 08             	mov    0x8(%edi),%eax
   1c399:	89 04 24             	mov    %eax,(%esp)
   1c39c:	e8 0b db ff ff       	call   19eac <Block_Read>
   1c3a1:	85 c0                	test   %eax,%eax
   1c3a3:	0f 88 01 02 00 00    	js     1c5aa <PFAT_Mount+0x491>
   1c3a9:	81 c3 00 02 00 00    	add    $0x200,%ebx
   1c3af:	39 5d e4             	cmp    %ebx,-0x1c(%ebp)
   1c3b2:	7f cc                	jg     1c380 <PFAT_Mount+0x267>
   1c3b4:	83 3d e0 53 02 00 00 	cmpl   $0x0,0x253e0
   1c3bb:	74 0c                	je     1c3c9 <PFAT_Mount+0x2b0>
   1c3bd:	c7 04 24 a8 14 02 00 	movl   $0x214a8,(%esp)
   1c3c4:	e8 9d 4c ff ff       	call   11066 <Print>
   1c3c9:	8d 46 24             	lea    0x24(%esi),%eax
   1c3cc:	89 c2                	mov    %eax,%edx
   1c3ce:	b9 1c 00 00 00       	mov    $0x1c,%ecx
   1c3d3:	bb 00 00 00 00       	mov    $0x0,%ebx
   1c3d8:	a8 01                	test   $0x1,%al
   1c3da:	74 09                	je     1c3e5 <PFAT_Mount+0x2cc>
   1c3dc:	c6 46 24 00          	movb   $0x0,0x24(%esi)
   1c3e0:	8d 56 25             	lea    0x25(%esi),%edx
   1c3e3:	b1 1b                	mov    $0x1b,%cl
   1c3e5:	f6 c2 02             	test   $0x2,%dl
   1c3e8:	74 0b                	je     1c3f5 <PFAT_Mount+0x2dc>
   1c3ea:	66 c7 02 00 00       	movw   $0x0,(%edx)
   1c3ef:	83 c2 02             	add    $0x2,%edx
   1c3f2:	83 e9 02             	sub    $0x2,%ecx
   1c3f5:	89 cf                	mov    %ecx,%edi
   1c3f7:	83 e7 fc             	and    $0xfffffffc,%edi
   1c3fa:	b8 00 00 00 00       	mov    $0x0,%eax
   1c3ff:	89 1c 02             	mov    %ebx,(%edx,%eax,1)
   1c402:	83 c0 04             	add    $0x4,%eax
   1c405:	39 f8                	cmp    %edi,%eax
   1c407:	72 f6                	jb     1c3ff <PFAT_Mount+0x2e6>
   1c409:	01 c2                	add    %eax,%edx
   1c40b:	f6 c1 02             	test   $0x2,%cl
   1c40e:	74 08                	je     1c418 <PFAT_Mount+0x2ff>
   1c410:	66 c7 02 00 00       	movw   $0x0,(%edx)
   1c415:	83 c2 02             	add    $0x2,%edx
   1c418:	f6 c1 01             	test   $0x1,%cl
   1c41b:	74 03                	je     1c420 <PFAT_Mount+0x307>
   1c41d:	c6 02 00             	movb   $0x0,(%edx)
   1c420:	80 4e 30 11          	orb    $0x11,0x30(%esi)
   1c424:	6b 46 10 1c          	imul   $0x1c,0x10(%esi),%eax
   1c428:	89 46 3c             	mov    %eax,0x3c(%esi)
   1c42b:	8d 46 40             	lea    0x40(%esi),%eax
   1c42e:	89 04 24             	mov    %eax,(%esp)
   1c431:	e8 52 84 ff ff       	call   14888 <Mutex_Init>
   1c436:	c7 46 54 00 00 00 00 	movl   $0x0,0x54(%esi)
   1c43d:	c7 46 50 00 00 00 00 	movl   $0x0,0x50(%esi)
   1c444:	e8 d6 f3 ff ff       	call   1b81f <Get_Paging_Device>
   1c449:	85 c0                	test   %eax,%eax
   1c44b:	0f 85 ac 00 00 00    	jne    1c4fd <PFAT_Mount+0x3e4>
   1c451:	ba 98 12 02 00       	mov    $0x21298,%edx
   1c456:	89 f0                	mov    %esi,%eax
   1c458:	e8 1a f4 ff ff       	call   1b877 <PFAT_Lookup>
   1c45d:	89 45 e4             	mov    %eax,-0x1c(%ebp)
   1c460:	85 c0                	test   %eax,%eax
   1c462:	0f 84 95 00 00 00    	je     1c4fd <PFAT_Mount+0x3e4>
   1c468:	c7 04 24 10 00 00 00 	movl   $0x10,(%esp)
   1c46f:	e8 c6 7f ff ff       	call   1443a <Malloc>
   1c474:	89 c3                	mov    %eax,%ebx
   1c476:	85 c0                	test   %eax,%eax
   1c478:	0f 84 f9 00 00 00    	je     1c577 <PFAT_Mount+0x45e>
   1c47e:	8b 7d 08             	mov    0x8(%ebp),%edi
   1c481:	8b 7f 04             	mov    0x4(%edi),%edi
   1c484:	b8 00 00 00 00       	mov    $0x0,%eax
   1c489:	b9 ff ff ff ff       	mov    $0xffffffff,%ecx
   1c48e:	f2 ae                	repnz scas %es:(%edi),%al
   1c490:	f7 d1                	not    %ecx
   1c492:	8d 79 0f             	lea    0xf(%ecx),%edi
   1c495:	89 7d e0             	mov    %edi,-0x20(%ebp)
   1c498:	89 3c 24             	mov    %edi,(%esp)
   1c49b:	e8 9a 7f ff ff       	call   1443a <Malloc>
   1c4a0:	89 c7                	mov    %eax,%edi
   1c4a2:	85 c0                	test   %eax,%eax
   1c4a4:	0f 84 a3 00 00 00    	je     1c54d <PFAT_Mount+0x434>
   1c4aa:	c7 44 24 10 98 12 02 	movl   $0x21298,0x10(%esp)
   1c4b1:	00 
   1c4b2:	8b 4d 08             	mov    0x8(%ebp),%ecx
   1c4b5:	8b 41 04             	mov    0x4(%ecx),%eax
   1c4b8:	89 44 24 0c          	mov    %eax,0xc(%esp)
   1c4bc:	c7 44 24 08 a6 12 02 	movl   $0x212a6,0x8(%esp)
   1c4c3:	00 
   1c4c4:	8b 55 e0             	mov    -0x20(%ebp),%edx
   1c4c7:	89 54 24 04          	mov    %edx,0x4(%esp)
   1c4cb:	89 3c 24             	mov    %edi,(%esp)
   1c4ce:	e8 d8 28 00 00       	call   1edab <snprintf>
   1c4d3:	89 3b                	mov    %edi,(%ebx)
   1c4d5:	8b 7d 08             	mov    0x8(%ebp),%edi
   1c4d8:	8b 47 08             	mov    0x8(%edi),%eax
   1c4db:	89 43 04             	mov    %eax,0x4(%ebx)
   1c4de:	8b 4d e4             	mov    -0x1c(%ebp),%ecx
   1c4e1:	8b 41 14             	mov    0x14(%ecx),%eax
   1c4e4:	89 43 08             	mov    %eax,0x8(%ebx)
   1c4e7:	8b 41 18             	mov    0x18(%ecx),%eax
   1c4ea:	b9 00 02 00 00       	mov    $0x200,%ecx
   1c4ef:	99                   	cltd   
   1c4f0:	f7 f9                	idiv   %ecx
   1c4f2:	89 43 0c             	mov    %eax,0xc(%ebx)
   1c4f5:	89 1c 24             	mov    %ebx,(%esp)
   1c4f8:	e8 52 f2 ff ff       	call   1b74f <Register_Paging_Device>
   1c4fd:	8b 45 08             	mov    0x8(%ebp),%eax
   1c500:	c7 00 ec 40 02 00    	movl   $0x240ec,(%eax)
   1c506:	89 70 0c             	mov    %esi,0xc(%eax)
   1c509:	b8 00 00 00 00       	mov    $0x0,%eax
   1c50e:	e9 ac 00 00 00       	jmp    1c5bf <PFAT_Mount+0x4a6>
   1c513:	89 04 24             	mov    %eax,(%esp)
   1c516:	e8 b1 80 ff ff       	call   145cc <Free>
   1c51b:	eb 05                	jmp    1c522 <PFAT_Mount+0x409>
   1c51d:	bf f9 ff ff ff       	mov    $0xfffffff9,%edi
   1c522:	8b 46 20             	mov    0x20(%esi),%eax
   1c525:	85 c0                	test   %eax,%eax
   1c527:	74 08                	je     1c531 <PFAT_Mount+0x418>
   1c529:	89 04 24             	mov    %eax,(%esp)
   1c52c:	e8 9b 80 ff ff       	call   145cc <Free>
   1c531:	89 34 24             	mov    %esi,(%esp)
   1c534:	e8 93 80 ff ff       	call   145cc <Free>
   1c539:	85 db                	test   %ebx,%ebx
   1c53b:	74 0c                	je     1c549 <PFAT_Mount+0x430>
   1c53d:	89 1c 24             	mov    %ebx,(%esp)
   1c540:	e8 87 80 ff ff       	call   145cc <Free>
   1c545:	89 f8                	mov    %edi,%eax
   1c547:	eb 76                	jmp    1c5bf <PFAT_Mount+0x4a6>
   1c549:	89 f8                	mov    %edi,%eax
   1c54b:	eb 72                	jmp    1c5bf <PFAT_Mount+0x4a6>
   1c54d:	8b 45 08             	mov    0x8(%ebp),%eax
   1c550:	8b 40 08             	mov    0x8(%eax),%eax
   1c553:	89 44 24 08          	mov    %eax,0x8(%esp)
   1c557:	8b 45 08             	mov    0x8(%ebp),%eax
   1c55a:	8b 40 04             	mov    0x4(%eax),%eax
   1c55d:	89 44 24 04          	mov    %eax,0x4(%esp)
   1c561:	c7 04 24 d4 14 02 00 	movl   $0x214d4,(%esp)
   1c568:	e8 f9 4a ff ff       	call   11066 <Print>
   1c56d:	89 1c 24             	mov    %ebx,(%esp)
   1c570:	e8 57 80 ff ff       	call   145cc <Free>
   1c575:	eb 86                	jmp    1c4fd <PFAT_Mount+0x3e4>
   1c577:	8b 45 08             	mov    0x8(%ebp),%eax
   1c57a:	8b 40 08             	mov    0x8(%eax),%eax
   1c57d:	89 44 24 08          	mov    %eax,0x8(%esp)
   1c581:	8b 45 08             	mov    0x8(%ebp),%eax
   1c584:	8b 40 04             	mov    0x4(%eax),%eax
   1c587:	89 44 24 04          	mov    %eax,0x4(%esp)
   1c58b:	c7 04 24 d4 14 02 00 	movl   $0x214d4,(%esp)
   1c592:	e8 cf 4a ff ff       	call   11066 <Print>
   1c597:	e9 61 ff ff ff       	jmp    1c4fd <PFAT_Mount+0x3e4>
   1c59c:	bf f9 ff ff ff       	mov    $0xfffffff9,%edi
   1c5a1:	eb 0c                	jmp    1c5af <PFAT_Mount+0x496>
   1c5a3:	8b 5d e4             	mov    -0x1c(%ebp),%ebx
   1c5a6:	89 c7                	mov    %eax,%edi
   1c5a8:	eb 05                	jmp    1c5af <PFAT_Mount+0x496>
   1c5aa:	8b 5d e0             	mov    -0x20(%ebp),%ebx
   1c5ad:	89 c7                	mov    %eax,%edi
   1c5af:	8b 46 1c             	mov    0x1c(%esi),%eax
   1c5b2:	85 c0                	test   %eax,%eax
   1c5b4:	0f 85 59 ff ff ff    	jne    1c513 <PFAT_Mount+0x3fa>
   1c5ba:	e9 63 ff ff ff       	jmp    1c522 <PFAT_Mount+0x409>
   1c5bf:	83 c4 2c             	add    $0x2c,%esp
   1c5c2:	5b                   	pop    %ebx
   1c5c3:	5e                   	pop    %esi
   1c5c4:	5f                   	pop    %edi
   1c5c5:	5d                   	pop    %ebp
   1c5c6:	c3                   	ret    

0001c5c7 <Init_PFAT>:
   1c5c7:	55                   	push   %ebp
   1c5c8:	89 e5                	mov    %esp,%ebp
   1c5ca:	83 ec 18             	sub    $0x18,%esp
   1c5cd:	c7 44 24 04 e4 40 02 	movl   $0x240e4,0x4(%esp)
   1c5d4:	00 
   1c5d5:	c7 04 24 ac 12 02 00 	movl   $0x212ac,(%esp)
   1c5dc:	e8 4f e7 ff ff       	call   1ad30 <Register_Filesystem>
   1c5e1:	c9                   	leave  
   1c5e2:	c3                   	ret    
   1c5e3:	66 90                	xchg   %ax,%ax
   1c5e5:	66 90                	xchg   %ax,%ax
   1c5e7:	66 90                	xchg   %ax,%ax
   1c5e9:	66 90                	xchg   %ax,%ax
   1c5eb:	66 90                	xchg   %ax,%ax
   1c5ed:	66 90                	xchg   %ax,%ax
   1c5ef:	90                   	nop

0001c5f0 <Create_Bit_Set>:
   1c5f0:	55                   	push   %ebp
   1c5f1:	89 e5                	mov    %esp,%ebp
   1c5f3:	56                   	push   %esi
   1c5f4:	53                   	push   %ebx
   1c5f5:	83 ec 10             	sub    $0x10,%esp
   1c5f8:	8b 45 08             	mov    0x8(%ebp),%eax
   1c5fb:	a8 07                	test   $0x7,%al
   1c5fd:	0f 95 c2             	setne  %dl
   1c600:	0f b6 d2             	movzbl %dl,%edx
   1c603:	c1 e8 03             	shr    $0x3,%eax
   1c606:	8d 34 02             	lea    (%edx,%eax,1),%esi
   1c609:	89 34 24             	mov    %esi,(%esp)
   1c60c:	e8 29 7e ff ff       	call   1443a <Malloc>
   1c611:	89 c3                	mov    %eax,%ebx
   1c613:	85 c0                	test   %eax,%eax
   1c615:	74 14                	je     1c62b <Create_Bit_Set+0x3b>
   1c617:	89 74 24 08          	mov    %esi,0x8(%esp)
   1c61b:	c7 44 24 04 00 00 00 	movl   $0x0,0x4(%esp)
   1c622:	00 
   1c623:	89 04 24             	mov    %eax,(%esp)
   1c626:	e8 a6 23 00 00       	call   1e9d1 <memset>
   1c62b:	89 d8                	mov    %ebx,%eax
   1c62d:	83 c4 10             	add    $0x10,%esp
   1c630:	5b                   	pop    %ebx
   1c631:	5e                   	pop    %esi
   1c632:	5d                   	pop    %ebp
   1c633:	c3                   	ret    

0001c634 <Set_Bit>:
   1c634:	55                   	push   %ebp
   1c635:	89 e5                	mov    %esp,%ebp
   1c637:	8b 4d 0c             	mov    0xc(%ebp),%ecx
   1c63a:	89 c8                	mov    %ecx,%eax
   1c63c:	c1 e8 03             	shr    $0x3,%eax
   1c63f:	03 45 08             	add    0x8(%ebp),%eax
   1c642:	83 e1 07             	and    $0x7,%ecx
   1c645:	ba 01 00 00 00       	mov    $0x1,%edx
   1c64a:	d3 e2                	shl    %cl,%edx
   1c64c:	08 10                	or     %dl,(%eax)
   1c64e:	5d                   	pop    %ebp
   1c64f:	c3                   	ret    

0001c650 <Clear_Bit>:
   1c650:	55                   	push   %ebp
   1c651:	89 e5                	mov    %esp,%ebp
   1c653:	8b 4d 0c             	mov    0xc(%ebp),%ecx
   1c656:	89 c8                	mov    %ecx,%eax
   1c658:	c1 e8 03             	shr    $0x3,%eax
   1c65b:	03 45 08             	add    0x8(%ebp),%eax
   1c65e:	83 e1 07             	and    $0x7,%ecx
   1c661:	ba 01 00 00 00       	mov    $0x1,%edx
   1c666:	d3 e2                	shl    %cl,%edx
   1c668:	f7 d2                	not    %edx
   1c66a:	20 10                	and    %dl,(%eax)
   1c66c:	5d                   	pop    %ebp
   1c66d:	c3                   	ret    

0001c66e <Is_Bit_Set>:
   1c66e:	55                   	push   %ebp
   1c66f:	89 e5                	mov    %esp,%ebp
   1c671:	8b 4d 0c             	mov    0xc(%ebp),%ecx
   1c674:	89 c8                	mov    %ecx,%eax
   1c676:	c1 e8 03             	shr    $0x3,%eax
   1c679:	8b 55 08             	mov    0x8(%ebp),%edx
   1c67c:	0f b6 04 02          	movzbl (%edx,%eax,1),%eax
   1c680:	83 e1 07             	and    $0x7,%ecx
   1c683:	d3 f8                	sar    %cl,%eax
   1c685:	83 e0 01             	and    $0x1,%eax
   1c688:	5d                   	pop    %ebp
   1c689:	c3                   	ret    

0001c68a <Find_First_Free_Bit>:
   1c68a:	55                   	push   %ebp
   1c68b:	89 e5                	mov    %esp,%ebp
   1c68d:	53                   	push   %ebx
   1c68e:	83 ec 24             	sub    $0x24,%esp
   1c691:	8b 4d 08             	mov    0x8(%ebp),%ecx
   1c694:	8b 45 0c             	mov    0xc(%ebp),%eax
   1c697:	a8 07                	test   $0x7,%al
   1c699:	0f 95 c3             	setne  %bl
   1c69c:	0f b6 db             	movzbl %bl,%ebx
   1c69f:	c1 e8 03             	shr    $0x3,%eax
   1c6a2:	01 c3                	add    %eax,%ebx
   1c6a4:	0f 84 92 00 00 00    	je     1c73c <Find_First_Free_Bit+0xb2>
   1c6aa:	0f b6 11             	movzbl (%ecx),%edx
   1c6ad:	b8 00 00 00 00       	mov    $0x0,%eax
   1c6b2:	80 fa ff             	cmp    $0xff,%dl
   1c6b5:	74 77                	je     1c72e <Find_First_Free_Bit+0xa4>
   1c6b7:	e9 87 00 00 00       	jmp    1c743 <Find_First_Free_Bit+0xb9>
   1c6bc:	0f b6 14 01          	movzbl (%ecx,%eax,1),%edx
   1c6c0:	80 fa ff             	cmp    $0xff,%dl
   1c6c3:	74 69                	je     1c72e <Find_First_Free_Bit+0xa4>
   1c6c5:	e9 7e 00 00 00       	jmp    1c748 <Find_First_Free_Bit+0xbe>
   1c6ca:	0f a3 d1             	bt     %edx,%ecx
   1c6cd:	72 0d                	jb     1c6dc <Find_First_Free_Bit+0x52>
   1c6cf:	90                   	nop
   1c6d0:	eb 05                	jmp    1c6d7 <Find_First_Free_Bit+0x4d>
   1c6d2:	ba 00 00 00 00       	mov    $0x0,%edx
   1c6d7:	8d 04 c2             	lea    (%edx,%eax,8),%eax
   1c6da:	eb 7e                	jmp    1c75a <Find_First_Free_Bit+0xd0>
   1c6dc:	83 c2 01             	add    $0x1,%edx
   1c6df:	83 fa 08             	cmp    $0x8,%edx
   1c6e2:	75 e6                	jne    1c6ca <Find_First_Free_Bit+0x40>
   1c6e4:	c7 04 24 4f 00 00 00 	movl   $0x4f,(%esp)
   1c6eb:	e8 cb 4a ff ff       	call   111bb <Set_Current_Attr>
   1c6f0:	a1 6c 5e 02 00       	mov    0x25e6c,%eax
   1c6f5:	89 44 24 18          	mov    %eax,0x18(%esp)
   1c6f9:	8b 45 04             	mov    0x4(%ebp),%eax
   1c6fc:	89 44 24 14          	mov    %eax,0x14(%esp)
   1c700:	c7 44 24 10 4d 00 00 	movl   $0x4d,0x10(%esp)
   1c707:	00 
   1c708:	c7 44 24 0c 53 15 02 	movl   $0x21553,0xc(%esp)
   1c70f:	00 
   1c710:	c7 44 24 08 6b f4 01 	movl   $0x1f46b,0x8(%esp)
   1c717:	00 
   1c718:	c7 44 24 04 6a 15 02 	movl   $0x2156a,0x4(%esp)
   1c71f:	00 
   1c720:	c7 04 24 b4 ee 01 00 	movl   $0x1eeb4,(%esp)
   1c727:	e8 3a 49 ff ff       	call   11066 <Print>
   1c72c:	eb fe                	jmp    1c72c <Find_First_Free_Bit+0xa2>
   1c72e:	83 c0 01             	add    $0x1,%eax
   1c731:	39 d8                	cmp    %ebx,%eax
   1c733:	75 87                	jne    1c6bc <Find_First_Free_Bit+0x32>
   1c735:	b8 ff ff ff ff       	mov    $0xffffffff,%eax
   1c73a:	eb 1e                	jmp    1c75a <Find_First_Free_Bit+0xd0>
   1c73c:	b8 ff ff ff ff       	mov    $0xffffffff,%eax
   1c741:	eb 17                	jmp    1c75a <Find_First_Free_Bit+0xd0>
   1c743:	b8 00 00 00 00       	mov    $0x0,%eax
   1c748:	0f b6 ca             	movzbl %dl,%ecx
   1c74b:	f6 c2 01             	test   $0x1,%dl
   1c74e:	74 82                	je     1c6d2 <Find_First_Free_Bit+0x48>
   1c750:	ba 01 00 00 00       	mov    $0x1,%edx
   1c755:	e9 70 ff ff ff       	jmp    1c6ca <Find_First_Free_Bit+0x40>
   1c75a:	83 c4 24             	add    $0x24,%esp
   1c75d:	5b                   	pop    %ebx
   1c75e:	5d                   	pop    %ebp
   1c75f:	c3                   	ret    

0001c760 <Find_First_N_Free>:
   1c760:	55                   	push   %ebp
   1c761:	89 e5                	mov    %esp,%ebp
   1c763:	57                   	push   %edi
   1c764:	56                   	push   %esi
   1c765:	53                   	push   %ebx
   1c766:	83 ec 0c             	sub    $0xc,%esp
   1c769:	8b 7d 08             	mov    0x8(%ebp),%edi
   1c76c:	8b 45 10             	mov    0x10(%ebp),%eax
   1c76f:	2b 45 0c             	sub    0xc(%ebp),%eax
   1c772:	89 45 f0             	mov    %eax,-0x10(%ebp)
   1c775:	74 55                	je     1c7cc <Find_First_N_Free+0x6c>
   1c777:	be 00 00 00 00       	mov    $0x0,%esi
   1c77c:	89 74 24 04          	mov    %esi,0x4(%esp)
   1c780:	89 3c 24             	mov    %edi,(%esp)
   1c783:	e8 e6 fe ff ff       	call   1c66e <Is_Bit_Set>
   1c788:	84 c0                	test   %al,%al
   1c78a:	75 36                	jne    1c7c2 <Find_First_N_Free+0x62>
   1c78c:	83 7d 0c 01          	cmpl   $0x1,0xc(%ebp)
   1c790:	76 22                	jbe    1c7b4 <Find_First_N_Free+0x54>
   1c792:	bb 01 00 00 00       	mov    $0x1,%ebx
   1c797:	8d 04 33             	lea    (%ebx,%esi,1),%eax
   1c79a:	89 44 24 04          	mov    %eax,0x4(%esp)
   1c79e:	89 3c 24             	mov    %edi,(%esp)
   1c7a1:	e8 c8 fe ff ff       	call   1c66e <Is_Bit_Set>
   1c7a6:	84 c0                	test   %al,%al
   1c7a8:	75 0f                	jne    1c7b9 <Find_First_N_Free+0x59>
   1c7aa:	83 c3 01             	add    $0x1,%ebx
   1c7ad:	3b 5d 0c             	cmp    0xc(%ebp),%ebx
   1c7b0:	75 e5                	jne    1c797 <Find_First_N_Free+0x37>
   1c7b2:	eb 0a                	jmp    1c7be <Find_First_N_Free+0x5e>
   1c7b4:	bb 01 00 00 00       	mov    $0x1,%ebx
   1c7b9:	3b 5d 0c             	cmp    0xc(%ebp),%ebx
   1c7bc:	75 04                	jne    1c7c2 <Find_First_N_Free+0x62>
   1c7be:	89 f0                	mov    %esi,%eax
   1c7c0:	eb 16                	jmp    1c7d8 <Find_First_N_Free+0x78>
   1c7c2:	83 c6 01             	add    $0x1,%esi
   1c7c5:	3b 75 f0             	cmp    -0x10(%ebp),%esi
   1c7c8:	75 b2                	jne    1c77c <Find_First_N_Free+0x1c>
   1c7ca:	eb 07                	jmp    1c7d3 <Find_First_N_Free+0x73>
   1c7cc:	b8 ff ff ff ff       	mov    $0xffffffff,%eax
   1c7d1:	eb 05                	jmp    1c7d8 <Find_First_N_Free+0x78>
   1c7d3:	b8 ff ff ff ff       	mov    $0xffffffff,%eax
   1c7d8:	83 c4 0c             	add    $0xc,%esp
   1c7db:	5b                   	pop    %ebx
   1c7dc:	5e                   	pop    %esi
   1c7dd:	5f                   	pop    %edi
   1c7de:	5d                   	pop    %ebp
   1c7df:	c3                   	ret    

0001c7e0 <Destroy_Bit_Set>:
   1c7e0:	55                   	push   %ebp
   1c7e1:	89 e5                	mov    %esp,%ebp
   1c7e3:	83 ec 18             	sub    $0x18,%esp
   1c7e6:	8b 45 08             	mov    0x8(%ebp),%eax
   1c7e9:	89 04 24             	mov    %eax,(%esp)
   1c7ec:	e8 db 7d ff ff       	call   145cc <Free>
   1c7f1:	c9                   	leave  
   1c7f2:	c3                   	ret    
   1c7f3:	66 90                	xchg   %ax,%ax
   1c7f5:	66 90                	xchg   %ax,%ax
   1c7f7:	66 90                	xchg   %ax,%ax
   1c7f9:	66 90                	xchg   %ax,%ax
   1c7fb:	66 90                	xchg   %ax,%ax
   1c7fd:	66 90                	xchg   %ax,%ax
   1c7ff:	90                   	nop

0001c800 <Page_Fault_Handler>:
   1c800:	55                   	push   %ebp
   1c801:	89 e5                	mov    %esp,%ebp
   1c803:	57                   	push   %edi
   1c804:	56                   	push   %esi
   1c805:	53                   	push   %ebx
   1c806:	83 ec 2c             	sub    $0x2c,%esp
   1c809:	e8 31 3a ff ff       	call   1023f <Interrupts_Enabled>
   1c80e:	84 c0                	test   %al,%al
   1c810:	74 4a                	je     1c85c <Page_Fault_Handler+0x5c>
   1c812:	c7 04 24 4f 00 00 00 	movl   $0x4f,(%esp)
   1c819:	e8 9d 49 ff ff       	call   111bb <Set_Current_Attr>
   1c81e:	a1 6c 5e 02 00       	mov    0x25e6c,%eax
   1c823:	89 44 24 18          	mov    %eax,0x18(%esp)
   1c827:	8b 45 04             	mov    0x4(%ebp),%eax
   1c82a:	89 44 24 14          	mov    %eax,0x14(%esp)
   1c82e:	c7 44 24 10 57 00 00 	movl   $0x57,0x10(%esp)
   1c835:	00 
   1c836:	c7 44 24 0c 7e 15 02 	movl   $0x2157e,0xc(%esp)
   1c83d:	00 
   1c83e:	c7 44 24 08 d2 ef 01 	movl   $0x1efd2,0x8(%esp)
   1c845:	00 
   1c846:	c7 44 24 04 0a 17 02 	movl   $0x2170a,0x4(%esp)
   1c84d:	00 
   1c84e:	c7 04 24 b4 ee 01 00 	movl   $0x1eeb4,(%esp)
   1c855:	e8 0c 48 ff ff       	call   11066 <Print>
   1c85a:	eb fe                	jmp    1c85a <Page_Fault_Handler+0x5a>
   1c85c:	0f 20 d0             	mov    %cr2,%eax
   1c85f:	89 45 e4             	mov    %eax,-0x1c(%ebp)
   1c862:	83 3d e4 53 02 00 00 	cmpl   $0x0,0x253e4
   1c869:	74 10                	je     1c87b <Page_Fault_Handler+0x7b>
   1c86b:	89 44 24 04          	mov    %eax,0x4(%esp)
   1c86f:	c7 04 24 95 15 02 00 	movl   $0x21595,(%esp)
   1c876:	e8 eb 47 ff ff       	call   11066 <Print>
   1c87b:	8b 45 08             	mov    0x8(%ebp),%eax
   1c87e:	8b 58 30             	mov    0x30(%eax),%ebx
   1c881:	c7 04 24 30 16 02 00 	movl   $0x21630,(%esp)
   1c888:	e8 d9 47 ff ff       	call   11066 <Print>
   1c88d:	a1 c8 4b 02 00       	mov    0x24bc8,%eax
   1c892:	89 44 24 0c          	mov    %eax,0xc(%esp)
   1c896:	8b 45 e4             	mov    -0x1c(%ebp),%eax
   1c899:	89 44 24 08          	mov    %eax,0x8(%esp)
   1c89d:	a1 6c 5e 02 00       	mov    0x25e6c,%eax
   1c8a2:	8b 40 34             	mov    0x34(%eax),%eax
   1c8a5:	89 44 24 04          	mov    %eax,0x4(%esp)
   1c8a9:	c7 04 24 50 16 02 00 	movl   $0x21650,(%esp)
   1c8b0:	e8 b1 47 ff ff       	call   11066 <Print>
   1c8b5:	89 de                	mov    %ebx,%esi
   1c8b7:	83 e6 01             	and    $0x1,%esi
   1c8ba:	74 0e                	je     1c8ca <Page_Fault_Handler+0xca>
   1c8bc:	c7 04 24 a6 15 02 00 	movl   $0x215a6,(%esp)
   1c8c3:	e8 9e 47 ff ff       	call   11066 <Print>
   1c8c8:	eb 0c                	jmp    1c8d6 <Page_Fault_Handler+0xd6>
   1c8ca:	c7 04 24 c0 15 02 00 	movl   $0x215c0,(%esp)
   1c8d1:	e8 90 47 ff ff       	call   11066 <Print>
   1c8d6:	f6 c3 02             	test   $0x2,%bl
   1c8d9:	74 0e                	je     1c8e9 <Page_Fault_Handler+0xe9>
   1c8db:	c7 04 24 d6 15 02 00 	movl   $0x215d6,(%esp)
   1c8e2:	e8 7f 47 ff ff       	call   11066 <Print>
   1c8e7:	eb 0c                	jmp    1c8f5 <Page_Fault_Handler+0xf5>
   1c8e9:	c7 04 24 e4 15 02 00 	movl   $0x215e4,(%esp)
   1c8f0:	e8 71 47 ff ff       	call   11066 <Print>
   1c8f5:	f6 c3 04             	test   $0x4,%bl
   1c8f8:	74 18                	je     1c912 <Page_Fault_Handler+0x112>
   1c8fa:	c7 04 24 f1 15 02 00 	movl   $0x215f1,(%esp)
   1c901:	e8 60 47 ff ff       	call   11066 <Print>
   1c906:	89 f0                	mov    %esi,%eax
   1c908:	84 c0                	test   %al,%al
   1c90a:	0f 85 2f 01 00 00    	jne    1ca3f <Page_Fault_Handler+0x23f>
   1c910:	eb 16                	jmp    1c928 <Page_Fault_Handler+0x128>
   1c912:	c7 04 24 ff 15 02 00 	movl   $0x215ff,(%esp)
   1c919:	e8 48 47 ff ff       	call   11066 <Print>
   1c91e:	89 f0                	mov    %esi,%eax
   1c920:	84 c0                	test   %al,%al
   1c922:	0f 85 cd 00 00 00    	jne    1c9f5 <Page_Fault_Handler+0x1f5>
   1c928:	e8 8b 07 00 00       	call   1d0b8 <Get_PDBR>
   1c92d:	8b 55 e4             	mov    -0x1c(%ebp),%edx
   1c930:	c1 ea 16             	shr    $0x16,%edx
   1c933:	8d 34 90             	lea    (%eax,%edx,4),%esi
   1c936:	f7 06 00 f0 ff ff    	testl  $0xfffff000,(%esi)
   1c93c:	75 6d                	jne    1c9ab <Page_Fault_Handler+0x1ab>
   1c93e:	e8 9c 61 ff ff       	call   12adf <Alloc_Page>
   1c943:	89 c3                	mov    %eax,%ebx
   1c945:	89 c7                	mov    %eax,%edi
   1c947:	ba 00 10 00 00       	mov    $0x1000,%edx
   1c94c:	a8 01                	test   $0x1,%al
   1c94e:	74 0a                	je     1c95a <Page_Fault_Handler+0x15a>
   1c950:	c6 00 00             	movb   $0x0,(%eax)
   1c953:	8d 78 01             	lea    0x1(%eax),%edi
   1c956:	66 ba ff 0f          	mov    $0xfff,%dx
   1c95a:	f7 c7 02 00 00 00    	test   $0x2,%edi
   1c960:	74 0b                	je     1c96d <Page_Fault_Handler+0x16d>
   1c962:	66 c7 07 00 00       	movw   $0x0,(%edi)
   1c967:	83 c7 02             	add    $0x2,%edi
   1c96a:	83 ea 02             	sub    $0x2,%edx
   1c96d:	89 d1                	mov    %edx,%ecx
   1c96f:	c1 e9 02             	shr    $0x2,%ecx
   1c972:	b8 00 00 00 00       	mov    $0x0,%eax
   1c977:	f3 ab                	rep stos %eax,%es:(%edi)
   1c979:	f6 c2 02             	test   $0x2,%dl
   1c97c:	74 08                	je     1c986 <Page_Fault_Handler+0x186>
   1c97e:	66 c7 07 00 00       	movw   $0x0,(%edi)
   1c983:	83 c7 02             	add    $0x2,%edi
   1c986:	f6 c2 01             	test   $0x1,%dl
   1c989:	74 03                	je     1c98e <Page_Fault_Handler+0x18e>
   1c98b:	c6 07 00             	movb   $0x0,(%edi)
   1c98e:	89 d8                	mov    %ebx,%eax
   1c990:	25 00 f0 ff ff       	and    $0xfffff000,%eax
   1c995:	8b 16                	mov    (%esi),%edx
   1c997:	81 e2 ff 0f 00 00    	and    $0xfff,%edx
   1c99d:	09 d0                	or     %edx,%eax
   1c99f:	89 06                	mov    %eax,(%esi)
   1c9a1:	83 e0 e0             	and    $0xffffffe0,%eax
   1c9a4:	83 c8 07             	or     $0x7,%eax
   1c9a7:	88 06                	mov    %al,(%esi)
   1c9a9:	eb 08                	jmp    1c9b3 <Page_Fault_Handler+0x1b3>
   1c9ab:	8b 1e                	mov    (%esi),%ebx
   1c9ad:	81 e3 00 f0 ff ff    	and    $0xfffff000,%ebx
   1c9b3:	8b 4d e4             	mov    -0x1c(%ebp),%ecx
   1c9b6:	89 c8                	mov    %ecx,%eax
   1c9b8:	c1 e8 0a             	shr    $0xa,%eax
   1c9bb:	25 fc 0f 00 00       	and    $0xffc,%eax
   1c9c0:	01 c3                	add    %eax,%ebx
   1c9c2:	89 c8                	mov    %ecx,%eax
   1c9c4:	05 00 00 00 80       	add    $0x80000000,%eax
   1c9c9:	25 00 f0 ff ff       	and    $0xfffff000,%eax
   1c9ce:	89 44 24 04          	mov    %eax,0x4(%esp)
   1c9d2:	89 1c 24             	mov    %ebx,(%esp)
   1c9d5:	e8 c3 62 ff ff       	call   12c9d <Alloc_Pageable_Page>
   1c9da:	25 00 f0 ff ff       	and    $0xfffff000,%eax
   1c9df:	8b 13                	mov    (%ebx),%edx
   1c9e1:	81 e2 ff 0f 00 00    	and    $0xfff,%edx
   1c9e7:	09 d0                	or     %edx,%eax
   1c9e9:	89 03                	mov    %eax,(%ebx)
   1c9eb:	83 e0 e0             	and    $0xffffffe0,%eax
   1c9ee:	83 c8 07             	or     $0x7,%eax
   1c9f1:	88 03                	mov    %al,(%ebx)
   1c9f3:	eb 56                	jmp    1ca4b <Page_Fault_Handler+0x24b>
   1c9f5:	c7 04 24 4f 00 00 00 	movl   $0x4f,(%esp)
   1c9fc:	e8 ba 47 ff ff       	call   111bb <Set_Current_Attr>
   1ca01:	a1 6c 5e 02 00       	mov    0x25e6c,%eax
   1ca06:	89 44 24 18          	mov    %eax,0x18(%esp)
   1ca0a:	8b 45 04             	mov    0x4(%ebp),%eax
   1ca0d:	89 44 24 14          	mov    %eax,0x14(%esp)
   1ca11:	c7 44 24 10 82 00 00 	movl   $0x82,0x10(%esp)
   1ca18:	00 
   1ca19:	c7 44 24 0c 7e 15 02 	movl   $0x2157e,0xc(%esp)
   1ca20:	00 
   1ca21:	c7 44 24 08 bb fb 01 	movl   $0x1fbbb,0x8(%esp)
   1ca28:	00 
   1ca29:	c7 44 24 04 0a 17 02 	movl   $0x2170a,0x4(%esp)
   1ca30:	00 
   1ca31:	c7 04 24 b4 ee 01 00 	movl   $0x1eeb4,(%esp)
   1ca38:	e8 29 46 ff ff       	call   11066 <Print>
   1ca3d:	eb fe                	jmp    1ca3d <Page_Fault_Handler+0x23d>
   1ca3f:	c7 04 24 ff ff ff ff 	movl   $0xffffffff,(%esp)
   1ca46:	e8 f3 9c ff ff       	call   1673e <Exit>
   1ca4b:	83 c4 2c             	add    $0x2c,%esp
   1ca4e:	5b                   	pop    %ebx
   1ca4f:	5e                   	pop    %esi
   1ca50:	5f                   	pop    %edi
   1ca51:	5d                   	pop    %ebp
   1ca52:	c3                   	ret    

0001ca53 <checkPaging>:
   1ca53:	55                   	push   %ebp
   1ca54:	89 e5                	mov    %esp,%ebp
   1ca56:	83 ec 18             	sub    $0x18,%esp
   1ca59:	0f 20 c0             	mov    %cr0,%eax
   1ca5c:	c1 e8 1f             	shr    $0x1f,%eax
   1ca5f:	89 44 24 04          	mov    %eax,0x4(%esp)
   1ca63:	c7 04 24 13 16 02 00 	movl   $0x21613,(%esp)
   1ca6a:	e8 f7 45 ff ff       	call   11066 <Print>
   1ca6f:	c9                   	leave  
   1ca70:	c3                   	ret    

0001ca71 <Init_VM>:
   1ca71:	55                   	push   %ebp
   1ca72:	89 e5                	mov    %esp,%ebp
   1ca74:	57                   	push   %edi
   1ca75:	56                   	push   %esi
   1ca76:	53                   	push   %ebx
   1ca77:	83 ec 2c             	sub    $0x2c,%esp
   1ca7a:	a1 60 5e 02 00       	mov    0x25e60,%eax
   1ca7f:	89 45 d8             	mov    %eax,-0x28(%ebp)
   1ca82:	8b 45 08             	mov    0x8(%ebp),%eax
   1ca85:	8b 40 04             	mov    0x4(%eax),%eax
   1ca88:	c1 e0 0a             	shl    $0xa,%eax
   1ca8b:	89 c6                	mov    %eax,%esi
   1ca8d:	e8 4d 60 ff ff       	call   12adf <Alloc_Page>
   1ca92:	89 45 e0             	mov    %eax,-0x20(%ebp)
   1ca95:	89 c7                	mov    %eax,%edi
   1ca97:	bb 00 10 00 00       	mov    $0x1000,%ebx
   1ca9c:	a8 01                	test   $0x1,%al
   1ca9e:	74 0a                	je     1caaa <Init_VM+0x39>
   1caa0:	c6 00 00             	movb   $0x0,(%eax)
   1caa3:	8d 78 01             	lea    0x1(%eax),%edi
   1caa6:	66 bb ff 0f          	mov    $0xfff,%bx
   1caaa:	f7 c7 02 00 00 00    	test   $0x2,%edi
   1cab0:	74 0b                	je     1cabd <Init_VM+0x4c>
   1cab2:	66 c7 07 00 00       	movw   $0x0,(%edi)
   1cab7:	83 c7 02             	add    $0x2,%edi
   1caba:	83 eb 02             	sub    $0x2,%ebx
   1cabd:	89 d9                	mov    %ebx,%ecx
   1cabf:	c1 e9 02             	shr    $0x2,%ecx
   1cac2:	b8 00 00 00 00       	mov    $0x0,%eax
   1cac7:	f3 ab                	rep stos %eax,%es:(%edi)
   1cac9:	f6 c3 02             	test   $0x2,%bl
   1cacc:	74 08                	je     1cad6 <Init_VM+0x65>
   1cace:	66 c7 07 00 00       	movw   $0x0,(%edi)
   1cad3:	83 c7 02             	add    $0x2,%edi
   1cad6:	f6 c3 01             	test   $0x1,%bl
   1cad9:	74 03                	je     1cade <Init_VM+0x6d>
   1cadb:	c6 07 00             	movb   $0x0,(%edi)
   1cade:	89 f0                	mov    %esi,%eax
   1cae0:	c1 e8 16             	shr    $0x16,%eax
   1cae3:	85 c0                	test   %eax,%eax
   1cae5:	0f 84 fa 00 00 00    	je     1cbe5 <Init_VM+0x174>
   1caeb:	89 45 dc             	mov    %eax,-0x24(%ebp)
   1caee:	be 00 00 00 00       	mov    $0x0,%esi
   1caf3:	c7 45 e4 00 00 00 00 	movl   $0x0,-0x1c(%ebp)
   1cafa:	e8 e0 5f ff ff       	call   12adf <Alloc_Page>
   1caff:	89 c3                	mov    %eax,%ebx
   1cb01:	89 c7                	mov    %eax,%edi
   1cb03:	ba 00 10 00 00       	mov    $0x1000,%edx
   1cb08:	a8 01                	test   $0x1,%al
   1cb0a:	74 0a                	je     1cb16 <Init_VM+0xa5>
   1cb0c:	c6 00 00             	movb   $0x0,(%eax)
   1cb0f:	8d 78 01             	lea    0x1(%eax),%edi
   1cb12:	66 ba ff 0f          	mov    $0xfff,%dx
   1cb16:	f7 c7 02 00 00 00    	test   $0x2,%edi
   1cb1c:	74 0b                	je     1cb29 <Init_VM+0xb8>
   1cb1e:	66 c7 07 00 00       	movw   $0x0,(%edi)
   1cb23:	83 c7 02             	add    $0x2,%edi
   1cb26:	83 ea 02             	sub    $0x2,%edx
   1cb29:	89 d1                	mov    %edx,%ecx
   1cb2b:	c1 e9 02             	shr    $0x2,%ecx
   1cb2e:	b8 00 00 00 00       	mov    $0x0,%eax
   1cb33:	f3 ab                	rep stos %eax,%es:(%edi)
   1cb35:	f6 c2 02             	test   $0x2,%dl
   1cb38:	74 08                	je     1cb42 <Init_VM+0xd1>
   1cb3a:	66 c7 07 00 00       	movw   $0x0,(%edi)
   1cb3f:	83 c7 02             	add    $0x2,%edi
   1cb42:	f6 c2 01             	test   $0x1,%dl
   1cb45:	74 03                	je     1cb4a <Init_VM+0xd9>
   1cb47:	c6 07 00             	movb   $0x0,(%edi)
   1cb4a:	8b 45 e0             	mov    -0x20(%ebp),%eax
   1cb4d:	8d 04 b0             	lea    (%eax,%esi,4),%eax
   1cb50:	89 da                	mov    %ebx,%edx
   1cb52:	81 e2 00 f0 ff ff    	and    $0xfffff000,%edx
   1cb58:	8b 08                	mov    (%eax),%ecx
   1cb5a:	81 e1 ff 0f 00 00    	and    $0xfff,%ecx
   1cb60:	09 ca                	or     %ecx,%edx
   1cb62:	89 10                	mov    %edx,(%eax)
   1cb64:	83 e2 e0             	and    $0xffffffe0,%edx
   1cb67:	83 ca 03             	or     $0x3,%edx
   1cb6a:	88 10                	mov    %dl,(%eax)
   1cb6c:	89 44 24 04          	mov    %eax,0x4(%esp)
   1cb70:	c7 04 24 25 16 02 00 	movl   $0x21625,(%esp)
   1cb77:	e8 ea 44 ff ff       	call   11066 <Print>
   1cb7c:	8d 04 76             	lea    (%esi,%esi,2),%eax
   1cb7f:	c1 e0 0d             	shl    $0xd,%eax
   1cb82:	8b 75 d8             	mov    -0x28(%ebp),%esi
   1cb85:	8d 74 06 14          	lea    0x14(%esi,%eax,1),%esi
   1cb89:	8b 55 e4             	mov    -0x1c(%ebp),%edx
   1cb8c:	c1 e2 0a             	shl    $0xa,%edx
   1cb8f:	81 e2 00 fc 0f 00    	and    $0xffc00,%edx
   1cb95:	89 d8                	mov    %ebx,%eax
   1cb97:	b9 00 00 00 00       	mov    $0x0,%ecx
   1cb9c:	89 06                	mov    %eax,(%esi)
   1cb9e:	89 d3                	mov    %edx,%ebx
   1cba0:	c1 e3 0c             	shl    $0xc,%ebx
   1cba3:	8b 38                	mov    (%eax),%edi
   1cba5:	81 e7 ff 0f 00 00    	and    $0xfff,%edi
   1cbab:	09 fb                	or     %edi,%ebx
   1cbad:	89 18                	mov    %ebx,(%eax)
   1cbaf:	83 e3 e0             	and    $0xffffffe0,%ebx
   1cbb2:	83 cb 03             	or     $0x3,%ebx
   1cbb5:	88 18                	mov    %bl,(%eax)
   1cbb7:	83 c1 01             	add    $0x1,%ecx
   1cbba:	83 c0 04             	add    $0x4,%eax
   1cbbd:	83 c6 18             	add    $0x18,%esi
   1cbc0:	83 c2 01             	add    $0x1,%edx
   1cbc3:	81 e2 ff ff 0f 00    	and    $0xfffff,%edx
   1cbc9:	81 f9 00 04 00 00    	cmp    $0x400,%ecx
   1cbcf:	75 cb                	jne    1cb9c <Init_VM+0x12b>
   1cbd1:	83 45 e4 01          	addl   $0x1,-0x1c(%ebp)
   1cbd5:	8b 45 e4             	mov    -0x1c(%ebp),%eax
   1cbd8:	89 c6                	mov    %eax,%esi
   1cbda:	8b 4d dc             	mov    -0x24(%ebp),%ecx
   1cbdd:	39 c8                	cmp    %ecx,%eax
   1cbdf:	0f 85 15 ff ff ff    	jne    1cafa <Init_VM+0x89>
   1cbe5:	8b 45 e0             	mov    -0x20(%ebp),%eax
   1cbe8:	89 04 24             	mov    %eax,(%esp)
   1cbeb:	e8 a0 04 00 00       	call   1d090 <Enable_Paging>
   1cbf0:	c7 44 24 04 00 c8 01 	movl   $0x1c800,0x4(%esp)
   1cbf7:	00 
   1cbf8:	c7 04 24 0e 00 00 00 	movl   $0xe,(%esp)
   1cbff:	e8 a1 35 ff ff       	call   101a5 <Install_Interrupt_Handler>
   1cc04:	83 c4 2c             	add    $0x2c,%esp
   1cc07:	5b                   	pop    %ebx
   1cc08:	5e                   	pop    %esi
   1cc09:	5f                   	pop    %edi
   1cc0a:	5d                   	pop    %ebp
   1cc0b:	c3                   	ret    

0001cc0c <Init_Paging>:
   1cc0c:	55                   	push   %ebp
   1cc0d:	89 e5                	mov    %esp,%ebp
   1cc0f:	83 ec 18             	sub    $0x18,%esp
   1cc12:	e8 08 ec ff ff       	call   1b81f <Get_Paging_Device>
   1cc17:	8b 50 04             	mov    0x4(%eax),%edx
   1cc1a:	89 15 8c 5e 02 00    	mov    %edx,0x25e8c
   1cc20:	8b 40 0c             	mov    0xc(%eax),%eax
   1cc23:	c1 e8 03             	shr    $0x3,%eax
   1cc26:	a3 e8 53 02 00       	mov    %eax,0x253e8
   1cc2b:	89 04 24             	mov    %eax,(%esp)
   1cc2e:	e8 07 78 ff ff       	call   1443a <Malloc>
   1cc33:	a3 ec 53 02 00       	mov    %eax,0x253ec
   1cc38:	8b 15 e8 53 02 00    	mov    0x253e8,%edx
   1cc3e:	89 54 24 08          	mov    %edx,0x8(%esp)
   1cc42:	c7 44 24 04 00 00 00 	movl   $0x0,0x4(%esp)
   1cc49:	00 
   1cc4a:	89 04 24             	mov    %eax,(%esp)
   1cc4d:	e8 7f 1d 00 00       	call   1e9d1 <memset>
   1cc52:	c9                   	leave  
   1cc53:	c3                   	ret    

0001cc54 <Find_Space_On_Paging_File>:
   1cc54:	55                   	push   %ebp
   1cc55:	89 e5                	mov    %esp,%ebp
   1cc57:	83 ec 28             	sub    $0x28,%esp
   1cc5a:	e8 e0 35 ff ff       	call   1023f <Interrupts_Enabled>
   1cc5f:	84 c0                	test   %al,%al
   1cc61:	75 1c                	jne    1cc7f <Find_Space_On_Paging_File+0x2b>
   1cc63:	8b 0d e8 53 02 00    	mov    0x253e8,%ecx
   1cc69:	85 c9                	test   %ecx,%ecx
   1cc6b:	74 70                	je     1ccdd <Find_Space_On_Paging_File+0x89>
   1cc6d:	8b 15 ec 53 02 00    	mov    0x253ec,%edx
   1cc73:	80 3a 00             	cmpb   $0x0,(%edx)
   1cc76:	7f 6c                	jg     1cce4 <Find_Space_On_Paging_File+0x90>
   1cc78:	b8 00 00 00 00       	mov    $0x0,%eax
   1cc7d:	eb 50                	jmp    1cccf <Find_Space_On_Paging_File+0x7b>
   1cc7f:	c7 04 24 4f 00 00 00 	movl   $0x4f,(%esp)
   1cc86:	e8 30 45 ff ff       	call   111bb <Set_Current_Attr>
   1cc8b:	a1 6c 5e 02 00       	mov    0x25e6c,%eax
   1cc90:	89 44 24 18          	mov    %eax,0x18(%esp)
   1cc94:	8b 45 04             	mov    0x4(%ebp),%eax
   1cc97:	89 44 24 14          	mov    %eax,0x14(%esp)
   1cc9b:	c7 44 24 10 d8 00 00 	movl   $0xd8,0x10(%esp)
   1cca2:	00 
   1cca3:	c7 44 24 0c 7e 15 02 	movl   $0x2157e,0xc(%esp)
   1ccaa:	00 
   1ccab:	c7 44 24 08 d2 ef 01 	movl   $0x1efd2,0x8(%esp)
   1ccb2:	00 
   1ccb3:	c7 44 24 04 f0 16 02 	movl   $0x216f0,0x4(%esp)
   1ccba:	00 
   1ccbb:	c7 04 24 b4 ee 01 00 	movl   $0x1eeb4,(%esp)
   1ccc2:	e8 9f 43 ff ff       	call   11066 <Print>
   1ccc7:	eb fe                	jmp    1ccc7 <Find_Space_On_Paging_File+0x73>
   1ccc9:	80 3c 02 00          	cmpb   $0x0,(%edx,%eax,1)
   1cccd:	7f 1a                	jg     1cce9 <Find_Space_On_Paging_File+0x95>
   1cccf:	83 c0 01             	add    $0x1,%eax
   1ccd2:	39 c8                	cmp    %ecx,%eax
   1ccd4:	75 f3                	jne    1ccc9 <Find_Space_On_Paging_File+0x75>
   1ccd6:	b8 ff ff ff ff       	mov    $0xffffffff,%eax
   1ccdb:	eb 0c                	jmp    1cce9 <Find_Space_On_Paging_File+0x95>
   1ccdd:	b8 ff ff ff ff       	mov    $0xffffffff,%eax
   1cce2:	eb 05                	jmp    1cce9 <Find_Space_On_Paging_File+0x95>
   1cce4:	b8 00 00 00 00       	mov    $0x0,%eax
   1cce9:	c9                   	leave  
   1ccea:	c3                   	ret    

0001cceb <Free_Space_On_Paging_File>:
   1cceb:	55                   	push   %ebp
   1ccec:	89 e5                	mov    %esp,%ebp
   1ccee:	83 ec 28             	sub    $0x28,%esp
   1ccf1:	e8 49 35 ff ff       	call   1023f <Interrupts_Enabled>
   1ccf6:	84 c0                	test   %al,%al
   1ccf8:	74 4a                	je     1cd44 <Free_Space_On_Paging_File+0x59>
   1ccfa:	c7 04 24 4f 00 00 00 	movl   $0x4f,(%esp)
   1cd01:	e8 b5 44 ff ff       	call   111bb <Set_Current_Attr>
   1cd06:	a1 6c 5e 02 00       	mov    0x25e6c,%eax
   1cd0b:	89 44 24 18          	mov    %eax,0x18(%esp)
   1cd0f:	8b 45 04             	mov    0x4(%ebp),%eax
   1cd12:	89 44 24 14          	mov    %eax,0x14(%esp)
   1cd16:	c7 44 24 10 ea 00 00 	movl   $0xea,0x10(%esp)
   1cd1d:	00 
   1cd1e:	c7 44 24 0c 7e 15 02 	movl   $0x2157e,0xc(%esp)
   1cd25:	00 
   1cd26:	c7 44 24 08 d2 ef 01 	movl   $0x1efd2,0x8(%esp)
   1cd2d:	00 
   1cd2e:	c7 44 24 04 d6 16 02 	movl   $0x216d6,0x4(%esp)
   1cd35:	00 
   1cd36:	c7 04 24 b4 ee 01 00 	movl   $0x1eeb4,(%esp)
   1cd3d:	e8 24 43 ff ff       	call   11066 <Print>
   1cd42:	eb fe                	jmp    1cd42 <Free_Space_On_Paging_File+0x57>
   1cd44:	e8 f6 34 ff ff       	call   1023f <Interrupts_Enabled>
   1cd49:	84 c0                	test   %al,%al
   1cd4b:	90                   	nop
   1cd4c:	8d 74 26 00          	lea    0x0(%esi,%eiz,1),%esi
   1cd50:	75 4a                	jne    1cd9c <Free_Space_On_Paging_File+0xb1>
   1cd52:	c7 04 24 4f 00 00 00 	movl   $0x4f,(%esp)
   1cd59:	e8 5d 44 ff ff       	call   111bb <Set_Current_Attr>
   1cd5e:	a1 6c 5e 02 00       	mov    0x25e6c,%eax
   1cd63:	89 44 24 18          	mov    %eax,0x18(%esp)
   1cd67:	8b 45 04             	mov    0x4(%ebp),%eax
   1cd6a:	89 44 24 14          	mov    %eax,0x14(%esp)
   1cd6e:	c7 44 24 10 eb 00 00 	movl   $0xeb,0x10(%esp)
   1cd75:	00 
   1cd76:	c7 44 24 0c 7e 15 02 	movl   $0x2157e,0xc(%esp)
   1cd7d:	00 
   1cd7e:	c7 44 24 08 d3 ef 01 	movl   $0x1efd3,0x8(%esp)
   1cd85:	00 
   1cd86:	c7 44 24 04 d6 16 02 	movl   $0x216d6,0x4(%esp)
   1cd8d:	00 
   1cd8e:	c7 04 24 b4 ee 01 00 	movl   $0x1eeb4,(%esp)
   1cd95:	e8 cc 42 ff ff       	call   11066 <Print>
   1cd9a:	eb fe                	jmp    1cd9a <Free_Space_On_Paging_File+0xaf>
   1cd9c:	fa                   	cli    
   1cd9d:	8b 15 ec 53 02 00    	mov    0x253ec,%edx
   1cda3:	8b 45 08             	mov    0x8(%ebp),%eax
   1cda6:	c6 04 02 00          	movb   $0x0,(%edx,%eax,1)
   1cdaa:	e8 90 34 ff ff       	call   1023f <Interrupts_Enabled>
   1cdaf:	84 c0                	test   %al,%al
   1cdb1:	74 4a                	je     1cdfd <Free_Space_On_Paging_File+0x112>
   1cdb3:	c7 04 24 4f 00 00 00 	movl   $0x4f,(%esp)
   1cdba:	e8 fc 43 ff ff       	call   111bb <Set_Current_Attr>
   1cdbf:	a1 6c 5e 02 00       	mov    0x25e6c,%eax
   1cdc4:	89 44 24 18          	mov    %eax,0x18(%esp)
   1cdc8:	8b 45 04             	mov    0x4(%ebp),%eax
   1cdcb:	89 44 24 14          	mov    %eax,0x14(%esp)
   1cdcf:	c7 44 24 10 ed 00 00 	movl   $0xed,0x10(%esp)
   1cdd6:	00 
   1cdd7:	c7 44 24 0c 7e 15 02 	movl   $0x2157e,0xc(%esp)
   1cdde:	00 
   1cddf:	c7 44 24 08 d2 ef 01 	movl   $0x1efd2,0x8(%esp)
   1cde6:	00 
   1cde7:	c7 44 24 04 d6 16 02 	movl   $0x216d6,0x4(%esp)
   1cdee:	00 
   1cdef:	c7 04 24 b4 ee 01 00 	movl   $0x1eeb4,(%esp)
   1cdf6:	e8 6b 42 ff ff       	call   11066 <Print>
   1cdfb:	eb fe                	jmp    1cdfb <Free_Space_On_Paging_File+0x110>
   1cdfd:	fb                   	sti    
   1cdfe:	c9                   	leave  
   1cdff:	c3                   	ret    

0001ce00 <Write_To_Paging_File>:
   1ce00:	55                   	push   %ebp
   1ce01:	89 e5                	mov    %esp,%ebp
   1ce03:	57                   	push   %edi
   1ce04:	56                   	push   %esi
   1ce05:	53                   	push   %ebx
   1ce06:	83 ec 2c             	sub    $0x2c,%esp
   1ce09:	8b 75 08             	mov    0x8(%ebp),%esi
   1ce0c:	89 f0                	mov    %esi,%eax
   1ce0e:	c1 e8 0c             	shr    $0xc,%eax
   1ce11:	8d 04 40             	lea    (%eax,%eax,2),%eax
   1ce14:	c1 e0 03             	shl    $0x3,%eax
   1ce17:	03 05 60 5e 02 00    	add    0x25e60,%eax
   1ce1d:	f6 00 20             	testb  $0x20,(%eax)
   1ce20:	74 4a                	je     1ce6c <Write_To_Paging_File+0x6c>
   1ce22:	c7 04 24 4f 00 00 00 	movl   $0x4f,(%esp)
   1ce29:	e8 8d 43 ff ff       	call   111bb <Set_Current_Attr>
   1ce2e:	a1 6c 5e 02 00       	mov    0x25e6c,%eax
   1ce33:	89 44 24 18          	mov    %eax,0x18(%esp)
   1ce37:	8b 45 04             	mov    0x4(%ebp),%eax
   1ce3a:	89 44 24 14          	mov    %eax,0x14(%esp)
   1ce3e:	c7 44 24 10 ff 00 00 	movl   $0xff,0x10(%esp)
   1ce45:	00 
   1ce46:	c7 44 24 0c 7e 15 02 	movl   $0x2157e,0xc(%esp)
   1ce4d:	00 
   1ce4e:	c7 44 24 08 8c 16 02 	movl   $0x2168c,0x8(%esp)
   1ce55:	00 
   1ce56:	c7 44 24 04 c1 16 02 	movl   $0x216c1,0x4(%esp)
   1ce5d:	00 
   1ce5e:	c7 04 24 b4 ee 01 00 	movl   $0x1eeb4,(%esp)
   1ce65:	e8 fc 41 ff ff       	call   11066 <Print>
   1ce6a:	eb fe                	jmp    1ce6a <Write_To_Paging_File+0x6a>
   1ce6c:	8b 45 10             	mov    0x10(%ebp),%eax
   1ce6f:	8d 3c c5 00 00 00 00 	lea    0x0(,%eax,8),%edi
   1ce76:	bb 00 00 00 00       	mov    $0x0,%ebx
   1ce7b:	89 74 24 08          	mov    %esi,0x8(%esp)
   1ce7f:	8d 04 3b             	lea    (%ebx,%edi,1),%eax
   1ce82:	89 44 24 04          	mov    %eax,0x4(%esp)
   1ce86:	a1 8c 5e 02 00       	mov    0x25e8c,%eax
   1ce8b:	89 04 24             	mov    %eax,(%esp)
   1ce8e:	e8 6b d0 ff ff       	call   19efe <Block_Write>
   1ce93:	83 c3 01             	add    $0x1,%ebx
   1ce96:	81 c6 00 02 00 00    	add    $0x200,%esi
   1ce9c:	83 fb 08             	cmp    $0x8,%ebx
   1ce9f:	75 da                	jne    1ce7b <Write_To_Paging_File+0x7b>
   1cea1:	a1 ec 53 02 00       	mov    0x253ec,%eax
   1cea6:	8b 55 10             	mov    0x10(%ebp),%edx
   1cea9:	c6 04 10 01          	movb   $0x1,(%eax,%edx,1)
   1cead:	83 c4 2c             	add    $0x2c,%esp
   1ceb0:	5b                   	pop    %ebx
   1ceb1:	5e                   	pop    %esi
   1ceb2:	5f                   	pop    %edi
   1ceb3:	5d                   	pop    %ebp
   1ceb4:	c3                   	ret    

0001ceb5 <Read_From_Paging_File>:
   1ceb5:	55                   	push   %ebp
   1ceb6:	89 e5                	mov    %esp,%ebp
   1ceb8:	57                   	push   %edi
   1ceb9:	56                   	push   %esi
   1ceba:	53                   	push   %ebx
   1cebb:	83 ec 2c             	sub    $0x2c,%esp
   1cebe:	8b 75 08             	mov    0x8(%ebp),%esi
   1cec1:	89 f0                	mov    %esi,%eax
   1cec3:	c1 e8 0c             	shr    $0xc,%eax
   1cec6:	8d 04 40             	lea    (%eax,%eax,2),%eax
   1cec9:	c1 e0 03             	shl    $0x3,%eax
   1cecc:	03 05 60 5e 02 00    	add    0x25e60,%eax
   1ced2:	f6 00 20             	testb  $0x20,(%eax)
   1ced5:	74 4a                	je     1cf21 <Read_From_Paging_File+0x6c>
   1ced7:	c7 04 24 4f 00 00 00 	movl   $0x4f,(%esp)
   1cede:	e8 d8 42 ff ff       	call   111bb <Set_Current_Attr>
   1cee3:	a1 6c 5e 02 00       	mov    0x25e6c,%eax
   1cee8:	89 44 24 18          	mov    %eax,0x18(%esp)
   1ceec:	8b 45 04             	mov    0x4(%ebp),%eax
   1ceef:	89 44 24 14          	mov    %eax,0x14(%esp)
   1cef3:	c7 44 24 10 14 01 00 	movl   $0x114,0x10(%esp)
   1cefa:	00 
   1cefb:	c7 44 24 0c 7e 15 02 	movl   $0x2157e,0xc(%esp)
   1cf02:	00 
   1cf03:	c7 44 24 08 8c 16 02 	movl   $0x2168c,0x8(%esp)
   1cf0a:	00 
   1cf0b:	c7 44 24 04 ab 16 02 	movl   $0x216ab,0x4(%esp)
   1cf12:	00 
   1cf13:	c7 04 24 b4 ee 01 00 	movl   $0x1eeb4,(%esp)
   1cf1a:	e8 47 41 ff ff       	call   11066 <Print>
   1cf1f:	eb fe                	jmp    1cf1f <Read_From_Paging_File+0x6a>
   1cf21:	8b 45 10             	mov    0x10(%ebp),%eax
   1cf24:	8d 3c c5 00 00 00 00 	lea    0x0(,%eax,8),%edi
   1cf2b:	bb 00 00 00 00       	mov    $0x0,%ebx
   1cf30:	89 74 24 08          	mov    %esi,0x8(%esp)
   1cf34:	8d 04 3b             	lea    (%ebx,%edi,1),%eax
   1cf37:	89 44 24 04          	mov    %eax,0x4(%esp)
   1cf3b:	a1 8c 5e 02 00       	mov    0x25e8c,%eax
   1cf40:	89 04 24             	mov    %eax,(%esp)
   1cf43:	e8 64 cf ff ff       	call   19eac <Block_Read>
   1cf48:	83 c3 01             	add    $0x1,%ebx
   1cf4b:	81 c6 00 02 00 00    	add    $0x200,%esi
   1cf51:	83 fb 08             	cmp    $0x8,%ebx
   1cf54:	75 da                	jne    1cf30 <Read_From_Paging_File+0x7b>
   1cf56:	83 c4 2c             	add    $0x2c,%esp
   1cf59:	5b                   	pop    %ebx
   1cf5a:	5e                   	pop    %esi
   1cf5b:	5f                   	pop    %edi
   1cf5c:	5d                   	pop    %ebp
   1cf5d:	c3                   	ret    
   1cf5e:	66 90                	xchg   %ax,%ax

0001cf60 <Main>:
   1cf60:	55                   	push   %ebp
   1cf61:	89 e5                	mov    %esp,%ebp
   1cf63:	53                   	push   %ebx
   1cf64:	83 ec 14             	sub    $0x14,%esp
   1cf67:	8b 5d 08             	mov    0x8(%ebp),%ebx
   1cf6a:	e8 46 5b ff ff       	call   12ab5 <Init_BSS>
   1cf6f:	e8 1d 47 ff ff       	call   11691 <Init_Screen>
   1cf74:	89 1c 24             	mov    %ebx,(%esp)
   1cf77:	e8 b5 59 ff ff       	call   12931 <Init_Mem>
   1cf7c:	e8 3d 63 ff ff       	call   132be <Init_CRC32>
   1cf81:	e8 74 68 ff ff       	call   137fa <Init_TSS>
   1cf86:	e8 c7 32 ff ff       	call   10252 <Init_Interrupts>
   1cf8b:	89 1c 24             	mov    %ebx,(%esp)
   1cf8e:	e8 de fa ff ff       	call   1ca71 <Init_VM>
   1cf93:	e8 8b 89 ff ff       	call   15923 <Init_Scheduler>
   1cf98:	e8 54 35 ff ff       	call   104f1 <Init_Traps>
   1cf9d:	8d 76 00             	lea    0x0(%esi),%esi
   1cfa0:	e8 1e 52 ff ff       	call   121c3 <Init_Timer>
   1cfa5:	e8 45 3b ff ff       	call   10aef <Init_Keyboard>
   1cfaa:	e8 b1 b2 ff ff       	call   18260 <Init_DMA>
   1cfaf:	90                   	nop
   1cfb0:	e8 0d c4 ff ff       	call   193c2 <Init_Floppy>
   1cfb5:	e8 03 d9 ff ff       	call   1a8bd <Init_IDE>
   1cfba:	e8 08 f6 ff ff       	call   1c5c7 <Init_PFAT>
   1cfbf:	c7 44 24 08 ac 12 02 	movl   $0x212ac,0x8(%esp)
   1cfc6:	00 
   1cfc7:	c7 44 24 04 5a f9 01 	movl   $0x1f95a,0x4(%esp)
   1cfce:	00 
   1cfcf:	c7 04 24 1d 17 02 00 	movl   $0x2171d,(%esp)
   1cfd6:	e8 0a e0 ff ff       	call   1afe5 <Mount>
   1cfdb:	85 c0                	test   %eax,%eax
   1cfdd:	74 0e                	je     1cfed <Main+0x8d>
   1cfdf:	c7 04 24 5c 17 02 00 	movl   $0x2175c,(%esp)
   1cfe6:	e8 7b 40 ff ff       	call   11066 <Print>
   1cfeb:	eb 0c                	jmp    1cff9 <Main+0x99>
   1cfed:	c7 04 24 22 17 02 00 	movl   $0x21722,(%esp)
   1cff4:	e8 6d 40 ff ff       	call   11066 <Print>
   1cff9:	e8 0e fc ff ff       	call   1cc0c <Init_Paging>
   1cffe:	c7 04 24 0a 00 00 00 	movl   $0xa,(%esp)
   1d005:	e8 b1 41 ff ff       	call   111bb <Set_Current_Attr>
   1d00a:	c7 04 24 3a 17 02 00 	movl   $0x2173a,(%esp)
   1d011:	e8 50 40 ff ff       	call   11066 <Print>
   1d016:	c7 04 24 07 00 00 00 	movl   $0x7,(%esp)
   1d01d:	e8 99 41 ff ff       	call   111bb <Set_Current_Attr>
   1d022:	c7 44 24 08 00 00 00 	movl   $0x0,0x8(%esp)
   1d029:	00 
   1d02a:	c7 44 24 04 51 17 02 	movl   $0x21751,0x4(%esp)
   1d031:	00 
   1d032:	c7 04 24 4e 17 02 00 	movl   $0x2174e,(%esp)
   1d039:	e8 f2 a1 ff ff       	call   17230 <Spawn>
   1d03e:	89 04 24             	mov    %eax,(%esp)
   1d041:	e8 ea 8d ff ff       	call   15e30 <Lookup_Thread>
   1d046:	89 04 24             	mov    %eax,(%esp)
   1d049:	e8 6c 95 ff ff       	call   165ba <Join>
   1d04e:	c7 04 24 00 00 00 00 	movl   $0x0,(%esp)
   1d055:	e8 e4 96 ff ff       	call   1673e <Exit>
   1d05a:	66 90                	xchg   %ax,%ax
   1d05c:	66 90                	xchg   %ax,%ax
   1d05e:	66 90                	xchg   %ax,%ax

0001d060 <Load_IDTR>:
   1d060:	8b 44 24 04          	mov    0x4(%esp),%eax
   1d064:	0f 01 18             	lidtl  (%eax)
   1d067:	c3                   	ret    

0001d068 <Load_GDTR>:
   1d068:	8b 44 24 04          	mov    0x4(%esp),%eax
   1d06c:	0f 01 10             	lgdtl  (%eax)
   1d06f:	66 b8 10 00          	mov    $0x10,%ax
   1d073:	8e d8                	mov    %eax,%ds
   1d075:	8e c0                	mov    %eax,%es
   1d077:	8e e0                	mov    %eax,%fs
   1d079:	8e e8                	mov    %eax,%gs
   1d07b:	8e d0                	mov    %eax,%ss
   1d07d:	ea 84 d0 01 00 08 00 	ljmp   $0x8,$0x1d084

0001d084 <Load_GDTR.here>:
   1d084:	c3                   	ret    
   1d085:	90                   	nop
   1d086:	90                   	nop
   1d087:	90                   	nop

0001d088 <Load_LDTR>:
   1d088:	8b 44 24 04          	mov    0x4(%esp),%eax
   1d08c:	0f 00 d0             	lldt   %ax
   1d08f:	c3                   	ret    

0001d090 <Enable_Paging>:
   1d090:	8b 44 24 04          	mov    0x4(%esp),%eax
   1d094:	0f 22 d8             	mov    %eax,%cr3
   1d097:	0f 20 d8             	mov    %cr3,%eax
   1d09a:	0f 22 d8             	mov    %eax,%cr3
   1d09d:	0f 20 c3             	mov    %cr0,%ebx
   1d0a0:	81 cb 00 00 00 80    	or     $0x80000000,%ebx
   1d0a6:	0f 22 c3             	mov    %ebx,%cr0
   1d0a9:	c3                   	ret    
   1d0aa:	90                   	nop
   1d0ab:	90                   	nop
   1d0ac:	90                   	nop
   1d0ad:	90                   	nop
   1d0ae:	90                   	nop
   1d0af:	90                   	nop

0001d0b0 <Set_PDBR>:
   1d0b0:	8b 44 24 04          	mov    0x4(%esp),%eax
   1d0b4:	0f 22 d8             	mov    %eax,%cr3
   1d0b7:	c3                   	ret    

0001d0b8 <Get_PDBR>:
   1d0b8:	0f 20 d8             	mov    %cr3,%eax
   1d0bb:	c3                   	ret    
   1d0bc:	90                   	nop
   1d0bd:	90                   	nop
   1d0be:	90                   	nop
   1d0bf:	90                   	nop

0001d0c0 <Flush_TLB>:
   1d0c0:	0f 20 d8             	mov    %cr3,%eax
   1d0c3:	0f 22 d8             	mov    %eax,%cr3
   1d0c6:	c3                   	ret    
   1d0c7:	90                   	nop

0001d0c8 <Handle_Interrupt>:
   1d0c8:	50                   	push   %eax
   1d0c9:	53                   	push   %ebx
   1d0ca:	51                   	push   %ecx
   1d0cb:	52                   	push   %edx
   1d0cc:	56                   	push   %esi
   1d0cd:	57                   	push   %edi
   1d0ce:	55                   	push   %ebp
   1d0cf:	1e                   	push   %ds
   1d0d0:	06                   	push   %es
   1d0d1:	0f a0                	push   %fs
   1d0d3:	0f a8                	push   %gs
   1d0d5:	66 b8 10 00          	mov    $0x10,%ax
   1d0d9:	8e d8                	mov    %eax,%ds
   1d0db:	8e c0                	mov    %eax,%es
   1d0dd:	b8 00 54 02 00       	mov    $0x25400,%eax
   1d0e2:	8b 74 24 2c          	mov    0x2c(%esp),%esi
   1d0e6:	8b 1c b0             	mov    (%eax,%esi,4),%ebx
   1d0e9:	54                   	push   %esp
   1d0ea:	ff d3                	call   *%ebx
   1d0ec:	81 c4 04 00 00 00    	add    $0x4,%esp
   1d0f2:	81 3d 68 5e 02 00 00 	cmpl   $0x0,0x25e68
   1d0f9:	00 00 00 
   1d0fc:	75 41                	jne    1d13f <Handle_Interrupt.restore>
   1d0fe:	81 3d 70 5e 02 00 00 	cmpl   $0x0,0x25e70
   1d105:	00 00 00 
   1d108:	74 35                	je     1d13f <Handle_Interrupt.restore>
   1d10a:	ff 35 6c 5e 02 00    	pushl  0x25e6c
   1d110:	e8 89 84 ff ff       	call   1559e <Make_Runnable>
   1d115:	81 c4 04 00 00 00    	add    $0x4,%esp
   1d11b:	a1 6c 5e 02 00       	mov    0x25e6c,%eax
   1d120:	89 20                	mov    %esp,(%eax)
   1d122:	c7 40 04 00 00 00 00 	movl   $0x0,0x4(%eax)
   1d129:	e8 07 8a ff ff       	call   15b35 <Get_Next_Runnable>
   1d12e:	a3 6c 5e 02 00       	mov    %eax,0x25e6c
   1d133:	8b 20                	mov    (%eax),%esp
   1d135:	c7 05 70 5e 02 00 00 	movl   $0x0,0x25e70
   1d13c:	00 00 00 

0001d13f <Handle_Interrupt.restore>:
   1d13f:	54                   	push   %esp
   1d140:	ff 35 6c 5e 02 00    	pushl  0x25e6c
   1d146:	e8 ca a1 ff ff       	call   17315 <Switch_To_User_Context>
   1d14b:	81 c4 08 00 00 00    	add    $0x8,%esp
   1d151:	0f a9                	pop    %gs
   1d153:	0f a1                	pop    %fs
   1d155:	07                   	pop    %es
   1d156:	1f                   	pop    %ds
   1d157:	5d                   	pop    %ebp
   1d158:	5f                   	pop    %edi
   1d159:	5e                   	pop    %esi
   1d15a:	5a                   	pop    %edx
   1d15b:	59                   	pop    %ecx
   1d15c:	5b                   	pop    %ebx
   1d15d:	58                   	pop    %eax
   1d15e:	81 c4 08 00 00 00    	add    $0x8,%esp
   1d164:	cf                   	iret   
   1d165:	90                   	nop
   1d166:	90                   	nop
   1d167:	90                   	nop
   1d168:	90                   	nop
   1d169:	90                   	nop
   1d16a:	90                   	nop
   1d16b:	90                   	nop
   1d16c:	90                   	nop
   1d16d:	90                   	nop
   1d16e:	90                   	nop
   1d16f:	90                   	nop

0001d170 <Switch_To_Thread>:
   1d170:	50                   	push   %eax
   1d171:	8b 44 24 04          	mov    0x4(%esp),%eax
   1d175:	89 44 24 fc          	mov    %eax,-0x4(%esp)
   1d179:	81 c4 08 00 00 00    	add    $0x8,%esp
   1d17f:	9c                   	pushf  
   1d180:	8b 44 24 fc          	mov    -0x4(%esp),%eax
   1d184:	68 08 00 00 00       	push   $0x8
   1d189:	81 ec 04 00 00 00    	sub    $0x4,%esp
   1d18f:	68 00 00 00 00       	push   $0x0
   1d194:	68 00 00 00 00       	push   $0x0
   1d199:	50                   	push   %eax
   1d19a:	53                   	push   %ebx
   1d19b:	51                   	push   %ecx
   1d19c:	52                   	push   %edx
   1d19d:	56                   	push   %esi
   1d19e:	57                   	push   %edi
   1d19f:	55                   	push   %ebp
   1d1a0:	1e                   	push   %ds
   1d1a1:	06                   	push   %es
   1d1a2:	0f a0                	push   %fs
   1d1a4:	0f a8                	push   %gs
   1d1a6:	a1 6c 5e 02 00       	mov    0x25e6c,%eax
   1d1ab:	89 20                	mov    %esp,(%eax)
   1d1ad:	c7 40 04 00 00 00 00 	movl   $0x0,0x4(%eax)
   1d1b4:	8b 44 24 40          	mov    0x40(%esp),%eax
   1d1b8:	a3 6c 5e 02 00       	mov    %eax,0x25e6c
   1d1bd:	8b 20                	mov    (%eax),%esp
   1d1bf:	54                   	push   %esp
   1d1c0:	ff 35 6c 5e 02 00    	pushl  0x25e6c
   1d1c6:	e8 4a a1 ff ff       	call   17315 <Switch_To_User_Context>
   1d1cb:	81 c4 08 00 00 00    	add    $0x8,%esp
   1d1d1:	0f a9                	pop    %gs
   1d1d3:	0f a1                	pop    %fs
   1d1d5:	07                   	pop    %es
   1d1d6:	1f                   	pop    %ds
   1d1d7:	5d                   	pop    %ebp
   1d1d8:	5f                   	pop    %edi
   1d1d9:	5e                   	pop    %esi
   1d1da:	5a                   	pop    %edx
   1d1db:	59                   	pop    %ecx
   1d1dc:	5b                   	pop    %ebx
   1d1dd:	58                   	pop    %eax
   1d1de:	81 c4 08 00 00 00    	add    $0x8,%esp
   1d1e4:	cf                   	iret   
   1d1e5:	90                   	nop
   1d1e6:	90                   	nop
   1d1e7:	90                   	nop
   1d1e8:	90                   	nop
   1d1e9:	90                   	nop
   1d1ea:	90                   	nop
   1d1eb:	90                   	nop
   1d1ec:	90                   	nop
   1d1ed:	90                   	nop
   1d1ee:	90                   	nop
   1d1ef:	90                   	nop

0001d1f0 <Get_Current_EFLAGS>:
   1d1f0:	9c                   	pushf  
   1d1f1:	58                   	pop    %eax
   1d1f2:	c3                   	ret    
   1d1f3:	90                   	nop
   1d1f4:	90                   	nop
   1d1f5:	90                   	nop
   1d1f6:	90                   	nop
   1d1f7:	90                   	nop

0001d1f8 <g_entryPointTableStart>:
   1d1f8:	68 00 00 00 00       	push   $0x0
   1d1fd:	68 00 00 00 00       	push   $0x0
   1d202:	e9 c1 fe ff ff       	jmp    1d0c8 <Handle_Interrupt>
   1d207:	90                   	nop

0001d208 <Before_No_Err>:
   1d208:	68 00 00 00 00       	push   $0x0
   1d20d:	68 01 00 00 00       	push   $0x1
   1d212:	e9 b1 fe ff ff       	jmp    1d0c8 <Handle_Interrupt>
   1d217:	90                   	nop

0001d218 <After_No_Err>:
   1d218:	68 00 00 00 00       	push   $0x0
   1d21d:	68 02 00 00 00       	push   $0x2
   1d222:	e9 a1 fe ff ff       	jmp    1d0c8 <Handle_Interrupt>
   1d227:	90                   	nop
   1d228:	68 00 00 00 00       	push   $0x0
   1d22d:	68 03 00 00 00       	push   $0x3
   1d232:	e9 91 fe ff ff       	jmp    1d0c8 <Handle_Interrupt>
   1d237:	90                   	nop
   1d238:	68 00 00 00 00       	push   $0x0
   1d23d:	68 04 00 00 00       	push   $0x4
   1d242:	e9 81 fe ff ff       	jmp    1d0c8 <Handle_Interrupt>
   1d247:	90                   	nop
   1d248:	68 00 00 00 00       	push   $0x0
   1d24d:	68 05 00 00 00       	push   $0x5
   1d252:	e9 71 fe ff ff       	jmp    1d0c8 <Handle_Interrupt>
   1d257:	90                   	nop
   1d258:	68 00 00 00 00       	push   $0x0
   1d25d:	68 06 00 00 00       	push   $0x6
   1d262:	e9 61 fe ff ff       	jmp    1d0c8 <Handle_Interrupt>
   1d267:	90                   	nop
   1d268:	68 00 00 00 00       	push   $0x0
   1d26d:	68 07 00 00 00       	push   $0x7
   1d272:	e9 51 fe ff ff       	jmp    1d0c8 <Handle_Interrupt>
   1d277:	90                   	nop

0001d278 <Before_Err>:
   1d278:	68 08 00 00 00       	push   $0x8
   1d27d:	e9 46 fe ff ff       	jmp    1d0c8 <Handle_Interrupt>
   1d282:	90                   	nop
   1d283:	90                   	nop
   1d284:	90                   	nop
   1d285:	90                   	nop
   1d286:	90                   	nop
   1d287:	90                   	nop

0001d288 <After_Err>:
   1d288:	68 00 00 00 00       	push   $0x0
   1d28d:	68 09 00 00 00       	push   $0x9
   1d292:	e9 31 fe ff ff       	jmp    1d0c8 <Handle_Interrupt>
   1d297:	90                   	nop
   1d298:	68 0a 00 00 00       	push   $0xa
   1d29d:	e9 26 fe ff ff       	jmp    1d0c8 <Handle_Interrupt>
   1d2a2:	90                   	nop
   1d2a3:	90                   	nop
   1d2a4:	90                   	nop
   1d2a5:	90                   	nop
   1d2a6:	90                   	nop
   1d2a7:	90                   	nop
   1d2a8:	68 0b 00 00 00       	push   $0xb
   1d2ad:	e9 16 fe ff ff       	jmp    1d0c8 <Handle_Interrupt>
   1d2b2:	90                   	nop
   1d2b3:	90                   	nop
   1d2b4:	90                   	nop
   1d2b5:	90                   	nop
   1d2b6:	90                   	nop
   1d2b7:	90                   	nop
   1d2b8:	68 0c 00 00 00       	push   $0xc
   1d2bd:	e9 06 fe ff ff       	jmp    1d0c8 <Handle_Interrupt>
   1d2c2:	90                   	nop
   1d2c3:	90                   	nop
   1d2c4:	90                   	nop
   1d2c5:	90                   	nop
   1d2c6:	90                   	nop
   1d2c7:	90                   	nop
   1d2c8:	68 0d 00 00 00       	push   $0xd
   1d2cd:	e9 f6 fd ff ff       	jmp    1d0c8 <Handle_Interrupt>
   1d2d2:	90                   	nop
   1d2d3:	90                   	nop
   1d2d4:	90                   	nop
   1d2d5:	90                   	nop
   1d2d6:	90                   	nop
   1d2d7:	90                   	nop
   1d2d8:	68 0e 00 00 00       	push   $0xe
   1d2dd:	e9 e6 fd ff ff       	jmp    1d0c8 <Handle_Interrupt>
   1d2e2:	90                   	nop
   1d2e3:	90                   	nop
   1d2e4:	90                   	nop
   1d2e5:	90                   	nop
   1d2e6:	90                   	nop
   1d2e7:	90                   	nop
   1d2e8:	68 00 00 00 00       	push   $0x0
   1d2ed:	68 0f 00 00 00       	push   $0xf
   1d2f2:	e9 d1 fd ff ff       	jmp    1d0c8 <Handle_Interrupt>
   1d2f7:	90                   	nop
   1d2f8:	68 00 00 00 00       	push   $0x0
   1d2fd:	68 10 00 00 00       	push   $0x10
   1d302:	e9 c1 fd ff ff       	jmp    1d0c8 <Handle_Interrupt>
   1d307:	90                   	nop
   1d308:	68 11 00 00 00       	push   $0x11
   1d30d:	e9 b6 fd ff ff       	jmp    1d0c8 <Handle_Interrupt>
   1d312:	90                   	nop
   1d313:	90                   	nop
   1d314:	90                   	nop
   1d315:	90                   	nop
   1d316:	90                   	nop
   1d317:	90                   	nop
   1d318:	68 00 00 00 00       	push   $0x0
   1d31d:	68 12 00 00 00       	push   $0x12
   1d322:	e9 a1 fd ff ff       	jmp    1d0c8 <Handle_Interrupt>
   1d327:	90                   	nop
   1d328:	68 00 00 00 00       	push   $0x0
   1d32d:	68 13 00 00 00       	push   $0x13
   1d332:	e9 91 fd ff ff       	jmp    1d0c8 <Handle_Interrupt>
   1d337:	90                   	nop
   1d338:	68 00 00 00 00       	push   $0x0
   1d33d:	68 14 00 00 00       	push   $0x14
   1d342:	e9 81 fd ff ff       	jmp    1d0c8 <Handle_Interrupt>
   1d347:	90                   	nop
   1d348:	68 00 00 00 00       	push   $0x0
   1d34d:	68 15 00 00 00       	push   $0x15
   1d352:	e9 71 fd ff ff       	jmp    1d0c8 <Handle_Interrupt>
   1d357:	90                   	nop
   1d358:	68 00 00 00 00       	push   $0x0
   1d35d:	68 16 00 00 00       	push   $0x16
   1d362:	e9 61 fd ff ff       	jmp    1d0c8 <Handle_Interrupt>
   1d367:	90                   	nop
   1d368:	68 00 00 00 00       	push   $0x0
   1d36d:	68 17 00 00 00       	push   $0x17
   1d372:	e9 51 fd ff ff       	jmp    1d0c8 <Handle_Interrupt>
   1d377:	90                   	nop
   1d378:	68 00 00 00 00       	push   $0x0
   1d37d:	68 18 00 00 00       	push   $0x18
   1d382:	e9 41 fd ff ff       	jmp    1d0c8 <Handle_Interrupt>
   1d387:	90                   	nop
   1d388:	68 00 00 00 00       	push   $0x0
   1d38d:	68 19 00 00 00       	push   $0x19
   1d392:	e9 31 fd ff ff       	jmp    1d0c8 <Handle_Interrupt>
   1d397:	90                   	nop
   1d398:	68 00 00 00 00       	push   $0x0
   1d39d:	68 1a 00 00 00       	push   $0x1a
   1d3a2:	e9 21 fd ff ff       	jmp    1d0c8 <Handle_Interrupt>
   1d3a7:	90                   	nop
   1d3a8:	68 00 00 00 00       	push   $0x0
   1d3ad:	68 1b 00 00 00       	push   $0x1b
   1d3b2:	e9 11 fd ff ff       	jmp    1d0c8 <Handle_Interrupt>
   1d3b7:	90                   	nop
   1d3b8:	68 00 00 00 00       	push   $0x0
   1d3bd:	68 1c 00 00 00       	push   $0x1c
   1d3c2:	e9 01 fd ff ff       	jmp    1d0c8 <Handle_Interrupt>
   1d3c7:	90                   	nop
   1d3c8:	68 00 00 00 00       	push   $0x0
   1d3cd:	68 1d 00 00 00       	push   $0x1d
   1d3d2:	e9 f1 fc ff ff       	jmp    1d0c8 <Handle_Interrupt>
   1d3d7:	90                   	nop
   1d3d8:	68 00 00 00 00       	push   $0x0
   1d3dd:	68 1e 00 00 00       	push   $0x1e
   1d3e2:	e9 e1 fc ff ff       	jmp    1d0c8 <Handle_Interrupt>
   1d3e7:	90                   	nop
   1d3e8:	68 00 00 00 00       	push   $0x0
   1d3ed:	68 1f 00 00 00       	push   $0x1f
   1d3f2:	e9 d1 fc ff ff       	jmp    1d0c8 <Handle_Interrupt>
   1d3f7:	90                   	nop
   1d3f8:	68 00 00 00 00       	push   $0x0
   1d3fd:	68 20 00 00 00       	push   $0x20
   1d402:	e9 c1 fc ff ff       	jmp    1d0c8 <Handle_Interrupt>
   1d407:	90                   	nop
   1d408:	68 00 00 00 00       	push   $0x0
   1d40d:	68 21 00 00 00       	push   $0x21
   1d412:	e9 b1 fc ff ff       	jmp    1d0c8 <Handle_Interrupt>
   1d417:	90                   	nop
   1d418:	68 00 00 00 00       	push   $0x0
   1d41d:	68 22 00 00 00       	push   $0x22
   1d422:	e9 a1 fc ff ff       	jmp    1d0c8 <Handle_Interrupt>
   1d427:	90                   	nop
   1d428:	68 00 00 00 00       	push   $0x0
   1d42d:	68 23 00 00 00       	push   $0x23
   1d432:	e9 91 fc ff ff       	jmp    1d0c8 <Handle_Interrupt>
   1d437:	90                   	nop
   1d438:	68 00 00 00 00       	push   $0x0
   1d43d:	68 24 00 00 00       	push   $0x24
   1d442:	e9 81 fc ff ff       	jmp    1d0c8 <Handle_Interrupt>
   1d447:	90                   	nop
   1d448:	68 00 00 00 00       	push   $0x0
   1d44d:	68 25 00 00 00       	push   $0x25
   1d452:	e9 71 fc ff ff       	jmp    1d0c8 <Handle_Interrupt>
   1d457:	90                   	nop
   1d458:	68 00 00 00 00       	push   $0x0
   1d45d:	68 26 00 00 00       	push   $0x26
   1d462:	e9 61 fc ff ff       	jmp    1d0c8 <Handle_Interrupt>
   1d467:	90                   	nop
   1d468:	68 00 00 00 00       	push   $0x0
   1d46d:	68 27 00 00 00       	push   $0x27
   1d472:	e9 51 fc ff ff       	jmp    1d0c8 <Handle_Interrupt>
   1d477:	90                   	nop
   1d478:	68 00 00 00 00       	push   $0x0
   1d47d:	68 28 00 00 00       	push   $0x28
   1d482:	e9 41 fc ff ff       	jmp    1d0c8 <Handle_Interrupt>
   1d487:	90                   	nop
   1d488:	68 00 00 00 00       	push   $0x0
   1d48d:	68 29 00 00 00       	push   $0x29
   1d492:	e9 31 fc ff ff       	jmp    1d0c8 <Handle_Interrupt>
   1d497:	90                   	nop
   1d498:	68 00 00 00 00       	push   $0x0
   1d49d:	68 2a 00 00 00       	push   $0x2a
   1d4a2:	e9 21 fc ff ff       	jmp    1d0c8 <Handle_Interrupt>
   1d4a7:	90                   	nop
   1d4a8:	68 00 00 00 00       	push   $0x0
   1d4ad:	68 2b 00 00 00       	push   $0x2b
   1d4b2:	e9 11 fc ff ff       	jmp    1d0c8 <Handle_Interrupt>
   1d4b7:	90                   	nop
   1d4b8:	68 00 00 00 00       	push   $0x0
   1d4bd:	68 2c 00 00 00       	push   $0x2c
   1d4c2:	e9 01 fc ff ff       	jmp    1d0c8 <Handle_Interrupt>
   1d4c7:	90                   	nop
   1d4c8:	68 00 00 00 00       	push   $0x0
   1d4cd:	68 2d 00 00 00       	push   $0x2d
   1d4d2:	e9 f1 fb ff ff       	jmp    1d0c8 <Handle_Interrupt>
   1d4d7:	90                   	nop
   1d4d8:	68 00 00 00 00       	push   $0x0
   1d4dd:	68 2e 00 00 00       	push   $0x2e
   1d4e2:	e9 e1 fb ff ff       	jmp    1d0c8 <Handle_Interrupt>
   1d4e7:	90                   	nop
   1d4e8:	68 00 00 00 00       	push   $0x0
   1d4ed:	68 2f 00 00 00       	push   $0x2f
   1d4f2:	e9 d1 fb ff ff       	jmp    1d0c8 <Handle_Interrupt>
   1d4f7:	90                   	nop
   1d4f8:	68 00 00 00 00       	push   $0x0
   1d4fd:	68 30 00 00 00       	push   $0x30
   1d502:	e9 c1 fb ff ff       	jmp    1d0c8 <Handle_Interrupt>
   1d507:	90                   	nop
   1d508:	68 00 00 00 00       	push   $0x0
   1d50d:	68 31 00 00 00       	push   $0x31
   1d512:	e9 b1 fb ff ff       	jmp    1d0c8 <Handle_Interrupt>
   1d517:	90                   	nop
   1d518:	68 00 00 00 00       	push   $0x0
   1d51d:	68 32 00 00 00       	push   $0x32
   1d522:	e9 a1 fb ff ff       	jmp    1d0c8 <Handle_Interrupt>
   1d527:	90                   	nop
   1d528:	68 00 00 00 00       	push   $0x0
   1d52d:	68 33 00 00 00       	push   $0x33
   1d532:	e9 91 fb ff ff       	jmp    1d0c8 <Handle_Interrupt>
   1d537:	90                   	nop
   1d538:	68 00 00 00 00       	push   $0x0
   1d53d:	68 34 00 00 00       	push   $0x34
   1d542:	e9 81 fb ff ff       	jmp    1d0c8 <Handle_Interrupt>
   1d547:	90                   	nop
   1d548:	68 00 00 00 00       	push   $0x0
   1d54d:	68 35 00 00 00       	push   $0x35
   1d552:	e9 71 fb ff ff       	jmp    1d0c8 <Handle_Interrupt>
   1d557:	90                   	nop
   1d558:	68 00 00 00 00       	push   $0x0
   1d55d:	68 36 00 00 00       	push   $0x36
   1d562:	e9 61 fb ff ff       	jmp    1d0c8 <Handle_Interrupt>
   1d567:	90                   	nop
   1d568:	68 00 00 00 00       	push   $0x0
   1d56d:	68 37 00 00 00       	push   $0x37
   1d572:	e9 51 fb ff ff       	jmp    1d0c8 <Handle_Interrupt>
   1d577:	90                   	nop
   1d578:	68 00 00 00 00       	push   $0x0
   1d57d:	68 38 00 00 00       	push   $0x38
   1d582:	e9 41 fb ff ff       	jmp    1d0c8 <Handle_Interrupt>
   1d587:	90                   	nop
   1d588:	68 00 00 00 00       	push   $0x0
   1d58d:	68 39 00 00 00       	push   $0x39
   1d592:	e9 31 fb ff ff       	jmp    1d0c8 <Handle_Interrupt>
   1d597:	90                   	nop
   1d598:	68 00 00 00 00       	push   $0x0
   1d59d:	68 3a 00 00 00       	push   $0x3a
   1d5a2:	e9 21 fb ff ff       	jmp    1d0c8 <Handle_Interrupt>
   1d5a7:	90                   	nop
   1d5a8:	68 00 00 00 00       	push   $0x0
   1d5ad:	68 3b 00 00 00       	push   $0x3b
   1d5b2:	e9 11 fb ff ff       	jmp    1d0c8 <Handle_Interrupt>
   1d5b7:	90                   	nop
   1d5b8:	68 00 00 00 00       	push   $0x0
   1d5bd:	68 3c 00 00 00       	push   $0x3c
   1d5c2:	e9 01 fb ff ff       	jmp    1d0c8 <Handle_Interrupt>
   1d5c7:	90                   	nop
   1d5c8:	68 00 00 00 00       	push   $0x0
   1d5cd:	68 3d 00 00 00       	push   $0x3d
   1d5d2:	e9 f1 fa ff ff       	jmp    1d0c8 <Handle_Interrupt>
   1d5d7:	90                   	nop
   1d5d8:	68 00 00 00 00       	push   $0x0
   1d5dd:	68 3e 00 00 00       	push   $0x3e
   1d5e2:	e9 e1 fa ff ff       	jmp    1d0c8 <Handle_Interrupt>
   1d5e7:	90                   	nop
   1d5e8:	68 00 00 00 00       	push   $0x0
   1d5ed:	68 3f 00 00 00       	push   $0x3f
   1d5f2:	e9 d1 fa ff ff       	jmp    1d0c8 <Handle_Interrupt>
   1d5f7:	90                   	nop
   1d5f8:	68 00 00 00 00       	push   $0x0
   1d5fd:	68 40 00 00 00       	push   $0x40
   1d602:	e9 c1 fa ff ff       	jmp    1d0c8 <Handle_Interrupt>
   1d607:	90                   	nop
   1d608:	68 00 00 00 00       	push   $0x0
   1d60d:	68 41 00 00 00       	push   $0x41
   1d612:	e9 b1 fa ff ff       	jmp    1d0c8 <Handle_Interrupt>
   1d617:	90                   	nop
   1d618:	68 00 00 00 00       	push   $0x0
   1d61d:	68 42 00 00 00       	push   $0x42
   1d622:	e9 a1 fa ff ff       	jmp    1d0c8 <Handle_Interrupt>
   1d627:	90                   	nop
   1d628:	68 00 00 00 00       	push   $0x0
   1d62d:	68 43 00 00 00       	push   $0x43
   1d632:	e9 91 fa ff ff       	jmp    1d0c8 <Handle_Interrupt>
   1d637:	90                   	nop
   1d638:	68 00 00 00 00       	push   $0x0
   1d63d:	68 44 00 00 00       	push   $0x44
   1d642:	e9 81 fa ff ff       	jmp    1d0c8 <Handle_Interrupt>
   1d647:	90                   	nop
   1d648:	68 00 00 00 00       	push   $0x0
   1d64d:	68 45 00 00 00       	push   $0x45
   1d652:	e9 71 fa ff ff       	jmp    1d0c8 <Handle_Interrupt>
   1d657:	90                   	nop
   1d658:	68 00 00 00 00       	push   $0x0
   1d65d:	68 46 00 00 00       	push   $0x46
   1d662:	e9 61 fa ff ff       	jmp    1d0c8 <Handle_Interrupt>
   1d667:	90                   	nop
   1d668:	68 00 00 00 00       	push   $0x0
   1d66d:	68 47 00 00 00       	push   $0x47
   1d672:	e9 51 fa ff ff       	jmp    1d0c8 <Handle_Interrupt>
   1d677:	90                   	nop
   1d678:	68 00 00 00 00       	push   $0x0
   1d67d:	68 48 00 00 00       	push   $0x48
   1d682:	e9 41 fa ff ff       	jmp    1d0c8 <Handle_Interrupt>
   1d687:	90                   	nop
   1d688:	68 00 00 00 00       	push   $0x0
   1d68d:	68 49 00 00 00       	push   $0x49
   1d692:	e9 31 fa ff ff       	jmp    1d0c8 <Handle_Interrupt>
   1d697:	90                   	nop
   1d698:	68 00 00 00 00       	push   $0x0
   1d69d:	68 4a 00 00 00       	push   $0x4a
   1d6a2:	e9 21 fa ff ff       	jmp    1d0c8 <Handle_Interrupt>
   1d6a7:	90                   	nop
   1d6a8:	68 00 00 00 00       	push   $0x0
   1d6ad:	68 4b 00 00 00       	push   $0x4b
   1d6b2:	e9 11 fa ff ff       	jmp    1d0c8 <Handle_Interrupt>
   1d6b7:	90                   	nop
   1d6b8:	68 00 00 00 00       	push   $0x0
   1d6bd:	68 4c 00 00 00       	push   $0x4c
   1d6c2:	e9 01 fa ff ff       	jmp    1d0c8 <Handle_Interrupt>
   1d6c7:	90                   	nop
   1d6c8:	68 00 00 00 00       	push   $0x0
   1d6cd:	68 4d 00 00 00       	push   $0x4d
   1d6d2:	e9 f1 f9 ff ff       	jmp    1d0c8 <Handle_Interrupt>
   1d6d7:	90                   	nop
   1d6d8:	68 00 00 00 00       	push   $0x0
   1d6dd:	68 4e 00 00 00       	push   $0x4e
   1d6e2:	e9 e1 f9 ff ff       	jmp    1d0c8 <Handle_Interrupt>
   1d6e7:	90                   	nop
   1d6e8:	68 00 00 00 00       	push   $0x0
   1d6ed:	68 4f 00 00 00       	push   $0x4f
   1d6f2:	e9 d1 f9 ff ff       	jmp    1d0c8 <Handle_Interrupt>
   1d6f7:	90                   	nop
   1d6f8:	68 00 00 00 00       	push   $0x0
   1d6fd:	68 50 00 00 00       	push   $0x50
   1d702:	e9 c1 f9 ff ff       	jmp    1d0c8 <Handle_Interrupt>
   1d707:	90                   	nop
   1d708:	68 00 00 00 00       	push   $0x0
   1d70d:	68 51 00 00 00       	push   $0x51
   1d712:	e9 b1 f9 ff ff       	jmp    1d0c8 <Handle_Interrupt>
   1d717:	90                   	nop
   1d718:	68 00 00 00 00       	push   $0x0
   1d71d:	68 52 00 00 00       	push   $0x52
   1d722:	e9 a1 f9 ff ff       	jmp    1d0c8 <Handle_Interrupt>
   1d727:	90                   	nop
   1d728:	68 00 00 00 00       	push   $0x0
   1d72d:	68 53 00 00 00       	push   $0x53
   1d732:	e9 91 f9 ff ff       	jmp    1d0c8 <Handle_Interrupt>
   1d737:	90                   	nop
   1d738:	68 00 00 00 00       	push   $0x0
   1d73d:	68 54 00 00 00       	push   $0x54
   1d742:	e9 81 f9 ff ff       	jmp    1d0c8 <Handle_Interrupt>
   1d747:	90                   	nop
   1d748:	68 00 00 00 00       	push   $0x0
   1d74d:	68 55 00 00 00       	push   $0x55
   1d752:	e9 71 f9 ff ff       	jmp    1d0c8 <Handle_Interrupt>
   1d757:	90                   	nop
   1d758:	68 00 00 00 00       	push   $0x0
   1d75d:	68 56 00 00 00       	push   $0x56
   1d762:	e9 61 f9 ff ff       	jmp    1d0c8 <Handle_Interrupt>
   1d767:	90                   	nop
   1d768:	68 00 00 00 00       	push   $0x0
   1d76d:	68 57 00 00 00       	push   $0x57
   1d772:	e9 51 f9 ff ff       	jmp    1d0c8 <Handle_Interrupt>
   1d777:	90                   	nop
   1d778:	68 00 00 00 00       	push   $0x0
   1d77d:	68 58 00 00 00       	push   $0x58
   1d782:	e9 41 f9 ff ff       	jmp    1d0c8 <Handle_Interrupt>
   1d787:	90                   	nop
   1d788:	68 00 00 00 00       	push   $0x0
   1d78d:	68 59 00 00 00       	push   $0x59
   1d792:	e9 31 f9 ff ff       	jmp    1d0c8 <Handle_Interrupt>
   1d797:	90                   	nop
   1d798:	68 00 00 00 00       	push   $0x0
   1d79d:	68 5a 00 00 00       	push   $0x5a
   1d7a2:	e9 21 f9 ff ff       	jmp    1d0c8 <Handle_Interrupt>
   1d7a7:	90                   	nop
   1d7a8:	68 00 00 00 00       	push   $0x0
   1d7ad:	68 5b 00 00 00       	push   $0x5b
   1d7b2:	e9 11 f9 ff ff       	jmp    1d0c8 <Handle_Interrupt>
   1d7b7:	90                   	nop
   1d7b8:	68 00 00 00 00       	push   $0x0
   1d7bd:	68 5c 00 00 00       	push   $0x5c
   1d7c2:	e9 01 f9 ff ff       	jmp    1d0c8 <Handle_Interrupt>
   1d7c7:	90                   	nop
   1d7c8:	68 00 00 00 00       	push   $0x0
   1d7cd:	68 5d 00 00 00       	push   $0x5d
   1d7d2:	e9 f1 f8 ff ff       	jmp    1d0c8 <Handle_Interrupt>
   1d7d7:	90                   	nop
   1d7d8:	68 00 00 00 00       	push   $0x0
   1d7dd:	68 5e 00 00 00       	push   $0x5e
   1d7e2:	e9 e1 f8 ff ff       	jmp    1d0c8 <Handle_Interrupt>
   1d7e7:	90                   	nop
   1d7e8:	68 00 00 00 00       	push   $0x0
   1d7ed:	68 5f 00 00 00       	push   $0x5f
   1d7f2:	e9 d1 f8 ff ff       	jmp    1d0c8 <Handle_Interrupt>
   1d7f7:	90                   	nop
   1d7f8:	68 00 00 00 00       	push   $0x0
   1d7fd:	68 60 00 00 00       	push   $0x60
   1d802:	e9 c1 f8 ff ff       	jmp    1d0c8 <Handle_Interrupt>
   1d807:	90                   	nop
   1d808:	68 00 00 00 00       	push   $0x0
   1d80d:	68 61 00 00 00       	push   $0x61
   1d812:	e9 b1 f8 ff ff       	jmp    1d0c8 <Handle_Interrupt>
   1d817:	90                   	nop
   1d818:	68 00 00 00 00       	push   $0x0
   1d81d:	68 62 00 00 00       	push   $0x62
   1d822:	e9 a1 f8 ff ff       	jmp    1d0c8 <Handle_Interrupt>
   1d827:	90                   	nop
   1d828:	68 00 00 00 00       	push   $0x0
   1d82d:	68 63 00 00 00       	push   $0x63
   1d832:	e9 91 f8 ff ff       	jmp    1d0c8 <Handle_Interrupt>
   1d837:	90                   	nop
   1d838:	68 00 00 00 00       	push   $0x0
   1d83d:	68 64 00 00 00       	push   $0x64
   1d842:	e9 81 f8 ff ff       	jmp    1d0c8 <Handle_Interrupt>
   1d847:	90                   	nop
   1d848:	68 00 00 00 00       	push   $0x0
   1d84d:	68 65 00 00 00       	push   $0x65
   1d852:	e9 71 f8 ff ff       	jmp    1d0c8 <Handle_Interrupt>
   1d857:	90                   	nop
   1d858:	68 00 00 00 00       	push   $0x0
   1d85d:	68 66 00 00 00       	push   $0x66
   1d862:	e9 61 f8 ff ff       	jmp    1d0c8 <Handle_Interrupt>
   1d867:	90                   	nop
   1d868:	68 00 00 00 00       	push   $0x0
   1d86d:	68 67 00 00 00       	push   $0x67
   1d872:	e9 51 f8 ff ff       	jmp    1d0c8 <Handle_Interrupt>
   1d877:	90                   	nop
   1d878:	68 00 00 00 00       	push   $0x0
   1d87d:	68 68 00 00 00       	push   $0x68
   1d882:	e9 41 f8 ff ff       	jmp    1d0c8 <Handle_Interrupt>
   1d887:	90                   	nop
   1d888:	68 00 00 00 00       	push   $0x0
   1d88d:	68 69 00 00 00       	push   $0x69
   1d892:	e9 31 f8 ff ff       	jmp    1d0c8 <Handle_Interrupt>
   1d897:	90                   	nop
   1d898:	68 00 00 00 00       	push   $0x0
   1d89d:	68 6a 00 00 00       	push   $0x6a
   1d8a2:	e9 21 f8 ff ff       	jmp    1d0c8 <Handle_Interrupt>
   1d8a7:	90                   	nop
   1d8a8:	68 00 00 00 00       	push   $0x0
   1d8ad:	68 6b 00 00 00       	push   $0x6b
   1d8b2:	e9 11 f8 ff ff       	jmp    1d0c8 <Handle_Interrupt>
   1d8b7:	90                   	nop
   1d8b8:	68 00 00 00 00       	push   $0x0
   1d8bd:	68 6c 00 00 00       	push   $0x6c
   1d8c2:	e9 01 f8 ff ff       	jmp    1d0c8 <Handle_Interrupt>
   1d8c7:	90                   	nop
   1d8c8:	68 00 00 00 00       	push   $0x0
   1d8cd:	68 6d 00 00 00       	push   $0x6d
   1d8d2:	e9 f1 f7 ff ff       	jmp    1d0c8 <Handle_Interrupt>
   1d8d7:	90                   	nop
   1d8d8:	68 00 00 00 00       	push   $0x0
   1d8dd:	68 6e 00 00 00       	push   $0x6e
   1d8e2:	e9 e1 f7 ff ff       	jmp    1d0c8 <Handle_Interrupt>
   1d8e7:	90                   	nop
   1d8e8:	68 00 00 00 00       	push   $0x0
   1d8ed:	68 6f 00 00 00       	push   $0x6f
   1d8f2:	e9 d1 f7 ff ff       	jmp    1d0c8 <Handle_Interrupt>
   1d8f7:	90                   	nop
   1d8f8:	68 00 00 00 00       	push   $0x0
   1d8fd:	68 70 00 00 00       	push   $0x70
   1d902:	e9 c1 f7 ff ff       	jmp    1d0c8 <Handle_Interrupt>
   1d907:	90                   	nop
   1d908:	68 00 00 00 00       	push   $0x0
   1d90d:	68 71 00 00 00       	push   $0x71
   1d912:	e9 b1 f7 ff ff       	jmp    1d0c8 <Handle_Interrupt>
   1d917:	90                   	nop
   1d918:	68 00 00 00 00       	push   $0x0
   1d91d:	68 72 00 00 00       	push   $0x72
   1d922:	e9 a1 f7 ff ff       	jmp    1d0c8 <Handle_Interrupt>
   1d927:	90                   	nop
   1d928:	68 00 00 00 00       	push   $0x0
   1d92d:	68 73 00 00 00       	push   $0x73
   1d932:	e9 91 f7 ff ff       	jmp    1d0c8 <Handle_Interrupt>
   1d937:	90                   	nop
   1d938:	68 00 00 00 00       	push   $0x0
   1d93d:	68 74 00 00 00       	push   $0x74
   1d942:	e9 81 f7 ff ff       	jmp    1d0c8 <Handle_Interrupt>
   1d947:	90                   	nop
   1d948:	68 00 00 00 00       	push   $0x0
   1d94d:	68 75 00 00 00       	push   $0x75
   1d952:	e9 71 f7 ff ff       	jmp    1d0c8 <Handle_Interrupt>
   1d957:	90                   	nop
   1d958:	68 00 00 00 00       	push   $0x0
   1d95d:	68 76 00 00 00       	push   $0x76
   1d962:	e9 61 f7 ff ff       	jmp    1d0c8 <Handle_Interrupt>
   1d967:	90                   	nop
   1d968:	68 00 00 00 00       	push   $0x0
   1d96d:	68 77 00 00 00       	push   $0x77
   1d972:	e9 51 f7 ff ff       	jmp    1d0c8 <Handle_Interrupt>
   1d977:	90                   	nop
   1d978:	68 00 00 00 00       	push   $0x0
   1d97d:	68 78 00 00 00       	push   $0x78
   1d982:	e9 41 f7 ff ff       	jmp    1d0c8 <Handle_Interrupt>
   1d987:	90                   	nop
   1d988:	68 00 00 00 00       	push   $0x0
   1d98d:	68 79 00 00 00       	push   $0x79
   1d992:	e9 31 f7 ff ff       	jmp    1d0c8 <Handle_Interrupt>
   1d997:	90                   	nop
   1d998:	68 00 00 00 00       	push   $0x0
   1d99d:	68 7a 00 00 00       	push   $0x7a
   1d9a2:	e9 21 f7 ff ff       	jmp    1d0c8 <Handle_Interrupt>
   1d9a7:	90                   	nop
   1d9a8:	68 00 00 00 00       	push   $0x0
   1d9ad:	68 7b 00 00 00       	push   $0x7b
   1d9b2:	e9 11 f7 ff ff       	jmp    1d0c8 <Handle_Interrupt>
   1d9b7:	90                   	nop
   1d9b8:	68 00 00 00 00       	push   $0x0
   1d9bd:	68 7c 00 00 00       	push   $0x7c
   1d9c2:	e9 01 f7 ff ff       	jmp    1d0c8 <Handle_Interrupt>
   1d9c7:	90                   	nop
   1d9c8:	68 00 00 00 00       	push   $0x0
   1d9cd:	68 7d 00 00 00       	push   $0x7d
   1d9d2:	e9 f1 f6 ff ff       	jmp    1d0c8 <Handle_Interrupt>
   1d9d7:	90                   	nop
   1d9d8:	68 00 00 00 00       	push   $0x0
   1d9dd:	68 7e 00 00 00       	push   $0x7e
   1d9e2:	e9 e1 f6 ff ff       	jmp    1d0c8 <Handle_Interrupt>
   1d9e7:	90                   	nop
   1d9e8:	68 00 00 00 00       	push   $0x0
   1d9ed:	68 7f 00 00 00       	push   $0x7f
   1d9f2:	e9 d1 f6 ff ff       	jmp    1d0c8 <Handle_Interrupt>
   1d9f7:	90                   	nop
   1d9f8:	68 00 00 00 00       	push   $0x0
   1d9fd:	68 80 00 00 00       	push   $0x80
   1da02:	e9 c1 f6 ff ff       	jmp    1d0c8 <Handle_Interrupt>
   1da07:	90                   	nop
   1da08:	68 00 00 00 00       	push   $0x0
   1da0d:	68 81 00 00 00       	push   $0x81
   1da12:	e9 b1 f6 ff ff       	jmp    1d0c8 <Handle_Interrupt>
   1da17:	90                   	nop
   1da18:	68 00 00 00 00       	push   $0x0
   1da1d:	68 82 00 00 00       	push   $0x82
   1da22:	e9 a1 f6 ff ff       	jmp    1d0c8 <Handle_Interrupt>
   1da27:	90                   	nop
   1da28:	68 00 00 00 00       	push   $0x0
   1da2d:	68 83 00 00 00       	push   $0x83
   1da32:	e9 91 f6 ff ff       	jmp    1d0c8 <Handle_Interrupt>
   1da37:	90                   	nop
   1da38:	68 00 00 00 00       	push   $0x0
   1da3d:	68 84 00 00 00       	push   $0x84
   1da42:	e9 81 f6 ff ff       	jmp    1d0c8 <Handle_Interrupt>
   1da47:	90                   	nop
   1da48:	68 00 00 00 00       	push   $0x0
   1da4d:	68 85 00 00 00       	push   $0x85
   1da52:	e9 71 f6 ff ff       	jmp    1d0c8 <Handle_Interrupt>
   1da57:	90                   	nop
   1da58:	68 00 00 00 00       	push   $0x0
   1da5d:	68 86 00 00 00       	push   $0x86
   1da62:	e9 61 f6 ff ff       	jmp    1d0c8 <Handle_Interrupt>
   1da67:	90                   	nop
   1da68:	68 00 00 00 00       	push   $0x0
   1da6d:	68 87 00 00 00       	push   $0x87
   1da72:	e9 51 f6 ff ff       	jmp    1d0c8 <Handle_Interrupt>
   1da77:	90                   	nop
   1da78:	68 00 00 00 00       	push   $0x0
   1da7d:	68 88 00 00 00       	push   $0x88
   1da82:	e9 41 f6 ff ff       	jmp    1d0c8 <Handle_Interrupt>
   1da87:	90                   	nop
   1da88:	68 00 00 00 00       	push   $0x0
   1da8d:	68 89 00 00 00       	push   $0x89
   1da92:	e9 31 f6 ff ff       	jmp    1d0c8 <Handle_Interrupt>
   1da97:	90                   	nop
   1da98:	68 00 00 00 00       	push   $0x0
   1da9d:	68 8a 00 00 00       	push   $0x8a
   1daa2:	e9 21 f6 ff ff       	jmp    1d0c8 <Handle_Interrupt>
   1daa7:	90                   	nop
   1daa8:	68 00 00 00 00       	push   $0x0
   1daad:	68 8b 00 00 00       	push   $0x8b
   1dab2:	e9 11 f6 ff ff       	jmp    1d0c8 <Handle_Interrupt>
   1dab7:	90                   	nop
   1dab8:	68 00 00 00 00       	push   $0x0
   1dabd:	68 8c 00 00 00       	push   $0x8c
   1dac2:	e9 01 f6 ff ff       	jmp    1d0c8 <Handle_Interrupt>
   1dac7:	90                   	nop
   1dac8:	68 00 00 00 00       	push   $0x0
   1dacd:	68 8d 00 00 00       	push   $0x8d
   1dad2:	e9 f1 f5 ff ff       	jmp    1d0c8 <Handle_Interrupt>
   1dad7:	90                   	nop
   1dad8:	68 00 00 00 00       	push   $0x0
   1dadd:	68 8e 00 00 00       	push   $0x8e
   1dae2:	e9 e1 f5 ff ff       	jmp    1d0c8 <Handle_Interrupt>
   1dae7:	90                   	nop
   1dae8:	68 00 00 00 00       	push   $0x0
   1daed:	68 8f 00 00 00       	push   $0x8f
   1daf2:	e9 d1 f5 ff ff       	jmp    1d0c8 <Handle_Interrupt>
   1daf7:	90                   	nop
   1daf8:	68 00 00 00 00       	push   $0x0
   1dafd:	68 90 00 00 00       	push   $0x90
   1db02:	e9 c1 f5 ff ff       	jmp    1d0c8 <Handle_Interrupt>
   1db07:	90                   	nop
   1db08:	68 00 00 00 00       	push   $0x0
   1db0d:	68 91 00 00 00       	push   $0x91
   1db12:	e9 b1 f5 ff ff       	jmp    1d0c8 <Handle_Interrupt>
   1db17:	90                   	nop
   1db18:	68 00 00 00 00       	push   $0x0
   1db1d:	68 92 00 00 00       	push   $0x92
   1db22:	e9 a1 f5 ff ff       	jmp    1d0c8 <Handle_Interrupt>
   1db27:	90                   	nop
   1db28:	68 00 00 00 00       	push   $0x0
   1db2d:	68 93 00 00 00       	push   $0x93
   1db32:	e9 91 f5 ff ff       	jmp    1d0c8 <Handle_Interrupt>
   1db37:	90                   	nop
   1db38:	68 00 00 00 00       	push   $0x0
   1db3d:	68 94 00 00 00       	push   $0x94
   1db42:	e9 81 f5 ff ff       	jmp    1d0c8 <Handle_Interrupt>
   1db47:	90                   	nop
   1db48:	68 00 00 00 00       	push   $0x0
   1db4d:	68 95 00 00 00       	push   $0x95
   1db52:	e9 71 f5 ff ff       	jmp    1d0c8 <Handle_Interrupt>
   1db57:	90                   	nop
   1db58:	68 00 00 00 00       	push   $0x0
   1db5d:	68 96 00 00 00       	push   $0x96
   1db62:	e9 61 f5 ff ff       	jmp    1d0c8 <Handle_Interrupt>
   1db67:	90                   	nop
   1db68:	68 00 00 00 00       	push   $0x0
   1db6d:	68 97 00 00 00       	push   $0x97
   1db72:	e9 51 f5 ff ff       	jmp    1d0c8 <Handle_Interrupt>
   1db77:	90                   	nop
   1db78:	68 00 00 00 00       	push   $0x0
   1db7d:	68 98 00 00 00       	push   $0x98
   1db82:	e9 41 f5 ff ff       	jmp    1d0c8 <Handle_Interrupt>
   1db87:	90                   	nop
   1db88:	68 00 00 00 00       	push   $0x0
   1db8d:	68 99 00 00 00       	push   $0x99
   1db92:	e9 31 f5 ff ff       	jmp    1d0c8 <Handle_Interrupt>
   1db97:	90                   	nop
   1db98:	68 00 00 00 00       	push   $0x0
   1db9d:	68 9a 00 00 00       	push   $0x9a
   1dba2:	e9 21 f5 ff ff       	jmp    1d0c8 <Handle_Interrupt>
   1dba7:	90                   	nop
   1dba8:	68 00 00 00 00       	push   $0x0
   1dbad:	68 9b 00 00 00       	push   $0x9b
   1dbb2:	e9 11 f5 ff ff       	jmp    1d0c8 <Handle_Interrupt>
   1dbb7:	90                   	nop
   1dbb8:	68 00 00 00 00       	push   $0x0
   1dbbd:	68 9c 00 00 00       	push   $0x9c
   1dbc2:	e9 01 f5 ff ff       	jmp    1d0c8 <Handle_Interrupt>
   1dbc7:	90                   	nop
   1dbc8:	68 00 00 00 00       	push   $0x0
   1dbcd:	68 9d 00 00 00       	push   $0x9d
   1dbd2:	e9 f1 f4 ff ff       	jmp    1d0c8 <Handle_Interrupt>
   1dbd7:	90                   	nop
   1dbd8:	68 00 00 00 00       	push   $0x0
   1dbdd:	68 9e 00 00 00       	push   $0x9e
   1dbe2:	e9 e1 f4 ff ff       	jmp    1d0c8 <Handle_Interrupt>
   1dbe7:	90                   	nop
   1dbe8:	68 00 00 00 00       	push   $0x0
   1dbed:	68 9f 00 00 00       	push   $0x9f
   1dbf2:	e9 d1 f4 ff ff       	jmp    1d0c8 <Handle_Interrupt>
   1dbf7:	90                   	nop
   1dbf8:	68 00 00 00 00       	push   $0x0
   1dbfd:	68 a0 00 00 00       	push   $0xa0
   1dc02:	e9 c1 f4 ff ff       	jmp    1d0c8 <Handle_Interrupt>
   1dc07:	90                   	nop
   1dc08:	68 00 00 00 00       	push   $0x0
   1dc0d:	68 a1 00 00 00       	push   $0xa1
   1dc12:	e9 b1 f4 ff ff       	jmp    1d0c8 <Handle_Interrupt>
   1dc17:	90                   	nop
   1dc18:	68 00 00 00 00       	push   $0x0
   1dc1d:	68 a2 00 00 00       	push   $0xa2
   1dc22:	e9 a1 f4 ff ff       	jmp    1d0c8 <Handle_Interrupt>
   1dc27:	90                   	nop
   1dc28:	68 00 00 00 00       	push   $0x0
   1dc2d:	68 a3 00 00 00       	push   $0xa3
   1dc32:	e9 91 f4 ff ff       	jmp    1d0c8 <Handle_Interrupt>
   1dc37:	90                   	nop
   1dc38:	68 00 00 00 00       	push   $0x0
   1dc3d:	68 a4 00 00 00       	push   $0xa4
   1dc42:	e9 81 f4 ff ff       	jmp    1d0c8 <Handle_Interrupt>
   1dc47:	90                   	nop
   1dc48:	68 00 00 00 00       	push   $0x0
   1dc4d:	68 a5 00 00 00       	push   $0xa5
   1dc52:	e9 71 f4 ff ff       	jmp    1d0c8 <Handle_Interrupt>
   1dc57:	90                   	nop
   1dc58:	68 00 00 00 00       	push   $0x0
   1dc5d:	68 a6 00 00 00       	push   $0xa6
   1dc62:	e9 61 f4 ff ff       	jmp    1d0c8 <Handle_Interrupt>
   1dc67:	90                   	nop
   1dc68:	68 00 00 00 00       	push   $0x0
   1dc6d:	68 a7 00 00 00       	push   $0xa7
   1dc72:	e9 51 f4 ff ff       	jmp    1d0c8 <Handle_Interrupt>
   1dc77:	90                   	nop
   1dc78:	68 00 00 00 00       	push   $0x0
   1dc7d:	68 a8 00 00 00       	push   $0xa8
   1dc82:	e9 41 f4 ff ff       	jmp    1d0c8 <Handle_Interrupt>
   1dc87:	90                   	nop
   1dc88:	68 00 00 00 00       	push   $0x0
   1dc8d:	68 a9 00 00 00       	push   $0xa9
   1dc92:	e9 31 f4 ff ff       	jmp    1d0c8 <Handle_Interrupt>
   1dc97:	90                   	nop
   1dc98:	68 00 00 00 00       	push   $0x0
   1dc9d:	68 aa 00 00 00       	push   $0xaa
   1dca2:	e9 21 f4 ff ff       	jmp    1d0c8 <Handle_Interrupt>
   1dca7:	90                   	nop
   1dca8:	68 00 00 00 00       	push   $0x0
   1dcad:	68 ab 00 00 00       	push   $0xab
   1dcb2:	e9 11 f4 ff ff       	jmp    1d0c8 <Handle_Interrupt>
   1dcb7:	90                   	nop
   1dcb8:	68 00 00 00 00       	push   $0x0
   1dcbd:	68 ac 00 00 00       	push   $0xac
   1dcc2:	e9 01 f4 ff ff       	jmp    1d0c8 <Handle_Interrupt>
   1dcc7:	90                   	nop
   1dcc8:	68 00 00 00 00       	push   $0x0
   1dccd:	68 ad 00 00 00       	push   $0xad
   1dcd2:	e9 f1 f3 ff ff       	jmp    1d0c8 <Handle_Interrupt>
   1dcd7:	90                   	nop
   1dcd8:	68 00 00 00 00       	push   $0x0
   1dcdd:	68 ae 00 00 00       	push   $0xae
   1dce2:	e9 e1 f3 ff ff       	jmp    1d0c8 <Handle_Interrupt>
   1dce7:	90                   	nop
   1dce8:	68 00 00 00 00       	push   $0x0
   1dced:	68 af 00 00 00       	push   $0xaf
   1dcf2:	e9 d1 f3 ff ff       	jmp    1d0c8 <Handle_Interrupt>
   1dcf7:	90                   	nop
   1dcf8:	68 00 00 00 00       	push   $0x0
   1dcfd:	68 b0 00 00 00       	push   $0xb0
   1dd02:	e9 c1 f3 ff ff       	jmp    1d0c8 <Handle_Interrupt>
   1dd07:	90                   	nop
   1dd08:	68 00 00 00 00       	push   $0x0
   1dd0d:	68 b1 00 00 00       	push   $0xb1
   1dd12:	e9 b1 f3 ff ff       	jmp    1d0c8 <Handle_Interrupt>
   1dd17:	90                   	nop
   1dd18:	68 00 00 00 00       	push   $0x0
   1dd1d:	68 b2 00 00 00       	push   $0xb2
   1dd22:	e9 a1 f3 ff ff       	jmp    1d0c8 <Handle_Interrupt>
   1dd27:	90                   	nop
   1dd28:	68 00 00 00 00       	push   $0x0
   1dd2d:	68 b3 00 00 00       	push   $0xb3
   1dd32:	e9 91 f3 ff ff       	jmp    1d0c8 <Handle_Interrupt>
   1dd37:	90                   	nop
   1dd38:	68 00 00 00 00       	push   $0x0
   1dd3d:	68 b4 00 00 00       	push   $0xb4
   1dd42:	e9 81 f3 ff ff       	jmp    1d0c8 <Handle_Interrupt>
   1dd47:	90                   	nop
   1dd48:	68 00 00 00 00       	push   $0x0
   1dd4d:	68 b5 00 00 00       	push   $0xb5
   1dd52:	e9 71 f3 ff ff       	jmp    1d0c8 <Handle_Interrupt>
   1dd57:	90                   	nop
   1dd58:	68 00 00 00 00       	push   $0x0
   1dd5d:	68 b6 00 00 00       	push   $0xb6
   1dd62:	e9 61 f3 ff ff       	jmp    1d0c8 <Handle_Interrupt>
   1dd67:	90                   	nop
   1dd68:	68 00 00 00 00       	push   $0x0
   1dd6d:	68 b7 00 00 00       	push   $0xb7
   1dd72:	e9 51 f3 ff ff       	jmp    1d0c8 <Handle_Interrupt>
   1dd77:	90                   	nop
   1dd78:	68 00 00 00 00       	push   $0x0
   1dd7d:	68 b8 00 00 00       	push   $0xb8
   1dd82:	e9 41 f3 ff ff       	jmp    1d0c8 <Handle_Interrupt>
   1dd87:	90                   	nop
   1dd88:	68 00 00 00 00       	push   $0x0
   1dd8d:	68 b9 00 00 00       	push   $0xb9
   1dd92:	e9 31 f3 ff ff       	jmp    1d0c8 <Handle_Interrupt>
   1dd97:	90                   	nop
   1dd98:	68 00 00 00 00       	push   $0x0
   1dd9d:	68 ba 00 00 00       	push   $0xba
   1dda2:	e9 21 f3 ff ff       	jmp    1d0c8 <Handle_Interrupt>
   1dda7:	90                   	nop
   1dda8:	68 00 00 00 00       	push   $0x0
   1ddad:	68 bb 00 00 00       	push   $0xbb
   1ddb2:	e9 11 f3 ff ff       	jmp    1d0c8 <Handle_Interrupt>
   1ddb7:	90                   	nop
   1ddb8:	68 00 00 00 00       	push   $0x0
   1ddbd:	68 bc 00 00 00       	push   $0xbc
   1ddc2:	e9 01 f3 ff ff       	jmp    1d0c8 <Handle_Interrupt>
   1ddc7:	90                   	nop
   1ddc8:	68 00 00 00 00       	push   $0x0
   1ddcd:	68 bd 00 00 00       	push   $0xbd
   1ddd2:	e9 f1 f2 ff ff       	jmp    1d0c8 <Handle_Interrupt>
   1ddd7:	90                   	nop
   1ddd8:	68 00 00 00 00       	push   $0x0
   1dddd:	68 be 00 00 00       	push   $0xbe
   1dde2:	e9 e1 f2 ff ff       	jmp    1d0c8 <Handle_Interrupt>
   1dde7:	90                   	nop
   1dde8:	68 00 00 00 00       	push   $0x0
   1dded:	68 bf 00 00 00       	push   $0xbf
   1ddf2:	e9 d1 f2 ff ff       	jmp    1d0c8 <Handle_Interrupt>
   1ddf7:	90                   	nop
   1ddf8:	68 00 00 00 00       	push   $0x0
   1ddfd:	68 c0 00 00 00       	push   $0xc0
   1de02:	e9 c1 f2 ff ff       	jmp    1d0c8 <Handle_Interrupt>
   1de07:	90                   	nop
   1de08:	68 00 00 00 00       	push   $0x0
   1de0d:	68 c1 00 00 00       	push   $0xc1
   1de12:	e9 b1 f2 ff ff       	jmp    1d0c8 <Handle_Interrupt>
   1de17:	90                   	nop
   1de18:	68 00 00 00 00       	push   $0x0
   1de1d:	68 c2 00 00 00       	push   $0xc2
   1de22:	e9 a1 f2 ff ff       	jmp    1d0c8 <Handle_Interrupt>
   1de27:	90                   	nop
   1de28:	68 00 00 00 00       	push   $0x0
   1de2d:	68 c3 00 00 00       	push   $0xc3
   1de32:	e9 91 f2 ff ff       	jmp    1d0c8 <Handle_Interrupt>
   1de37:	90                   	nop
   1de38:	68 00 00 00 00       	push   $0x0
   1de3d:	68 c4 00 00 00       	push   $0xc4
   1de42:	e9 81 f2 ff ff       	jmp    1d0c8 <Handle_Interrupt>
   1de47:	90                   	nop
   1de48:	68 00 00 00 00       	push   $0x0
   1de4d:	68 c5 00 00 00       	push   $0xc5
   1de52:	e9 71 f2 ff ff       	jmp    1d0c8 <Handle_Interrupt>
   1de57:	90                   	nop
   1de58:	68 00 00 00 00       	push   $0x0
   1de5d:	68 c6 00 00 00       	push   $0xc6
   1de62:	e9 61 f2 ff ff       	jmp    1d0c8 <Handle_Interrupt>
   1de67:	90                   	nop
   1de68:	68 00 00 00 00       	push   $0x0
   1de6d:	68 c7 00 00 00       	push   $0xc7
   1de72:	e9 51 f2 ff ff       	jmp    1d0c8 <Handle_Interrupt>
   1de77:	90                   	nop
   1de78:	68 00 00 00 00       	push   $0x0
   1de7d:	68 c8 00 00 00       	push   $0xc8
   1de82:	e9 41 f2 ff ff       	jmp    1d0c8 <Handle_Interrupt>
   1de87:	90                   	nop
   1de88:	68 00 00 00 00       	push   $0x0
   1de8d:	68 c9 00 00 00       	push   $0xc9
   1de92:	e9 31 f2 ff ff       	jmp    1d0c8 <Handle_Interrupt>
   1de97:	90                   	nop
   1de98:	68 00 00 00 00       	push   $0x0
   1de9d:	68 ca 00 00 00       	push   $0xca
   1dea2:	e9 21 f2 ff ff       	jmp    1d0c8 <Handle_Interrupt>
   1dea7:	90                   	nop
   1dea8:	68 00 00 00 00       	push   $0x0
   1dead:	68 cb 00 00 00       	push   $0xcb
   1deb2:	e9 11 f2 ff ff       	jmp    1d0c8 <Handle_Interrupt>
   1deb7:	90                   	nop
   1deb8:	68 00 00 00 00       	push   $0x0
   1debd:	68 cc 00 00 00       	push   $0xcc
   1dec2:	e9 01 f2 ff ff       	jmp    1d0c8 <Handle_Interrupt>
   1dec7:	90                   	nop
   1dec8:	68 00 00 00 00       	push   $0x0
   1decd:	68 cd 00 00 00       	push   $0xcd
   1ded2:	e9 f1 f1 ff ff       	jmp    1d0c8 <Handle_Interrupt>
   1ded7:	90                   	nop
   1ded8:	68 00 00 00 00       	push   $0x0
   1dedd:	68 ce 00 00 00       	push   $0xce
   1dee2:	e9 e1 f1 ff ff       	jmp    1d0c8 <Handle_Interrupt>
   1dee7:	90                   	nop
   1dee8:	68 00 00 00 00       	push   $0x0
   1deed:	68 cf 00 00 00       	push   $0xcf
   1def2:	e9 d1 f1 ff ff       	jmp    1d0c8 <Handle_Interrupt>
   1def7:	90                   	nop
   1def8:	68 00 00 00 00       	push   $0x0
   1defd:	68 d0 00 00 00       	push   $0xd0
   1df02:	e9 c1 f1 ff ff       	jmp    1d0c8 <Handle_Interrupt>
   1df07:	90                   	nop
   1df08:	68 00 00 00 00       	push   $0x0
   1df0d:	68 d1 00 00 00       	push   $0xd1
   1df12:	e9 b1 f1 ff ff       	jmp    1d0c8 <Handle_Interrupt>
   1df17:	90                   	nop
   1df18:	68 00 00 00 00       	push   $0x0
   1df1d:	68 d2 00 00 00       	push   $0xd2
   1df22:	e9 a1 f1 ff ff       	jmp    1d0c8 <Handle_Interrupt>
   1df27:	90                   	nop
   1df28:	68 00 00 00 00       	push   $0x0
   1df2d:	68 d3 00 00 00       	push   $0xd3
   1df32:	e9 91 f1 ff ff       	jmp    1d0c8 <Handle_Interrupt>
   1df37:	90                   	nop
   1df38:	68 00 00 00 00       	push   $0x0
   1df3d:	68 d4 00 00 00       	push   $0xd4
   1df42:	e9 81 f1 ff ff       	jmp    1d0c8 <Handle_Interrupt>
   1df47:	90                   	nop
   1df48:	68 00 00 00 00       	push   $0x0
   1df4d:	68 d5 00 00 00       	push   $0xd5
   1df52:	e9 71 f1 ff ff       	jmp    1d0c8 <Handle_Interrupt>
   1df57:	90                   	nop
   1df58:	68 00 00 00 00       	push   $0x0
   1df5d:	68 d6 00 00 00       	push   $0xd6
   1df62:	e9 61 f1 ff ff       	jmp    1d0c8 <Handle_Interrupt>
   1df67:	90                   	nop
   1df68:	68 00 00 00 00       	push   $0x0
   1df6d:	68 d7 00 00 00       	push   $0xd7
   1df72:	e9 51 f1 ff ff       	jmp    1d0c8 <Handle_Interrupt>
   1df77:	90                   	nop
   1df78:	68 00 00 00 00       	push   $0x0
   1df7d:	68 d8 00 00 00       	push   $0xd8
   1df82:	e9 41 f1 ff ff       	jmp    1d0c8 <Handle_Interrupt>
   1df87:	90                   	nop
   1df88:	68 00 00 00 00       	push   $0x0
   1df8d:	68 d9 00 00 00       	push   $0xd9
   1df92:	e9 31 f1 ff ff       	jmp    1d0c8 <Handle_Interrupt>
   1df97:	90                   	nop
   1df98:	68 00 00 00 00       	push   $0x0
   1df9d:	68 da 00 00 00       	push   $0xda
   1dfa2:	e9 21 f1 ff ff       	jmp    1d0c8 <Handle_Interrupt>
   1dfa7:	90                   	nop
   1dfa8:	68 00 00 00 00       	push   $0x0
   1dfad:	68 db 00 00 00       	push   $0xdb
   1dfb2:	e9 11 f1 ff ff       	jmp    1d0c8 <Handle_Interrupt>
   1dfb7:	90                   	nop
   1dfb8:	68 00 00 00 00       	push   $0x0
   1dfbd:	68 dc 00 00 00       	push   $0xdc
   1dfc2:	e9 01 f1 ff ff       	jmp    1d0c8 <Handle_Interrupt>
   1dfc7:	90                   	nop
   1dfc8:	68 00 00 00 00       	push   $0x0
   1dfcd:	68 dd 00 00 00       	push   $0xdd
   1dfd2:	e9 f1 f0 ff ff       	jmp    1d0c8 <Handle_Interrupt>
   1dfd7:	90                   	nop
   1dfd8:	68 00 00 00 00       	push   $0x0
   1dfdd:	68 de 00 00 00       	push   $0xde
   1dfe2:	e9 e1 f0 ff ff       	jmp    1d0c8 <Handle_Interrupt>
   1dfe7:	90                   	nop
   1dfe8:	68 00 00 00 00       	push   $0x0
   1dfed:	68 df 00 00 00       	push   $0xdf
   1dff2:	e9 d1 f0 ff ff       	jmp    1d0c8 <Handle_Interrupt>
   1dff7:	90                   	nop
   1dff8:	68 00 00 00 00       	push   $0x0
   1dffd:	68 e0 00 00 00       	push   $0xe0
   1e002:	e9 c1 f0 ff ff       	jmp    1d0c8 <Handle_Interrupt>
   1e007:	90                   	nop
   1e008:	68 00 00 00 00       	push   $0x0
   1e00d:	68 e1 00 00 00       	push   $0xe1
   1e012:	e9 b1 f0 ff ff       	jmp    1d0c8 <Handle_Interrupt>
   1e017:	90                   	nop
   1e018:	68 00 00 00 00       	push   $0x0
   1e01d:	68 e2 00 00 00       	push   $0xe2
   1e022:	e9 a1 f0 ff ff       	jmp    1d0c8 <Handle_Interrupt>
   1e027:	90                   	nop
   1e028:	68 00 00 00 00       	push   $0x0
   1e02d:	68 e3 00 00 00       	push   $0xe3
   1e032:	e9 91 f0 ff ff       	jmp    1d0c8 <Handle_Interrupt>
   1e037:	90                   	nop
   1e038:	68 00 00 00 00       	push   $0x0
   1e03d:	68 e4 00 00 00       	push   $0xe4
   1e042:	e9 81 f0 ff ff       	jmp    1d0c8 <Handle_Interrupt>
   1e047:	90                   	nop
   1e048:	68 00 00 00 00       	push   $0x0
   1e04d:	68 e5 00 00 00       	push   $0xe5
   1e052:	e9 71 f0 ff ff       	jmp    1d0c8 <Handle_Interrupt>
   1e057:	90                   	nop
   1e058:	68 00 00 00 00       	push   $0x0
   1e05d:	68 e6 00 00 00       	push   $0xe6
   1e062:	e9 61 f0 ff ff       	jmp    1d0c8 <Handle_Interrupt>
   1e067:	90                   	nop
   1e068:	68 00 00 00 00       	push   $0x0
   1e06d:	68 e7 00 00 00       	push   $0xe7
   1e072:	e9 51 f0 ff ff       	jmp    1d0c8 <Handle_Interrupt>
   1e077:	90                   	nop
   1e078:	68 00 00 00 00       	push   $0x0
   1e07d:	68 e8 00 00 00       	push   $0xe8
   1e082:	e9 41 f0 ff ff       	jmp    1d0c8 <Handle_Interrupt>
   1e087:	90                   	nop
   1e088:	68 00 00 00 00       	push   $0x0
   1e08d:	68 e9 00 00 00       	push   $0xe9
   1e092:	e9 31 f0 ff ff       	jmp    1d0c8 <Handle_Interrupt>
   1e097:	90                   	nop
   1e098:	68 00 00 00 00       	push   $0x0
   1e09d:	68 ea 00 00 00       	push   $0xea
   1e0a2:	e9 21 f0 ff ff       	jmp    1d0c8 <Handle_Interrupt>
   1e0a7:	90                   	nop
   1e0a8:	68 00 00 00 00       	push   $0x0
   1e0ad:	68 eb 00 00 00       	push   $0xeb
   1e0b2:	e9 11 f0 ff ff       	jmp    1d0c8 <Handle_Interrupt>
   1e0b7:	90                   	nop
   1e0b8:	68 00 00 00 00       	push   $0x0
   1e0bd:	68 ec 00 00 00       	push   $0xec
   1e0c2:	e9 01 f0 ff ff       	jmp    1d0c8 <Handle_Interrupt>
   1e0c7:	90                   	nop
   1e0c8:	68 00 00 00 00       	push   $0x0
   1e0cd:	68 ed 00 00 00       	push   $0xed
   1e0d2:	e9 f1 ef ff ff       	jmp    1d0c8 <Handle_Interrupt>
   1e0d7:	90                   	nop
   1e0d8:	68 00 00 00 00       	push   $0x0
   1e0dd:	68 ee 00 00 00       	push   $0xee
   1e0e2:	e9 e1 ef ff ff       	jmp    1d0c8 <Handle_Interrupt>
   1e0e7:	90                   	nop
   1e0e8:	68 00 00 00 00       	push   $0x0
   1e0ed:	68 ef 00 00 00       	push   $0xef
   1e0f2:	e9 d1 ef ff ff       	jmp    1d0c8 <Handle_Interrupt>
   1e0f7:	90                   	nop
   1e0f8:	68 00 00 00 00       	push   $0x0
   1e0fd:	68 f0 00 00 00       	push   $0xf0
   1e102:	e9 c1 ef ff ff       	jmp    1d0c8 <Handle_Interrupt>
   1e107:	90                   	nop
   1e108:	68 00 00 00 00       	push   $0x0
   1e10d:	68 f1 00 00 00       	push   $0xf1
   1e112:	e9 b1 ef ff ff       	jmp    1d0c8 <Handle_Interrupt>
   1e117:	90                   	nop
   1e118:	68 00 00 00 00       	push   $0x0
   1e11d:	68 f2 00 00 00       	push   $0xf2
   1e122:	e9 a1 ef ff ff       	jmp    1d0c8 <Handle_Interrupt>
   1e127:	90                   	nop
   1e128:	68 00 00 00 00       	push   $0x0
   1e12d:	68 f3 00 00 00       	push   $0xf3
   1e132:	e9 91 ef ff ff       	jmp    1d0c8 <Handle_Interrupt>
   1e137:	90                   	nop
   1e138:	68 00 00 00 00       	push   $0x0
   1e13d:	68 f4 00 00 00       	push   $0xf4
   1e142:	e9 81 ef ff ff       	jmp    1d0c8 <Handle_Interrupt>
   1e147:	90                   	nop
   1e148:	68 00 00 00 00       	push   $0x0
   1e14d:	68 f5 00 00 00       	push   $0xf5
   1e152:	e9 71 ef ff ff       	jmp    1d0c8 <Handle_Interrupt>
   1e157:	90                   	nop
   1e158:	68 00 00 00 00       	push   $0x0
   1e15d:	68 f6 00 00 00       	push   $0xf6
   1e162:	e9 61 ef ff ff       	jmp    1d0c8 <Handle_Interrupt>
   1e167:	90                   	nop
   1e168:	68 00 00 00 00       	push   $0x0
   1e16d:	68 f7 00 00 00       	push   $0xf7
   1e172:	e9 51 ef ff ff       	jmp    1d0c8 <Handle_Interrupt>
   1e177:	90                   	nop
   1e178:	68 00 00 00 00       	push   $0x0
   1e17d:	68 f8 00 00 00       	push   $0xf8
   1e182:	e9 41 ef ff ff       	jmp    1d0c8 <Handle_Interrupt>
   1e187:	90                   	nop
   1e188:	68 00 00 00 00       	push   $0x0
   1e18d:	68 f9 00 00 00       	push   $0xf9
   1e192:	e9 31 ef ff ff       	jmp    1d0c8 <Handle_Interrupt>
   1e197:	90                   	nop
   1e198:	68 00 00 00 00       	push   $0x0
   1e19d:	68 fa 00 00 00       	push   $0xfa
   1e1a2:	e9 21 ef ff ff       	jmp    1d0c8 <Handle_Interrupt>
   1e1a7:	90                   	nop
   1e1a8:	68 00 00 00 00       	push   $0x0
   1e1ad:	68 fb 00 00 00       	push   $0xfb
   1e1b2:	e9 11 ef ff ff       	jmp    1d0c8 <Handle_Interrupt>
   1e1b7:	90                   	nop
   1e1b8:	68 00 00 00 00       	push   $0x0
   1e1bd:	68 fc 00 00 00       	push   $0xfc
   1e1c2:	e9 01 ef ff ff       	jmp    1d0c8 <Handle_Interrupt>
   1e1c7:	90                   	nop
   1e1c8:	68 00 00 00 00       	push   $0x0
   1e1cd:	68 fd 00 00 00       	push   $0xfd
   1e1d2:	e9 f1 ee ff ff       	jmp    1d0c8 <Handle_Interrupt>
   1e1d7:	90                   	nop
   1e1d8:	68 00 00 00 00       	push   $0x0
   1e1dd:	68 fe 00 00 00       	push   $0xfe
   1e1e2:	e9 e1 ee ff ff       	jmp    1d0c8 <Handle_Interrupt>
   1e1e7:	90                   	nop
   1e1e8:	68 00 00 00 00       	push   $0x0
   1e1ed:	68 ff 00 00 00       	push   $0xff
   1e1f2:	e9 d1 ee ff ff       	jmp    1d0c8 <Handle_Interrupt>
   1e1f7:	90                   	nop

0001e1f8 <g_entryPointTableEnd>:
   1e1f8:	66 90                	xchg   %ax,%ax
   1e1fa:	66 90                	xchg   %ax,%ax
   1e1fc:	66 90                	xchg   %ax,%ax
   1e1fe:	66 90                	xchg   %ax,%ax

0001e200 <Format_Output>:
   1e200:	55                   	push   %ebp
   1e201:	89 e5                	mov    %esp,%ebp
   1e203:	57                   	push   %edi
   1e204:	56                   	push   %esi
   1e205:	53                   	push   %ebx
   1e206:	81 ec 8c 00 00 00    	sub    $0x8c,%esp
   1e20c:	8b 55 0c             	mov    0xc(%ebp),%edx
   1e20f:	8b 5d 10             	mov    0x10(%ebp),%ebx
   1e212:	be 00 00 00 00       	mov    $0x0,%esi
   1e217:	c7 45 b4 00 00 00 00 	movl   $0x0,-0x4c(%ebp)
   1e21e:	c7 45 a4 ff ff ff ff 	movl   $0xffffffff,-0x5c(%ebp)
   1e225:	c7 45 a8 00 00 00 00 	movl   $0x0,-0x58(%ebp)
   1e22c:	c7 45 ac 00 00 00 00 	movl   $0x0,-0x54(%ebp)
   1e233:	c7 45 a0 00 00 00 00 	movl   $0x0,-0x60(%ebp)
   1e23a:	89 f7                	mov    %esi,%edi
   1e23c:	8b 75 08             	mov    0x8(%ebp),%esi
   1e23f:	e9 f3 06 00 00       	jmp    1e937 <Format_Output+0x737>
   1e244:	83 ff 04             	cmp    $0x4,%edi
   1e247:	0f 87 e7 06 00 00    	ja     1e934 <Format_Output+0x734>
   1e24d:	ff 24 bd 84 17 02 00 	jmp    *0x21784(,%edi,4)
   1e254:	3c 25                	cmp    $0x25,%al
   1e256:	0f 84 88 06 00 00    	je     1e8e4 <Format_Output+0x6e4>
   1e25c:	0f be c0             	movsbl %al,%eax
   1e25f:	89 44 24 04          	mov    %eax,0x4(%esp)
   1e263:	89 34 24             	mov    %esi,(%esp)
   1e266:	ff 16                	call   *(%esi)
   1e268:	e9 c7 06 00 00       	jmp    1e934 <Format_Output+0x734>
   1e26d:	83 e8 20             	sub    $0x20,%eax
   1e270:	3c 10                	cmp    $0x10,%al
   1e272:	0f 87 8f 06 00 00    	ja     1e907 <Format_Output+0x707>
   1e278:	0f b6 c0             	movzbl %al,%eax
   1e27b:	ff 24 85 98 17 02 00 	jmp    *0x21798(,%eax,4)
   1e282:	83 4d b4 02          	orl    $0x2,-0x4c(%ebp)
   1e286:	e9 a9 06 00 00       	jmp    1e934 <Format_Output+0x734>
   1e28b:	83 4d b4 04          	orl    $0x4,-0x4c(%ebp)
   1e28f:	e9 a0 06 00 00       	jmp    1e934 <Format_Output+0x734>
   1e294:	83 4d b4 08          	orl    $0x8,-0x4c(%ebp)
   1e298:	e9 97 06 00 00       	jmp    1e934 <Format_Output+0x734>
   1e29d:	83 4d b4 10          	orl    $0x10,-0x4c(%ebp)
   1e2a1:	e9 8e 06 00 00       	jmp    1e934 <Format_Output+0x734>
   1e2a6:	83 4d b4 20          	orl    $0x20,-0x4c(%ebp)
   1e2aa:	e9 85 06 00 00       	jmp    1e934 <Format_Output+0x734>
   1e2af:	83 4d b4 01          	orl    $0x1,-0x4c(%ebp)
   1e2b3:	e9 7c 06 00 00       	jmp    1e934 <Format_Output+0x734>
   1e2b8:	8d 48 d0             	lea    -0x30(%eax),%ecx
   1e2bb:	80 f9 09             	cmp    $0x9,%cl
   1e2be:	77 15                	ja     1e2d5 <Format_Output+0xd5>
   1e2c0:	8b 4d a8             	mov    -0x58(%ebp),%ecx
   1e2c3:	8d 14 89             	lea    (%ecx,%ecx,4),%edx
   1e2c6:	0f be c0             	movsbl %al,%eax
   1e2c9:	8d 44 50 d0          	lea    -0x30(%eax,%edx,2),%eax
   1e2cd:	89 45 a8             	mov    %eax,-0x58(%ebp)
   1e2d0:	e9 5f 06 00 00       	jmp    1e934 <Format_Output+0x734>
   1e2d5:	3c 2a                	cmp    $0x2a,%al
   1e2d7:	75 1e                	jne    1e2f7 <Format_Output+0xf7>
   1e2d9:	8d 43 04             	lea    0x4(%ebx),%eax
   1e2dc:	8b 0b                	mov    (%ebx),%ecx
   1e2de:	89 4d a8             	mov    %ecx,-0x58(%ebp)
   1e2e1:	89 c3                	mov    %eax,%ebx
   1e2e3:	85 c9                	test   %ecx,%ecx
   1e2e5:	0f 89 49 06 00 00    	jns    1e934 <Format_Output+0x734>
   1e2eb:	f7 5d a8             	negl   -0x58(%ebp)
   1e2ee:	83 4d b4 02          	orl    $0x2,-0x4c(%ebp)
   1e2f2:	e9 3d 06 00 00       	jmp    1e934 <Format_Output+0x734>
   1e2f7:	3c 2e                	cmp    $0x2e,%al
   1e2f9:	0f 95 c1             	setne  %cl
   1e2fc:	0f b6 c9             	movzbl %cl,%ecx
   1e2ff:	89 cf                	mov    %ecx,%edi
   1e301:	83 c7 03             	add    $0x3,%edi
   1e304:	3c 2e                	cmp    $0x2e,%al
   1e306:	b9 00 00 00 00       	mov    $0x0,%ecx
   1e30b:	0f 45 4d a4          	cmovne -0x5c(%ebp),%ecx
   1e30f:	89 4d a4             	mov    %ecx,-0x5c(%ebp)
   1e312:	0f 44 55 b0          	cmove  -0x50(%ebp),%edx
   1e316:	89 55 b0             	mov    %edx,-0x50(%ebp)
   1e319:	e9 16 06 00 00       	jmp    1e934 <Format_Output+0x734>
   1e31e:	8d 48 d0             	lea    -0x30(%eax),%ecx
   1e321:	80 f9 09             	cmp    $0x9,%cl
   1e324:	77 15                	ja     1e33b <Format_Output+0x13b>
   1e326:	8b 4d a4             	mov    -0x5c(%ebp),%ecx
   1e329:	8d 14 89             	lea    (%ecx,%ecx,4),%edx
   1e32c:	0f be c0             	movsbl %al,%eax
   1e32f:	8d 44 50 d0          	lea    -0x30(%eax,%edx,2),%eax
   1e333:	89 45 a4             	mov    %eax,-0x5c(%ebp)
   1e336:	e9 f9 05 00 00       	jmp    1e934 <Format_Output+0x734>
   1e33b:	3c 2a                	cmp    $0x2a,%al
   1e33d:	0f 85 ce 05 00 00    	jne    1e911 <Format_Output+0x711>
   1e343:	8d 43 04             	lea    0x4(%ebx),%eax
   1e346:	8b 0b                	mov    (%ebx),%ecx
   1e348:	89 4d a4             	mov    %ecx,-0x5c(%ebp)
   1e34b:	89 c3                	mov    %eax,%ebx
   1e34d:	85 c9                	test   %ecx,%ecx
   1e34f:	0f 89 df 05 00 00    	jns    1e934 <Format_Output+0x734>
   1e355:	e9 c1 05 00 00       	jmp    1e91b <Format_Output+0x71b>
   1e35a:	8d 50 b4             	lea    -0x4c(%eax),%edx
   1e35d:	80 fa 2e             	cmp    $0x2e,%dl
   1e360:	77 25                	ja     1e387 <Format_Output+0x187>
   1e362:	0f b6 d2             	movzbl %dl,%edx
   1e365:	ff 24 95 dc 17 02 00 	jmp    *0x217dc(,%edx,4)
   1e36c:	83 6d ac 01          	subl   $0x1,-0x54(%ebp)
   1e370:	e9 bf 05 00 00       	jmp    1e934 <Format_Output+0x734>
   1e375:	83 45 ac 01          	addl   $0x1,-0x54(%ebp)
   1e379:	e9 b6 05 00 00       	jmp    1e934 <Format_Output+0x734>
   1e37e:	83 45 ac 02          	addl   $0x2,-0x54(%ebp)
   1e382:	e9 ad 05 00 00       	jmp    1e934 <Format_Output+0x734>
   1e387:	8b 4d ac             	mov    -0x54(%ebp),%ecx
   1e38a:	85 c9                	test   %ecx,%ecx
   1e38c:	ba 01 00 00 00       	mov    $0x1,%edx
   1e391:	0f 4e d1             	cmovle %ecx,%edx
   1e394:	83 fa fe             	cmp    $0xfffffffe,%edx
   1e397:	b9 fe ff ff ff       	mov    $0xfffffffe,%ecx
   1e39c:	0f 4d ca             	cmovge %edx,%ecx
   1e39f:	89 4d ac             	mov    %ecx,-0x54(%ebp)
   1e3a2:	8d 50 b0             	lea    -0x50(%eax),%edx
   1e3a5:	80 fa 28             	cmp    $0x28,%dl
   1e3a8:	0f 87 23 05 00 00    	ja     1e8d1 <Format_Output+0x6d1>
   1e3ae:	0f b6 d2             	movzbl %dl,%edx
   1e3b1:	ff 24 95 98 18 02 00 	jmp    *0x21898(,%edx,4)
   1e3b8:	bf 08 00 00 00       	mov    $0x8,%edi
   1e3bd:	e9 b3 00 00 00       	jmp    1e475 <Format_Output+0x275>
   1e3c2:	81 4d b4 80 00 00 00 	orl    $0x80,-0x4c(%ebp)
   1e3c9:	83 4d b4 20          	orl    $0x20,-0x4c(%ebp)
   1e3cd:	8b 03                	mov    (%ebx),%eax
   1e3cf:	89 45 a0             	mov    %eax,-0x60(%ebp)
   1e3d2:	8d 5b 04             	lea    0x4(%ebx),%ebx
   1e3d5:	bf 10 00 00 00       	mov    $0x10,%edi
   1e3da:	c7 45 a4 08 00 00 00 	movl   $0x8,-0x5c(%ebp)
   1e3e1:	e9 e2 00 00 00       	jmp    1e4c8 <Format_Output+0x2c8>
   1e3e6:	83 4d b4 40          	orl    $0x40,-0x4c(%ebp)
   1e3ea:	8b 45 ac             	mov    -0x54(%ebp),%eax
   1e3ed:	83 f8 ff             	cmp    $0xffffffff,%eax
   1e3f0:	74 38                	je     1e42a <Format_Output+0x22a>
   1e3f2:	83 f8 ff             	cmp    $0xffffffff,%eax
   1e3f5:	7f 0e                	jg     1e405 <Format_Output+0x205>
   1e3f7:	83 f8 fe             	cmp    $0xfffffffe,%eax
   1e3fa:	74 1b                	je     1e417 <Format_Output+0x217>
   1e3fc:	8d 74 26 00          	lea    0x0(%esi,%eiz,1),%esi
   1e400:	e9 be 00 00 00       	jmp    1e4c3 <Format_Output+0x2c3>
   1e405:	8b 45 ac             	mov    -0x54(%ebp),%eax
   1e408:	85 c0                	test   %eax,%eax
   1e40a:	74 31                	je     1e43d <Format_Output+0x23d>
   1e40c:	83 f8 01             	cmp    $0x1,%eax
   1e40f:	90                   	nop
   1e410:	74 3a                	je     1e44c <Format_Output+0x24c>
   1e412:	e9 ac 00 00 00       	jmp    1e4c3 <Format_Output+0x2c3>
   1e417:	0f be 03             	movsbl (%ebx),%eax
   1e41a:	89 45 a0             	mov    %eax,-0x60(%ebp)
   1e41d:	8d 5b 04             	lea    0x4(%ebx),%ebx
   1e420:	bf 0a 00 00 00       	mov    $0xa,%edi
   1e425:	e9 9e 00 00 00       	jmp    1e4c8 <Format_Output+0x2c8>
   1e42a:	0f bf 03             	movswl (%ebx),%eax
   1e42d:	89 45 a0             	mov    %eax,-0x60(%ebp)
   1e430:	8d 5b 04             	lea    0x4(%ebx),%ebx
   1e433:	bf 0a 00 00 00       	mov    $0xa,%edi
   1e438:	e9 8b 00 00 00       	jmp    1e4c8 <Format_Output+0x2c8>
   1e43d:	8b 03                	mov    (%ebx),%eax
   1e43f:	89 45 a0             	mov    %eax,-0x60(%ebp)
   1e442:	8d 5b 04             	lea    0x4(%ebx),%ebx
   1e445:	bf 0a 00 00 00       	mov    $0xa,%edi
   1e44a:	eb 7c                	jmp    1e4c8 <Format_Output+0x2c8>
   1e44c:	8b 03                	mov    (%ebx),%eax
   1e44e:	89 45 a0             	mov    %eax,-0x60(%ebp)
   1e451:	8d 5b 04             	lea    0x4(%ebx),%ebx
   1e454:	bf 0a 00 00 00       	mov    $0xa,%edi
   1e459:	eb 6d                	jmp    1e4c8 <Format_Output+0x2c8>
   1e45b:	bf 0a 00 00 00       	mov    $0xa,%edi
   1e460:	eb 13                	jmp    1e475 <Format_Output+0x275>
   1e462:	81 4d b4 80 00 00 00 	orl    $0x80,-0x4c(%ebp)
   1e469:	bf 10 00 00 00       	mov    $0x10,%edi
   1e46e:	eb 05                	jmp    1e475 <Format_Output+0x275>
   1e470:	bf 10 00 00 00       	mov    $0x10,%edi
   1e475:	8b 45 ac             	mov    -0x54(%ebp),%eax
   1e478:	83 f8 ff             	cmp    $0xffffffff,%eax
   1e47b:	74 27                	je     1e4a4 <Format_Output+0x2a4>
   1e47d:	83 f8 ff             	cmp    $0xffffffff,%eax
   1e480:	7f 07                	jg     1e489 <Format_Output+0x289>
   1e482:	83 f8 fe             	cmp    $0xfffffffe,%eax
   1e485:	74 12                	je     1e499 <Format_Output+0x299>
   1e487:	eb 3f                	jmp    1e4c8 <Format_Output+0x2c8>
   1e489:	8b 45 ac             	mov    -0x54(%ebp),%eax
   1e48c:	85 c0                	test   %eax,%eax
   1e48e:	66 90                	xchg   %ax,%ax
   1e490:	74 1d                	je     1e4af <Format_Output+0x2af>
   1e492:	83 f8 01             	cmp    $0x1,%eax
   1e495:	74 22                	je     1e4b9 <Format_Output+0x2b9>
   1e497:	eb 2f                	jmp    1e4c8 <Format_Output+0x2c8>
   1e499:	0f b6 03             	movzbl (%ebx),%eax
   1e49c:	89 45 a0             	mov    %eax,-0x60(%ebp)
   1e49f:	8d 5b 04             	lea    0x4(%ebx),%ebx
   1e4a2:	eb 24                	jmp    1e4c8 <Format_Output+0x2c8>
   1e4a4:	0f b7 03             	movzwl (%ebx),%eax
   1e4a7:	89 45 a0             	mov    %eax,-0x60(%ebp)
   1e4aa:	8d 5b 04             	lea    0x4(%ebx),%ebx
   1e4ad:	eb 19                	jmp    1e4c8 <Format_Output+0x2c8>
   1e4af:	8b 03                	mov    (%ebx),%eax
   1e4b1:	89 45 a0             	mov    %eax,-0x60(%ebp)
   1e4b4:	8d 5b 04             	lea    0x4(%ebx),%ebx
   1e4b7:	eb 0f                	jmp    1e4c8 <Format_Output+0x2c8>
   1e4b9:	8b 03                	mov    (%ebx),%eax
   1e4bb:	89 45 a0             	mov    %eax,-0x60(%ebp)
   1e4be:	8d 5b 04             	lea    0x4(%ebx),%ebx
   1e4c1:	eb 05                	jmp    1e4c8 <Format_Output+0x2c8>
   1e4c3:	bf 0a 00 00 00       	mov    $0xa,%edi
   1e4c8:	8b 4d b4             	mov    -0x4c(%ebp),%ecx
   1e4cb:	89 c8                	mov    %ecx,%eax
   1e4cd:	25 80 00 00 00       	and    $0x80,%eax
   1e4d2:	89 45 80             	mov    %eax,-0x80(%ebp)
   1e4d5:	b8 4d 19 02 00       	mov    $0x2194d,%eax
   1e4da:	ba 3c 19 02 00       	mov    $0x2193c,%edx
   1e4df:	0f 44 c2             	cmove  %edx,%eax
   1e4e2:	89 85 78 ff ff ff    	mov    %eax,-0x88(%ebp)
   1e4e8:	f6 c1 40             	test   $0x40,%cl
   1e4eb:	74 1f                	je     1e50c <Format_Output+0x30c>
   1e4ed:	8b 45 a0             	mov    -0x60(%ebp),%eax
   1e4f0:	89 45 8c             	mov    %eax,-0x74(%ebp)
   1e4f3:	c7 45 88 00 00 00 00 	movl   $0x0,-0x78(%ebp)
   1e4fa:	85 c0                	test   %eax,%eax
   1e4fc:	79 1b                	jns    1e519 <Format_Output+0x319>
   1e4fe:	f7 d8                	neg    %eax
   1e500:	89 45 8c             	mov    %eax,-0x74(%ebp)
   1e503:	c7 45 88 01 00 00 00 	movl   $0x1,-0x78(%ebp)
   1e50a:	eb 0d                	jmp    1e519 <Format_Output+0x319>
   1e50c:	8b 45 a0             	mov    -0x60(%ebp),%eax
   1e50f:	89 45 8c             	mov    %eax,-0x74(%ebp)
   1e512:	c7 45 88 00 00 00 00 	movl   $0x0,-0x78(%ebp)
   1e519:	8b 55 8c             	mov    -0x74(%ebp),%edx
   1e51c:	85 d2                	test   %edx,%edx
   1e51e:	74 19                	je     1e539 <Format_Output+0x339>
   1e520:	b9 00 00 00 00       	mov    $0x0,%ecx
   1e525:	89 d0                	mov    %edx,%eax
   1e527:	ba 00 00 00 00       	mov    $0x0,%edx
   1e52c:	f7 f7                	div    %edi
   1e52e:	89 c2                	mov    %eax,%edx
   1e530:	83 c1 01             	add    $0x1,%ecx
   1e533:	85 c0                	test   %eax,%eax
   1e535:	75 ee                	jne    1e525 <Format_Output+0x325>
   1e537:	eb 05                	jmp    1e53e <Format_Output+0x33e>
   1e539:	b9 00 00 00 00       	mov    $0x0,%ecx
   1e53e:	8b 45 a4             	mov    -0x5c(%ebp),%eax
   1e541:	89 c2                	mov    %eax,%edx
   1e543:	8b 45 b4             	mov    -0x4c(%ebp),%eax
   1e546:	83 e0 20             	and    $0x20,%eax
   1e549:	89 45 84             	mov    %eax,-0x7c(%ebp)
   1e54c:	74 0f                	je     1e55d <Format_Output+0x35d>
   1e54e:	83 ff 08             	cmp    $0x8,%edi
   1e551:	75 0a                	jne    1e55d <Format_Output+0x35d>
   1e553:	8d 41 01             	lea    0x1(%ecx),%eax
   1e556:	39 d0                	cmp    %edx,%eax
   1e558:	0f 4c c2             	cmovl  %edx,%eax
   1e55b:	89 c2                	mov    %eax,%edx
   1e55d:	39 ca                	cmp    %ecx,%edx
   1e55f:	7f 0e                	jg     1e56f <Format_Output+0x36f>
   1e561:	83 7d 8c 00          	cmpl   $0x0,-0x74(%ebp)
   1e565:	b8 01 00 00 00       	mov    $0x1,%eax
   1e56a:	0f 44 c8             	cmove  %eax,%ecx
   1e56d:	89 ca                	mov    %ecx,%edx
   1e56f:	89 55 90             	mov    %edx,-0x70(%ebp)
   1e572:	f6 45 b4 08          	testb  $0x8,-0x4c(%ebp)
   1e576:	74 10                	je     1e588 <Format_Output+0x388>
   1e578:	83 ff 10             	cmp    $0x10,%edi
   1e57b:	0f 94 c0             	sete   %al
   1e57e:	0f b6 c0             	movzbl %al,%eax
   1e581:	89 45 90             	mov    %eax,-0x70(%ebp)
   1e584:	83 45 90 03          	addl   $0x3,-0x70(%ebp)
   1e588:	89 d1                	mov    %edx,%ecx
   1e58a:	89 d0                	mov    %edx,%eax
   1e58c:	83 e8 01             	sub    $0x1,%eax
   1e58f:	99                   	cltd   
   1e590:	f7 7d 90             	idivl  -0x70(%ebp)
   1e593:	01 c8                	add    %ecx,%eax
   1e595:	89 45 98             	mov    %eax,-0x68(%ebp)
   1e598:	83 7d 88 00          	cmpl   $0x0,-0x78(%ebp)
   1e59c:	75 09                	jne    1e5a7 <Format_Output+0x3a7>
   1e59e:	89 45 9c             	mov    %eax,-0x64(%ebp)
   1e5a1:	f6 45 b4 14          	testb  $0x14,-0x4c(%ebp)
   1e5a5:	74 09                	je     1e5b0 <Format_Output+0x3b0>
   1e5a7:	8b 45 98             	mov    -0x68(%ebp),%eax
   1e5aa:	83 c0 01             	add    $0x1,%eax
   1e5ad:	89 45 9c             	mov    %eax,-0x64(%ebp)
   1e5b0:	83 7d 84 00          	cmpl   $0x0,-0x7c(%ebp)
   1e5b4:	74 11                	je     1e5c7 <Format_Output+0x3c7>
   1e5b6:	8b 4d 9c             	mov    -0x64(%ebp),%ecx
   1e5b9:	89 c8                	mov    %ecx,%eax
   1e5bb:	83 c0 02             	add    $0x2,%eax
   1e5be:	83 ff 10             	cmp    $0x10,%edi
   1e5c1:	0f 45 c1             	cmovne %ecx,%eax
   1e5c4:	89 45 9c             	mov    %eax,-0x64(%ebp)
   1e5c7:	8b 45 a8             	mov    -0x58(%ebp),%eax
   1e5ca:	89 45 94             	mov    %eax,-0x6c(%ebp)
   1e5cd:	8b 45 b4             	mov    -0x4c(%ebp),%eax
   1e5d0:	83 e0 03             	and    $0x3,%eax
   1e5d3:	89 85 7c ff ff ff    	mov    %eax,-0x84(%ebp)
   1e5d9:	75 27                	jne    1e602 <Format_Output+0x402>
   1e5db:	8b 45 a8             	mov    -0x58(%ebp),%eax
   1e5de:	3b 45 9c             	cmp    -0x64(%ebp),%eax
   1e5e1:	7e 1f                	jle    1e602 <Format_Output+0x402>
   1e5e3:	c7 44 24 04 20 00 00 	movl   $0x20,0x4(%esp)
   1e5ea:	00 
   1e5eb:	89 34 24             	mov    %esi,(%esp)
   1e5ee:	ff 16                	call   *(%esi)
   1e5f0:	83 6d 94 01          	subl   $0x1,-0x6c(%ebp)
   1e5f4:	8b 45 94             	mov    -0x6c(%ebp),%eax
   1e5f7:	39 45 9c             	cmp    %eax,-0x64(%ebp)
   1e5fa:	7c e7                	jl     1e5e3 <Format_Output+0x3e3>
   1e5fc:	8b 45 9c             	mov    -0x64(%ebp),%eax
   1e5ff:	89 45 94             	mov    %eax,-0x6c(%ebp)
   1e602:	83 7d 88 00          	cmpl   $0x0,-0x78(%ebp)
   1e606:	74 0f                	je     1e617 <Format_Output+0x417>
   1e608:	c7 44 24 04 2d 00 00 	movl   $0x2d,0x4(%esp)
   1e60f:	00 
   1e610:	89 34 24             	mov    %esi,(%esp)
   1e613:	ff 16                	call   *(%esi)
   1e615:	eb 28                	jmp    1e63f <Format_Output+0x43f>
   1e617:	f6 45 b4 04          	testb  $0x4,-0x4c(%ebp)
   1e61b:	74 0f                	je     1e62c <Format_Output+0x42c>
   1e61d:	c7 44 24 04 2b 00 00 	movl   $0x2b,0x4(%esp)
   1e624:	00 
   1e625:	89 34 24             	mov    %esi,(%esp)
   1e628:	ff 16                	call   *(%esi)
   1e62a:	eb 13                	jmp    1e63f <Format_Output+0x43f>
   1e62c:	f6 45 b4 10          	testb  $0x10,-0x4c(%ebp)
   1e630:	74 0d                	je     1e63f <Format_Output+0x43f>
   1e632:	c7 44 24 04 20 00 00 	movl   $0x20,0x4(%esp)
   1e639:	00 
   1e63a:	89 34 24             	mov    %esi,(%esp)
   1e63d:	ff 16                	call   *(%esi)
   1e63f:	83 7d 84 00          	cmpl   $0x0,-0x7c(%ebp)
   1e643:	74 29                	je     1e66e <Format_Output+0x46e>
   1e645:	83 ff 10             	cmp    $0x10,%edi
   1e648:	75 24                	jne    1e66e <Format_Output+0x46e>
   1e64a:	c7 44 24 04 30 00 00 	movl   $0x30,0x4(%esp)
   1e651:	00 
   1e652:	89 34 24             	mov    %esi,(%esp)
   1e655:	ff 16                	call   *(%esi)
   1e657:	8b 16                	mov    (%esi),%edx
   1e659:	83 7d 80 01          	cmpl   $0x1,-0x80(%ebp)
   1e65d:	19 c0                	sbb    %eax,%eax
   1e65f:	83 e0 20             	and    $0x20,%eax
   1e662:	83 c0 58             	add    $0x58,%eax
   1e665:	89 44 24 04          	mov    %eax,0x4(%esp)
   1e669:	89 34 24             	mov    %esi,(%esp)
   1e66c:	ff d2                	call   *%edx
   1e66e:	83 bd 7c ff ff ff 01 	cmpl   $0x1,-0x84(%ebp)
   1e675:	75 2c                	jne    1e6a3 <Format_Output+0x4a3>
   1e677:	8b 45 94             	mov    -0x6c(%ebp),%eax
   1e67a:	39 45 98             	cmp    %eax,-0x68(%ebp)
   1e67d:	7d 24                	jge    1e6a3 <Format_Output+0x4a3>
   1e67f:	39 45 9c             	cmp    %eax,-0x64(%ebp)
   1e682:	7d 1f                	jge    1e6a3 <Format_Output+0x4a3>
   1e684:	c7 44 24 04 30 00 00 	movl   $0x30,0x4(%esp)
   1e68b:	00 
   1e68c:	89 34 24             	mov    %esi,(%esp)
   1e68f:	ff 16                	call   *(%esi)
   1e691:	83 6d 94 01          	subl   $0x1,-0x6c(%ebp)
   1e695:	8b 45 94             	mov    -0x6c(%ebp),%eax
   1e698:	39 45 9c             	cmp    %eax,-0x64(%ebp)
   1e69b:	7c e7                	jl     1e684 <Format_Output+0x484>
   1e69d:	8b 45 9c             	mov    -0x64(%ebp),%eax
   1e6a0:	89 45 94             	mov    %eax,-0x6c(%ebp)
   1e6a3:	83 7d 98 2b          	cmpl   $0x2b,-0x68(%ebp)
   1e6a7:	7e 02                	jle    1e6ab <Format_Output+0x4ab>
   1e6a9:	eb fe                	jmp    1e6a9 <Format_Output+0x4a9>
   1e6ab:	8b 45 98             	mov    -0x68(%ebp),%eax
   1e6ae:	89 45 84             	mov    %eax,-0x7c(%ebp)
   1e6b1:	8d 4d bc             	lea    -0x44(%ebp),%ecx
   1e6b4:	01 c1                	add    %eax,%ecx
   1e6b6:	85 c0                	test   %eax,%eax
   1e6b8:	7e 58                	jle    1e712 <Format_Output+0x512>
   1e6ba:	8b 45 90             	mov    -0x70(%ebp),%eax
   1e6bd:	89 45 88             	mov    %eax,-0x78(%ebp)
   1e6c0:	8b 45 8c             	mov    -0x74(%ebp),%eax
   1e6c3:	89 75 08             	mov    %esi,0x8(%ebp)
   1e6c6:	83 7d 88 00          	cmpl   $0x0,-0x78(%ebp)
   1e6ca:	74 08                	je     1e6d4 <Format_Output+0x4d4>
   1e6cc:	83 6d 88 01          	subl   $0x1,-0x78(%ebp)
   1e6d0:	89 ce                	mov    %ecx,%esi
   1e6d2:	eb 14                	jmp    1e6e8 <Format_Output+0x4e8>
   1e6d4:	8d 71 ff             	lea    -0x1(%ecx),%esi
   1e6d7:	83 6d 98 01          	subl   $0x1,-0x68(%ebp)
   1e6db:	c6 41 ff 5f          	movb   $0x5f,-0x1(%ecx)
   1e6df:	8b 55 90             	mov    -0x70(%ebp),%edx
   1e6e2:	8d 4a ff             	lea    -0x1(%edx),%ecx
   1e6e5:	89 4d 88             	mov    %ecx,-0x78(%ebp)
   1e6e8:	8d 4e ff             	lea    -0x1(%esi),%ecx
   1e6eb:	83 6d 98 01          	subl   $0x1,-0x68(%ebp)
   1e6ef:	ba 00 00 00 00       	mov    $0x0,%edx
   1e6f4:	f7 f7                	div    %edi
   1e6f6:	89 45 8c             	mov    %eax,-0x74(%ebp)
   1e6f9:	8b 85 78 ff ff ff    	mov    -0x88(%ebp),%eax
   1e6ff:	0f b6 14 10          	movzbl (%eax,%edx,1),%edx
   1e703:	88 56 ff             	mov    %dl,-0x1(%esi)
   1e706:	8b 45 8c             	mov    -0x74(%ebp),%eax
   1e709:	83 7d 98 00          	cmpl   $0x0,-0x68(%ebp)
   1e70d:	7f b7                	jg     1e6c6 <Format_Output+0x4c6>
   1e70f:	8b 75 08             	mov    0x8(%ebp),%esi
   1e712:	8b 4d 84             	mov    -0x7c(%ebp),%ecx
   1e715:	85 c9                	test   %ecx,%ecx
   1e717:	74 1e                	je     1e737 <Format_Output+0x537>
   1e719:	8d 7d bc             	lea    -0x44(%ebp),%edi
   1e71c:	89 f8                	mov    %edi,%eax
   1e71e:	01 c8                	add    %ecx,%eax
   1e720:	89 45 98             	mov    %eax,-0x68(%ebp)
   1e723:	0f be 07             	movsbl (%edi),%eax
   1e726:	89 44 24 04          	mov    %eax,0x4(%esp)
   1e72a:	89 34 24             	mov    %esi,(%esp)
   1e72d:	ff 16                	call   *(%esi)
   1e72f:	83 c7 01             	add    $0x1,%edi
   1e732:	3b 7d 98             	cmp    -0x68(%ebp),%edi
   1e735:	75 ec                	jne    1e723 <Format_Output+0x523>
   1e737:	f6 45 b4 02          	testb  $0x2,-0x4c(%ebp)
   1e73b:	74 19                	je     1e756 <Format_Output+0x556>
   1e73d:	8b 45 94             	mov    -0x6c(%ebp),%eax
   1e740:	39 45 9c             	cmp    %eax,-0x64(%ebp)
   1e743:	0f 8c 16 02 00 00    	jl     1e95f <Format_Output+0x75f>
   1e749:	eb 0b                	jmp    1e756 <Format_Output+0x556>
   1e74b:	3b 7d 9c             	cmp    -0x64(%ebp),%edi
   1e74e:	66 90                	xchg   %ax,%ax
   1e750:	0f 85 f4 01 00 00    	jne    1e94a <Format_Output+0x74a>
   1e756:	bf 00 00 00 00       	mov    $0x0,%edi
   1e75b:	e9 d4 01 00 00       	jmp    1e934 <Format_Output+0x734>
   1e760:	8b 03                	mov    (%ebx),%eax
   1e762:	88 45 e7             	mov    %al,-0x19(%ebp)
   1e765:	8d 5b 04             	lea    0x4(%ebx),%ebx
   1e768:	c7 45 9c 01 00 00 00 	movl   $0x1,-0x64(%ebp)
   1e76f:	8d 45 e7             	lea    -0x19(%ebp),%eax
   1e772:	89 45 98             	mov    %eax,-0x68(%ebp)
   1e775:	eb 2a                	jmp    1e7a1 <Format_Output+0x5a1>
   1e777:	8b 03                	mov    (%ebx),%eax
   1e779:	89 c1                	mov    %eax,%ecx
   1e77b:	85 c0                	test   %eax,%eax
   1e77d:	b8 7c 17 02 00       	mov    $0x2177c,%eax
   1e782:	0f 45 c1             	cmovne %ecx,%eax
   1e785:	89 45 98             	mov    %eax,-0x68(%ebp)
   1e788:	89 c7                	mov    %eax,%edi
   1e78a:	b8 00 00 00 00       	mov    $0x0,%eax
   1e78f:	b9 ff ff ff ff       	mov    $0xffffffff,%ecx
   1e794:	f2 ae                	repnz scas %es:(%edi),%al
   1e796:	f7 d1                	not    %ecx
   1e798:	8d 41 ff             	lea    -0x1(%ecx),%eax
   1e79b:	89 45 9c             	mov    %eax,-0x64(%ebp)
   1e79e:	8d 5b 04             	lea    0x4(%ebx),%ebx
   1e7a1:	8b 45 a4             	mov    -0x5c(%ebp),%eax
   1e7a4:	39 45 9c             	cmp    %eax,-0x64(%ebp)
   1e7a7:	7e 13                	jle    1e7bc <Format_Output+0x5bc>
   1e7a9:	89 c1                	mov    %eax,%ecx
   1e7ab:	83 f8 ff             	cmp    $0xffffffff,%eax
   1e7ae:	0f 95 c0             	setne  %al
   1e7b1:	84 c0                	test   %al,%al
   1e7b3:	8b 45 9c             	mov    -0x64(%ebp),%eax
   1e7b6:	0f 45 c1             	cmovne %ecx,%eax
   1e7b9:	89 45 9c             	mov    %eax,-0x64(%ebp)
   1e7bc:	8b 45 9c             	mov    -0x64(%ebp),%eax
   1e7bf:	39 45 a8             	cmp    %eax,-0x58(%ebp)
   1e7c2:	7e 35                	jle    1e7f9 <Format_Output+0x5f9>
   1e7c4:	f6 45 b4 02          	testb  $0x2,-0x4c(%ebp)
   1e7c8:	75 2f                	jne    1e7f9 <Format_Output+0x5f9>
   1e7ca:	8b 45 b4             	mov    -0x4c(%ebp),%eax
   1e7cd:	83 e0 01             	and    $0x1,%eax
   1e7d0:	83 f8 01             	cmp    $0x1,%eax
   1e7d3:	19 c0                	sbb    %eax,%eax
   1e7d5:	83 e0 f0             	and    $0xfffffff0,%eax
   1e7d8:	83 c0 30             	add    $0x30,%eax
   1e7db:	0f be f8             	movsbl %al,%edi
   1e7de:	89 7c 24 04          	mov    %edi,0x4(%esp)
   1e7e2:	89 34 24             	mov    %esi,(%esp)
   1e7e5:	ff 16                	call   *(%esi)
   1e7e7:	83 6d a8 01          	subl   $0x1,-0x58(%ebp)
   1e7eb:	8b 45 a8             	mov    -0x58(%ebp),%eax
   1e7ee:	39 45 9c             	cmp    %eax,-0x64(%ebp)
   1e7f1:	7c eb                	jl     1e7de <Format_Output+0x5de>
   1e7f3:	8b 45 9c             	mov    -0x64(%ebp),%eax
   1e7f6:	89 45 a8             	mov    %eax,-0x58(%ebp)
   1e7f9:	8b 7d 9c             	mov    -0x64(%ebp),%edi
   1e7fc:	85 ff                	test   %edi,%edi
   1e7fe:	74 19                	je     1e819 <Format_Output+0x619>
   1e800:	83 45 98 01          	addl   $0x1,-0x68(%ebp)
   1e804:	8b 45 98             	mov    -0x68(%ebp),%eax
   1e807:	0f be 40 ff          	movsbl -0x1(%eax),%eax
   1e80b:	89 44 24 04          	mov    %eax,0x4(%esp)
   1e80f:	89 34 24             	mov    %esi,(%esp)
   1e812:	ff 16                	call   *(%esi)
   1e814:	83 ef 01             	sub    $0x1,%edi
   1e817:	75 e7                	jne    1e800 <Format_Output+0x600>
   1e819:	bf 00 00 00 00       	mov    $0x0,%edi
   1e81e:	8b 45 9c             	mov    -0x64(%ebp),%eax
   1e821:	39 45 a8             	cmp    %eax,-0x58(%ebp)
   1e824:	0f 8e 0a 01 00 00    	jle    1e934 <Format_Output+0x734>
   1e82a:	f6 45 b4 02          	testb  $0x2,-0x4c(%ebp)
   1e82e:	0f 84 00 01 00 00    	je     1e934 <Format_Output+0x734>
   1e834:	8b 7d a8             	mov    -0x58(%ebp),%edi
   1e837:	c7 44 24 04 20 00 00 	movl   $0x20,0x4(%esp)
   1e83e:	00 
   1e83f:	89 34 24             	mov    %esi,(%esp)
   1e842:	ff 16                	call   *(%esi)
   1e844:	83 ef 01             	sub    $0x1,%edi
   1e847:	39 7d 9c             	cmp    %edi,-0x64(%ebp)
   1e84a:	7c eb                	jl     1e837 <Format_Output+0x637>
   1e84c:	8b 45 9c             	mov    -0x64(%ebp),%eax
   1e84f:	89 45 a8             	mov    %eax,-0x58(%ebp)
   1e852:	bf 00 00 00 00       	mov    $0x0,%edi
   1e857:	e9 d8 00 00 00       	jmp    1e934 <Format_Output+0x734>
   1e85c:	8b 45 ac             	mov    -0x54(%ebp),%eax
   1e85f:	83 f8 ff             	cmp    $0xffffffff,%eax
   1e862:	74 35                	je     1e899 <Format_Output+0x699>
   1e864:	83 f8 ff             	cmp    $0xffffffff,%eax
   1e867:	7f 0c                	jg     1e875 <Format_Output+0x675>
   1e869:	83 f8 fe             	cmp    $0xfffffffe,%eax
   1e86c:	74 19                	je     1e887 <Format_Output+0x687>
   1e86e:	66 90                	xchg   %ax,%ax
   1e870:	e9 ba 00 00 00       	jmp    1e92f <Format_Output+0x72f>
   1e875:	8b 45 ac             	mov    -0x54(%ebp),%eax
   1e878:	85 c0                	test   %eax,%eax
   1e87a:	74 31                	je     1e8ad <Format_Output+0x6ad>
   1e87c:	83 f8 01             	cmp    $0x1,%eax
   1e87f:	90                   	nop
   1e880:	74 3d                	je     1e8bf <Format_Output+0x6bf>
   1e882:	e9 a8 00 00 00       	jmp    1e92f <Format_Output+0x72f>
   1e887:	8b 03                	mov    (%ebx),%eax
   1e889:	c6 00 00             	movb   $0x0,(%eax)
   1e88c:	8d 5b 04             	lea    0x4(%ebx),%ebx
   1e88f:	bf 00 00 00 00       	mov    $0x0,%edi
   1e894:	e9 9b 00 00 00       	jmp    1e934 <Format_Output+0x734>
   1e899:	8b 03                	mov    (%ebx),%eax
   1e89b:	66 c7 00 00 00       	movw   $0x0,(%eax)
   1e8a0:	8d 5b 04             	lea    0x4(%ebx),%ebx
   1e8a3:	bf 00 00 00 00       	mov    $0x0,%edi
   1e8a8:	e9 87 00 00 00       	jmp    1e934 <Format_Output+0x734>
   1e8ad:	8b 03                	mov    (%ebx),%eax
   1e8af:	c7 00 00 00 00 00    	movl   $0x0,(%eax)
   1e8b5:	8d 5b 04             	lea    0x4(%ebx),%ebx
   1e8b8:	bf 00 00 00 00       	mov    $0x0,%edi
   1e8bd:	eb 75                	jmp    1e934 <Format_Output+0x734>
   1e8bf:	8b 03                	mov    (%ebx),%eax
   1e8c1:	c7 00 00 00 00 00    	movl   $0x0,(%eax)
   1e8c7:	8d 5b 04             	lea    0x4(%ebx),%ebx
   1e8ca:	bf 00 00 00 00       	mov    $0x0,%edi
   1e8cf:	eb 63                	jmp    1e934 <Format_Output+0x734>
   1e8d1:	0f be c0             	movsbl %al,%eax
   1e8d4:	89 44 24 04          	mov    %eax,0x4(%esp)
   1e8d8:	89 34 24             	mov    %esi,(%esp)
   1e8db:	ff 16                	call   *(%esi)
   1e8dd:	bf 00 00 00 00       	mov    $0x0,%edi
   1e8e2:	eb 50                	jmp    1e934 <Format_Output+0x734>
   1e8e4:	bf 01 00 00 00       	mov    $0x1,%edi
   1e8e9:	c7 45 b4 00 00 00 00 	movl   $0x0,-0x4c(%ebp)
   1e8f0:	c7 45 a4 ff ff ff ff 	movl   $0xffffffff,-0x5c(%ebp)
   1e8f7:	c7 45 a8 00 00 00 00 	movl   $0x0,-0x58(%ebp)
   1e8fe:	c7 45 ac 00 00 00 00 	movl   $0x0,-0x54(%ebp)
   1e905:	eb 2d                	jmp    1e934 <Format_Output+0x734>
   1e907:	89 55 b0             	mov    %edx,-0x50(%ebp)
   1e90a:	bf 02 00 00 00       	mov    $0x2,%edi
   1e90f:	eb 23                	jmp    1e934 <Format_Output+0x734>
   1e911:	89 55 b0             	mov    %edx,-0x50(%ebp)
   1e914:	bf 04 00 00 00       	mov    $0x4,%edi
   1e919:	eb 19                	jmp    1e934 <Format_Output+0x734>
   1e91b:	89 c3                	mov    %eax,%ebx
   1e91d:	c7 45 a4 ff ff ff ff 	movl   $0xffffffff,-0x5c(%ebp)
   1e924:	eb 0e                	jmp    1e934 <Format_Output+0x734>
   1e926:	c7 45 ac 01 00 00 00 	movl   $0x1,-0x54(%ebp)
   1e92d:	eb 05                	jmp    1e934 <Format_Output+0x734>
   1e92f:	bf 00 00 00 00       	mov    $0x0,%edi
   1e934:	8b 55 b0             	mov    -0x50(%ebp),%edx
   1e937:	8d 42 01             	lea    0x1(%edx),%eax
   1e93a:	89 45 b0             	mov    %eax,-0x50(%ebp)
   1e93d:	0f b6 02             	movzbl (%edx),%eax
   1e940:	84 c0                	test   %al,%al
   1e942:	0f 85 fc f8 ff ff    	jne    1e244 <Format_Output+0x44>
   1e948:	eb 2d                	jmp    1e977 <Format_Output+0x777>
   1e94a:	c7 44 24 04 20 00 00 	movl   $0x20,0x4(%esp)
   1e951:	00 
   1e952:	89 34 24             	mov    %esi,(%esp)
   1e955:	ff 16                	call   *(%esi)
   1e957:	83 ef 01             	sub    $0x1,%edi
   1e95a:	e9 ec fd ff ff       	jmp    1e74b <Format_Output+0x54b>
   1e95f:	c7 44 24 04 20 00 00 	movl   $0x20,0x4(%esp)
   1e966:	00 
   1e967:	89 34 24             	mov    %esi,(%esp)
   1e96a:	ff 16                	call   *(%esi)
   1e96c:	8b 7d 94             	mov    -0x6c(%ebp),%edi
   1e96f:	83 ef 01             	sub    $0x1,%edi
   1e972:	e9 d4 fd ff ff       	jmp    1e74b <Format_Output+0x54b>
   1e977:	8b 45 08             	mov    0x8(%ebp),%eax
   1e97a:	89 04 24             	mov    %eax,(%esp)
   1e97d:	ff 50 04             	call   *0x4(%eax)
   1e980:	b8 00 00 00 00       	mov    $0x0,%eax
   1e985:	81 c4 8c 00 00 00    	add    $0x8c,%esp
   1e98b:	5b                   	pop    %ebx
   1e98c:	5e                   	pop    %esi
   1e98d:	5f                   	pop    %edi
   1e98e:	5d                   	pop    %ebp
   1e98f:	c3                   	ret    

0001e990 <String_Emit>:
   1e990:	55                   	push   %ebp
   1e991:	89 e5                	mov    %esp,%ebp
   1e993:	8b 45 08             	mov    0x8(%ebp),%eax
   1e996:	8b 50 10             	mov    0x10(%eax),%edx
   1e999:	39 50 0c             	cmp    %edx,0xc(%eax)
   1e99c:	73 0e                	jae    1e9ac <String_Emit+0x1c>
   1e99e:	8b 50 08             	mov    0x8(%eax),%edx
   1e9a1:	8d 4a 01             	lea    0x1(%edx),%ecx
   1e9a4:	89 48 08             	mov    %ecx,0x8(%eax)
   1e9a7:	8b 4d 0c             	mov    0xc(%ebp),%ecx
   1e9aa:	88 0a                	mov    %cl,(%edx)
   1e9ac:	83 40 0c 01          	addl   $0x1,0xc(%eax)
   1e9b0:	5d                   	pop    %ebp
   1e9b1:	c3                   	ret    

0001e9b2 <String_Finish>:
   1e9b2:	55                   	push   %ebp
   1e9b3:	89 e5                	mov    %esp,%ebp
   1e9b5:	8b 45 08             	mov    0x8(%ebp),%eax
   1e9b8:	8b 50 10             	mov    0x10(%eax),%edx
   1e9bb:	39 50 0c             	cmp    %edx,0xc(%eax)
   1e9be:	73 08                	jae    1e9c8 <String_Finish+0x16>
   1e9c0:	8b 40 08             	mov    0x8(%eax),%eax
   1e9c3:	c6 00 00             	movb   $0x0,(%eax)
   1e9c6:	eb 07                	jmp    1e9cf <String_Finish+0x1d>
   1e9c8:	8b 40 08             	mov    0x8(%eax),%eax
   1e9cb:	c6 40 ff 00          	movb   $0x0,-0x1(%eax)
   1e9cf:	5d                   	pop    %ebp
   1e9d0:	c3                   	ret    

0001e9d1 <memset>:
   1e9d1:	55                   	push   %ebp
   1e9d2:	89 e5                	mov    %esp,%ebp
   1e9d4:	53                   	push   %ebx
   1e9d5:	8b 45 08             	mov    0x8(%ebp),%eax
   1e9d8:	8b 4d 0c             	mov    0xc(%ebp),%ecx
   1e9db:	8b 5d 10             	mov    0x10(%ebp),%ebx
   1e9de:	85 db                	test   %ebx,%ebx
   1e9e0:	74 0e                	je     1e9f0 <memset+0x1f>
   1e9e2:	01 c3                	add    %eax,%ebx
   1e9e4:	89 c2                	mov    %eax,%edx
   1e9e6:	83 c2 01             	add    $0x1,%edx
   1e9e9:	88 4a ff             	mov    %cl,-0x1(%edx)
   1e9ec:	39 da                	cmp    %ebx,%edx
   1e9ee:	75 f6                	jne    1e9e6 <memset+0x15>
   1e9f0:	5b                   	pop    %ebx
   1e9f1:	5d                   	pop    %ebp
   1e9f2:	c3                   	ret    

0001e9f3 <memcpy>:
   1e9f3:	55                   	push   %ebp
   1e9f4:	89 e5                	mov    %esp,%ebp
   1e9f6:	56                   	push   %esi
   1e9f7:	53                   	push   %ebx
   1e9f8:	8b 75 08             	mov    0x8(%ebp),%esi
   1e9fb:	8b 4d 0c             	mov    0xc(%ebp),%ecx
   1e9fe:	8b 5d 10             	mov    0x10(%ebp),%ebx
   1ea01:	85 db                	test   %ebx,%ebx
   1ea03:	74 15                	je     1ea1a <memcpy+0x27>
   1ea05:	01 f3                	add    %esi,%ebx
   1ea07:	89 f2                	mov    %esi,%edx
   1ea09:	83 c2 01             	add    $0x1,%edx
   1ea0c:	83 c1 01             	add    $0x1,%ecx
   1ea0f:	0f b6 41 ff          	movzbl -0x1(%ecx),%eax
   1ea13:	88 42 ff             	mov    %al,-0x1(%edx)
   1ea16:	39 da                	cmp    %ebx,%edx
   1ea18:	75 ef                	jne    1ea09 <memcpy+0x16>
   1ea1a:	89 f0                	mov    %esi,%eax
   1ea1c:	5b                   	pop    %ebx
   1ea1d:	5e                   	pop    %esi
   1ea1e:	5d                   	pop    %ebp
   1ea1f:	c3                   	ret    

0001ea20 <memcmp>:
   1ea20:	55                   	push   %ebp
   1ea21:	89 e5                	mov    %esp,%ebp
   1ea23:	56                   	push   %esi
   1ea24:	53                   	push   %ebx
   1ea25:	8b 5d 08             	mov    0x8(%ebp),%ebx
   1ea28:	8b 75 0c             	mov    0xc(%ebp),%esi
   1ea2b:	83 7d 10 00          	cmpl   $0x0,0x10(%ebp)
   1ea2f:	74 1f                	je     1ea50 <memcmp+0x30>
   1ea31:	0f be 03             	movsbl (%ebx),%eax
   1ea34:	0f be 16             	movsbl (%esi),%edx
   1ea37:	29 d0                	sub    %edx,%eax
   1ea39:	74 1c                	je     1ea57 <memcmp+0x37>
   1ea3b:	eb 21                	jmp    1ea5e <memcmp+0x3e>
   1ea3d:	0f be 44 13 01       	movsbl 0x1(%ebx,%edx,1),%eax
   1ea42:	0f be 4c 16 01       	movsbl 0x1(%esi,%edx,1),%ecx
   1ea47:	83 c2 01             	add    $0x1,%edx
   1ea4a:	29 c8                	sub    %ecx,%eax
   1ea4c:	74 ef                	je     1ea3d <memcmp+0x1d>
   1ea4e:	eb 0e                	jmp    1ea5e <memcmp+0x3e>
   1ea50:	b8 00 00 00 00       	mov    $0x0,%eax
   1ea55:	eb 07                	jmp    1ea5e <memcmp+0x3e>
   1ea57:	ba 00 00 00 00       	mov    $0x0,%edx
   1ea5c:	eb df                	jmp    1ea3d <memcmp+0x1d>
   1ea5e:	5b                   	pop    %ebx
   1ea5f:	5e                   	pop    %esi
   1ea60:	5d                   	pop    %ebp
   1ea61:	c3                   	ret    

0001ea62 <strlen>:
   1ea62:	55                   	push   %ebp
   1ea63:	89 e5                	mov    %esp,%ebp
   1ea65:	8b 55 08             	mov    0x8(%ebp),%edx
   1ea68:	80 3a 00             	cmpb   $0x0,(%edx)
   1ea6b:	74 10                	je     1ea7d <strlen+0x1b>
   1ea6d:	b8 00 00 00 00       	mov    $0x0,%eax
   1ea72:	83 c0 01             	add    $0x1,%eax
   1ea75:	80 3c 02 00          	cmpb   $0x0,(%edx,%eax,1)
   1ea79:	75 f7                	jne    1ea72 <strlen+0x10>
   1ea7b:	eb 05                	jmp    1ea82 <strlen+0x20>
   1ea7d:	b8 00 00 00 00       	mov    $0x0,%eax
   1ea82:	5d                   	pop    %ebp
   1ea83:	c3                   	ret    

0001ea84 <strnlen>:
   1ea84:	55                   	push   %ebp
   1ea85:	89 e5                	mov    %esp,%ebp
   1ea87:	8b 4d 08             	mov    0x8(%ebp),%ecx
   1ea8a:	8b 55 0c             	mov    0xc(%ebp),%edx
   1ea8d:	85 d2                	test   %edx,%edx
   1ea8f:	74 19                	je     1eaaa <strnlen+0x26>
   1ea91:	80 39 00             	cmpb   $0x0,(%ecx)
   1ea94:	74 1c                	je     1eab2 <strnlen+0x2e>
   1ea96:	b8 00 00 00 00       	mov    $0x0,%eax
   1ea9b:	83 c0 01             	add    $0x1,%eax
   1ea9e:	39 d0                	cmp    %edx,%eax
   1eaa0:	74 15                	je     1eab7 <strnlen+0x33>
   1eaa2:	80 3c 01 00          	cmpb   $0x0,(%ecx,%eax,1)
   1eaa6:	75 f3                	jne    1ea9b <strnlen+0x17>
   1eaa8:	eb 0d                	jmp    1eab7 <strnlen+0x33>
   1eaaa:	b8 00 00 00 00       	mov    $0x0,%eax
   1eaaf:	90                   	nop
   1eab0:	eb 05                	jmp    1eab7 <strnlen+0x33>
   1eab2:	b8 00 00 00 00       	mov    $0x0,%eax
   1eab7:	5d                   	pop    %ebp
   1eab8:	c3                   	ret    

0001eab9 <strcmp>:
   1eab9:	55                   	push   %ebp
   1eaba:	89 e5                	mov    %esp,%ebp
   1eabc:	57                   	push   %edi
   1eabd:	56                   	push   %esi
   1eabe:	53                   	push   %ebx
   1eabf:	8b 55 08             	mov    0x8(%ebp),%edx
   1eac2:	8b 4d 0c             	mov    0xc(%ebp),%ecx
   1eac5:	0f b6 32             	movzbl (%edx),%esi
   1eac8:	0f b6 39             	movzbl (%ecx),%edi
   1eacb:	89 f0                	mov    %esi,%eax
   1eacd:	0f be c0             	movsbl %al,%eax
   1ead0:	89 fb                	mov    %edi,%ebx
   1ead2:	0f be db             	movsbl %bl,%ebx
   1ead5:	29 d8                	sub    %ebx,%eax
   1ead7:	75 34                	jne    1eb0d <strcmp+0x54>
   1ead9:	89 f3                	mov    %esi,%ebx
   1eadb:	84 db                	test   %bl,%bl
   1eadd:	74 2e                	je     1eb0d <strcmp+0x54>
   1eadf:	89 fb                	mov    %edi,%ebx
   1eae1:	84 db                	test   %bl,%bl
   1eae3:	75 0e                	jne    1eaf3 <strcmp+0x3a>
   1eae5:	eb 26                	jmp    1eb0d <strcmp+0x54>
   1eae7:	89 f3                	mov    %esi,%ebx
   1eae9:	84 db                	test   %bl,%bl
   1eaeb:	74 20                	je     1eb0d <strcmp+0x54>
   1eaed:	89 fb                	mov    %edi,%ebx
   1eaef:	84 db                	test   %bl,%bl
   1eaf1:	74 1a                	je     1eb0d <strcmp+0x54>
   1eaf3:	83 c2 01             	add    $0x1,%edx
   1eaf6:	83 c1 01             	add    $0x1,%ecx
   1eaf9:	0f b6 32             	movzbl (%edx),%esi
   1eafc:	0f b6 39             	movzbl (%ecx),%edi
   1eaff:	89 f0                	mov    %esi,%eax
   1eb01:	0f be c0             	movsbl %al,%eax
   1eb04:	89 fb                	mov    %edi,%ebx
   1eb06:	0f be db             	movsbl %bl,%ebx
   1eb09:	29 d8                	sub    %ebx,%eax
   1eb0b:	74 da                	je     1eae7 <strcmp+0x2e>
   1eb0d:	5b                   	pop    %ebx
   1eb0e:	5e                   	pop    %esi
   1eb0f:	5f                   	pop    %edi
   1eb10:	5d                   	pop    %ebp
   1eb11:	c3                   	ret    

0001eb12 <strncmp>:
   1eb12:	55                   	push   %ebp
   1eb13:	89 e5                	mov    %esp,%ebp
   1eb15:	57                   	push   %edi
   1eb16:	56                   	push   %esi
   1eb17:	53                   	push   %ebx
   1eb18:	8b 7d 0c             	mov    0xc(%ebp),%edi
   1eb1b:	83 7d 10 00          	cmpl   $0x0,0x10(%ebp)
   1eb1f:	74 52                	je     1eb73 <strncmp+0x61>
   1eb21:	8b 45 08             	mov    0x8(%ebp),%eax
   1eb24:	0f b6 08             	movzbl (%eax),%ecx
   1eb27:	0f b6 1f             	movzbl (%edi),%ebx
   1eb2a:	0f be d1             	movsbl %cl,%edx
   1eb2d:	0f be c3             	movsbl %bl,%eax
   1eb30:	29 c2                	sub    %eax,%edx
   1eb32:	75 46                	jne    1eb7a <strncmp+0x68>
   1eb34:	84 c9                	test   %cl,%cl
   1eb36:	74 46                	je     1eb7e <strncmp+0x6c>
   1eb38:	84 db                	test   %bl,%bl
   1eb3a:	74 49                	je     1eb85 <strncmp+0x73>
   1eb3c:	ba 00 00 00 00       	mov    $0x0,%edx
   1eb41:	eb 21                	jmp    1eb64 <strncmp+0x52>
   1eb43:	8b 45 08             	mov    0x8(%ebp),%eax
   1eb46:	0f b6 1c 10          	movzbl (%eax,%edx,1),%ebx
   1eb4a:	0f b6 34 17          	movzbl (%edi,%edx,1),%esi
   1eb4e:	0f be c3             	movsbl %bl,%eax
   1eb51:	89 f1                	mov    %esi,%ecx
   1eb53:	0f be c9             	movsbl %cl,%ecx
   1eb56:	29 c8                	sub    %ecx,%eax
   1eb58:	75 3e                	jne    1eb98 <strncmp+0x86>
   1eb5a:	84 db                	test   %bl,%bl
   1eb5c:	74 2e                	je     1eb8c <strncmp+0x7a>
   1eb5e:	89 f0                	mov    %esi,%eax
   1eb60:	84 c0                	test   %al,%al
   1eb62:	74 2f                	je     1eb93 <strncmp+0x81>
   1eb64:	83 c2 01             	add    $0x1,%edx
   1eb67:	3b 55 10             	cmp    0x10(%ebp),%edx
   1eb6a:	75 d7                	jne    1eb43 <strncmp+0x31>
   1eb6c:	b8 00 00 00 00       	mov    $0x0,%eax
   1eb71:	eb 25                	jmp    1eb98 <strncmp+0x86>
   1eb73:	b8 00 00 00 00       	mov    $0x0,%eax
   1eb78:	eb 1e                	jmp    1eb98 <strncmp+0x86>
   1eb7a:	89 d0                	mov    %edx,%eax
   1eb7c:	eb 1a                	jmp    1eb98 <strncmp+0x86>
   1eb7e:	b8 00 00 00 00       	mov    $0x0,%eax
   1eb83:	eb 13                	jmp    1eb98 <strncmp+0x86>
   1eb85:	b8 00 00 00 00       	mov    $0x0,%eax
   1eb8a:	eb 0c                	jmp    1eb98 <strncmp+0x86>
   1eb8c:	b8 00 00 00 00       	mov    $0x0,%eax
   1eb91:	eb 05                	jmp    1eb98 <strncmp+0x86>
   1eb93:	b8 00 00 00 00       	mov    $0x0,%eax
   1eb98:	5b                   	pop    %ebx
   1eb99:	5e                   	pop    %esi
   1eb9a:	5f                   	pop    %edi
   1eb9b:	5d                   	pop    %ebp
   1eb9c:	c3                   	ret    

0001eb9d <strcat>:
   1eb9d:	55                   	push   %ebp
   1eb9e:	89 e5                	mov    %esp,%ebp
   1eba0:	53                   	push   %ebx
   1eba1:	8b 45 08             	mov    0x8(%ebp),%eax
   1eba4:	8b 5d 0c             	mov    0xc(%ebp),%ebx
   1eba7:	80 38 00             	cmpb   $0x0,(%eax)
   1ebaa:	74 0c                	je     1ebb8 <strcat+0x1b>
   1ebac:	89 c2                	mov    %eax,%edx
   1ebae:	83 c2 01             	add    $0x1,%edx
   1ebb1:	80 3a 00             	cmpb   $0x0,(%edx)
   1ebb4:	75 f8                	jne    1ebae <strcat+0x11>
   1ebb6:	eb 02                	jmp    1ebba <strcat+0x1d>
   1ebb8:	89 c2                	mov    %eax,%edx
   1ebba:	0f b6 0b             	movzbl (%ebx),%ecx
   1ebbd:	84 c9                	test   %cl,%cl
   1ebbf:	74 10                	je     1ebd1 <strcat+0x34>
   1ebc1:	83 c2 01             	add    $0x1,%edx
   1ebc4:	83 c3 01             	add    $0x1,%ebx
   1ebc7:	88 4a ff             	mov    %cl,-0x1(%edx)
   1ebca:	0f b6 0b             	movzbl (%ebx),%ecx
   1ebcd:	84 c9                	test   %cl,%cl
   1ebcf:	75 f0                	jne    1ebc1 <strcat+0x24>
   1ebd1:	c6 02 00             	movb   $0x0,(%edx)
   1ebd4:	5b                   	pop    %ebx
   1ebd5:	5d                   	pop    %ebp
   1ebd6:	c3                   	ret    

0001ebd7 <strcpy>:
   1ebd7:	55                   	push   %ebp
   1ebd8:	89 e5                	mov    %esp,%ebp
   1ebda:	53                   	push   %ebx
   1ebdb:	8b 45 08             	mov    0x8(%ebp),%eax
   1ebde:	8b 4d 0c             	mov    0xc(%ebp),%ecx
   1ebe1:	0f b6 11             	movzbl (%ecx),%edx
   1ebe4:	84 d2                	test   %dl,%dl
   1ebe6:	74 14                	je     1ebfc <strcpy+0x25>
   1ebe8:	89 c3                	mov    %eax,%ebx
   1ebea:	83 c3 01             	add    $0x1,%ebx
   1ebed:	83 c1 01             	add    $0x1,%ecx
   1ebf0:	88 53 ff             	mov    %dl,-0x1(%ebx)
   1ebf3:	0f b6 11             	movzbl (%ecx),%edx
   1ebf6:	84 d2                	test   %dl,%dl
   1ebf8:	75 f0                	jne    1ebea <strcpy+0x13>
   1ebfa:	eb 02                	jmp    1ebfe <strcpy+0x27>
   1ebfc:	89 c3                	mov    %eax,%ebx
   1ebfe:	c6 03 00             	movb   $0x0,(%ebx)
   1ec01:	5b                   	pop    %ebx
   1ec02:	5d                   	pop    %ebp
   1ec03:	c3                   	ret    

0001ec04 <strncpy>:
   1ec04:	55                   	push   %ebp
   1ec05:	89 e5                	mov    %esp,%ebp
   1ec07:	56                   	push   %esi
   1ec08:	53                   	push   %ebx
   1ec09:	8b 45 08             	mov    0x8(%ebp),%eax
   1ec0c:	8b 5d 0c             	mov    0xc(%ebp),%ebx
   1ec0f:	8b 55 10             	mov    0x10(%ebp),%edx
   1ec12:	0f b6 0b             	movzbl (%ebx),%ecx
   1ec15:	84 c9                	test   %cl,%cl
   1ec17:	74 1f                	je     1ec38 <strncpy+0x34>
   1ec19:	85 d2                	test   %edx,%edx
   1ec1b:	74 28                	je     1ec45 <strncpy+0x41>
   1ec1d:	89 c6                	mov    %eax,%esi
   1ec1f:	83 c6 01             	add    $0x1,%esi
   1ec22:	83 c3 01             	add    $0x1,%ebx
   1ec25:	88 4e ff             	mov    %cl,-0x1(%esi)
   1ec28:	83 ea 01             	sub    $0x1,%edx
   1ec2b:	0f b6 0b             	movzbl (%ebx),%ecx
   1ec2e:	84 c9                	test   %cl,%cl
   1ec30:	74 08                	je     1ec3a <strncpy+0x36>
   1ec32:	85 d2                	test   %edx,%edx
   1ec34:	75 e9                	jne    1ec1f <strncpy+0x1b>
   1ec36:	eb 0d                	jmp    1ec45 <strncpy+0x41>
   1ec38:	89 c6                	mov    %eax,%esi
   1ec3a:	85 d2                	test   %edx,%edx
   1ec3c:	8d 74 26 00          	lea    0x0(%esi,%eiz,1),%esi
   1ec40:	74 03                	je     1ec45 <strncpy+0x41>
   1ec42:	c6 06 00             	movb   $0x0,(%esi)
   1ec45:	5b                   	pop    %ebx
   1ec46:	5e                   	pop    %esi
   1ec47:	5d                   	pop    %ebp
   1ec48:	c3                   	ret    

0001ec49 <strdup>:
   1ec49:	55                   	push   %ebp
   1ec4a:	89 e5                	mov    %esp,%ebp
   1ec4c:	57                   	push   %edi
   1ec4d:	56                   	push   %esi
   1ec4e:	53                   	push   %ebx
   1ec4f:	83 ec 1c             	sub    $0x1c,%esp
   1ec52:	8b 5d 08             	mov    0x8(%ebp),%ebx
   1ec55:	89 df                	mov    %ebx,%edi
   1ec57:	b8 00 00 00 00       	mov    $0x0,%eax
   1ec5c:	b9 ff ff ff ff       	mov    $0xffffffff,%ecx
   1ec61:	f2 ae                	repnz scas %es:(%edi),%al
   1ec63:	f7 d1                	not    %ecx
   1ec65:	89 0c 24             	mov    %ecx,(%esp)
   1ec68:	e8 cd 57 ff ff       	call   1443a <Malloc>
   1ec6d:	89 c6                	mov    %eax,%esi
   1ec6f:	89 5c 24 04          	mov    %ebx,0x4(%esp)
   1ec73:	89 04 24             	mov    %eax,(%esp)
   1ec76:	e8 5c ff ff ff       	call   1ebd7 <strcpy>
   1ec7b:	89 f0                	mov    %esi,%eax
   1ec7d:	83 c4 1c             	add    $0x1c,%esp
   1ec80:	5b                   	pop    %ebx
   1ec81:	5e                   	pop    %esi
   1ec82:	5f                   	pop    %edi
   1ec83:	5d                   	pop    %ebp
   1ec84:	c3                   	ret    

0001ec85 <atoi>:
   1ec85:	55                   	push   %ebp
   1ec86:	89 e5                	mov    %esp,%ebp
   1ec88:	53                   	push   %ebx
   1ec89:	8b 4d 08             	mov    0x8(%ebp),%ecx
   1ec8c:	0f b6 11             	movzbl (%ecx),%edx
   1ec8f:	8d 42 d0             	lea    -0x30(%edx),%eax
   1ec92:	3c 09                	cmp    $0x9,%al
   1ec94:	77 1f                	ja     1ecb5 <atoi+0x30>
   1ec96:	b8 00 00 00 00       	mov    $0x0,%eax
   1ec9b:	8d 04 80             	lea    (%eax,%eax,4),%eax
   1ec9e:	0f be d2             	movsbl %dl,%edx
   1eca1:	8d 44 42 d0          	lea    -0x30(%edx,%eax,2),%eax
   1eca5:	83 c1 01             	add    $0x1,%ecx
   1eca8:	0f b6 11             	movzbl (%ecx),%edx
   1ecab:	8d 5a d0             	lea    -0x30(%edx),%ebx
   1ecae:	80 fb 09             	cmp    $0x9,%bl
   1ecb1:	76 e8                	jbe    1ec9b <atoi+0x16>
   1ecb3:	eb 05                	jmp    1ecba <atoi+0x35>
   1ecb5:	b8 00 00 00 00       	mov    $0x0,%eax
   1ecba:	5b                   	pop    %ebx
   1ecbb:	5d                   	pop    %ebp
   1ecbc:	c3                   	ret    

0001ecbd <strchr>:
   1ecbd:	55                   	push   %ebp
   1ecbe:	89 e5                	mov    %esp,%ebp
   1ecc0:	8b 45 08             	mov    0x8(%ebp),%eax
   1ecc3:	8b 4d 0c             	mov    0xc(%ebp),%ecx
   1ecc6:	0f b6 10             	movzbl (%eax),%edx
   1ecc9:	84 d2                	test   %dl,%dl
   1eccb:	74 21                	je     1ecee <strchr+0x31>
   1eccd:	0f be d2             	movsbl %dl,%edx
   1ecd0:	39 ca                	cmp    %ecx,%edx
   1ecd2:	75 09                	jne    1ecdd <strchr+0x20>
   1ecd4:	eb 1d                	jmp    1ecf3 <strchr+0x36>
   1ecd6:	0f be d2             	movsbl %dl,%edx
   1ecd9:	39 ca                	cmp    %ecx,%edx
   1ecdb:	74 16                	je     1ecf3 <strchr+0x36>
   1ecdd:	83 c0 01             	add    $0x1,%eax
   1ece0:	0f b6 10             	movzbl (%eax),%edx
   1ece3:	84 d2                	test   %dl,%dl
   1ece5:	75 ef                	jne    1ecd6 <strchr+0x19>
   1ece7:	b8 00 00 00 00       	mov    $0x0,%eax
   1ecec:	eb 05                	jmp    1ecf3 <strchr+0x36>
   1ecee:	b8 00 00 00 00       	mov    $0x0,%eax
   1ecf3:	5d                   	pop    %ebp
   1ecf4:	c3                   	ret    

0001ecf5 <strrchr>:
   1ecf5:	55                   	push   %ebp
   1ecf6:	89 e5                	mov    %esp,%ebp
   1ecf8:	57                   	push   %edi
   1ecf9:	53                   	push   %ebx
   1ecfa:	8b 55 08             	mov    0x8(%ebp),%edx
   1ecfd:	8b 5d 0c             	mov    0xc(%ebp),%ebx
   1ed00:	89 d7                	mov    %edx,%edi
   1ed02:	b8 00 00 00 00       	mov    $0x0,%eax
   1ed07:	b9 ff ff ff ff       	mov    $0xffffffff,%ecx
   1ed0c:	f2 ae                	repnz scas %es:(%edi),%al
   1ed0e:	f7 d1                	not    %ecx
   1ed10:	8d 4c 0a ff          	lea    -0x1(%edx,%ecx,1),%ecx
   1ed14:	39 ca                	cmp    %ecx,%edx
   1ed16:	73 22                	jae    1ed3a <strrchr+0x45>
   1ed18:	8d 41 ff             	lea    -0x1(%ecx),%eax
   1ed1b:	0f be 49 ff          	movsbl -0x1(%ecx),%ecx
   1ed1f:	39 d9                	cmp    %ebx,%ecx
   1ed21:	75 0c                	jne    1ed2f <strrchr+0x3a>
   1ed23:	eb 1a                	jmp    1ed3f <strrchr+0x4a>
   1ed25:	83 e8 01             	sub    $0x1,%eax
   1ed28:	0f be 08             	movsbl (%eax),%ecx
   1ed2b:	39 d9                	cmp    %ebx,%ecx
   1ed2d:	74 10                	je     1ed3f <strrchr+0x4a>
   1ed2f:	39 d0                	cmp    %edx,%eax
   1ed31:	75 f2                	jne    1ed25 <strrchr+0x30>
   1ed33:	b8 00 00 00 00       	mov    $0x0,%eax
   1ed38:	eb 05                	jmp    1ed3f <strrchr+0x4a>
   1ed3a:	b8 00 00 00 00       	mov    $0x0,%eax
   1ed3f:	5b                   	pop    %ebx
   1ed40:	5f                   	pop    %edi
   1ed41:	5d                   	pop    %ebp
   1ed42:	c3                   	ret    

0001ed43 <strpbrk>:
   1ed43:	55                   	push   %ebp
   1ed44:	89 e5                	mov    %esp,%ebp
   1ed46:	57                   	push   %edi
   1ed47:	56                   	push   %esi
   1ed48:	53                   	push   %ebx
   1ed49:	8b 5d 08             	mov    0x8(%ebp),%ebx
   1ed4c:	8b 55 0c             	mov    0xc(%ebp),%edx
   1ed4f:	89 d7                	mov    %edx,%edi
   1ed51:	b8 00 00 00 00       	mov    $0x0,%eax
   1ed56:	b9 ff ff ff ff       	mov    $0xffffffff,%ecx
   1ed5b:	f2 ae                	repnz scas %es:(%edi),%al
   1ed5d:	f7 d1                	not    %ecx
   1ed5f:	8d 71 ff             	lea    -0x1(%ecx),%esi
   1ed62:	0f b6 0b             	movzbl (%ebx),%ecx
   1ed65:	84 c9                	test   %cl,%cl
   1ed67:	74 29                	je     1ed92 <strpbrk+0x4f>
   1ed69:	8d 3c 32             	lea    (%edx,%esi,1),%edi
   1ed6c:	eb 16                	jmp    1ed84 <strpbrk+0x41>
   1ed6e:	83 c0 01             	add    $0x1,%eax
   1ed71:	3a 48 ff             	cmp    -0x1(%eax),%cl
   1ed74:	74 23                	je     1ed99 <strpbrk+0x56>
   1ed76:	39 f8                	cmp    %edi,%eax
   1ed78:	75 f4                	jne    1ed6e <strpbrk+0x2b>
   1ed7a:	83 c3 01             	add    $0x1,%ebx
   1ed7d:	0f b6 0b             	movzbl (%ebx),%ecx
   1ed80:	84 c9                	test   %cl,%cl
   1ed82:	74 19                	je     1ed9d <strpbrk+0x5a>
   1ed84:	85 f6                	test   %esi,%esi
   1ed86:	74 f2                	je     1ed7a <strpbrk+0x37>
   1ed88:	3a 0a                	cmp    (%edx),%cl
   1ed8a:	74 18                	je     1eda4 <strpbrk+0x61>
   1ed8c:	8d 42 01             	lea    0x1(%edx),%eax
   1ed8f:	90                   	nop
   1ed90:	eb e4                	jmp    1ed76 <strpbrk+0x33>
   1ed92:	b8 00 00 00 00       	mov    $0x0,%eax
   1ed97:	eb 0d                	jmp    1eda6 <strpbrk+0x63>
   1ed99:	89 d8                	mov    %ebx,%eax
   1ed9b:	eb 09                	jmp    1eda6 <strpbrk+0x63>
   1ed9d:	b8 00 00 00 00       	mov    $0x0,%eax
   1eda2:	eb 02                	jmp    1eda6 <strpbrk+0x63>
   1eda4:	89 d8                	mov    %ebx,%eax
   1eda6:	5b                   	pop    %ebx
   1eda7:	5e                   	pop    %esi
   1eda8:	5f                   	pop    %edi
   1eda9:	5d                   	pop    %ebp
   1edaa:	c3                   	ret    

0001edab <snprintf>:
   1edab:	55                   	push   %ebp
   1edac:	89 e5                	mov    %esp,%ebp
   1edae:	83 ec 38             	sub    $0x38,%esp
   1edb1:	c7 45 e4 90 e9 01 00 	movl   $0x1e990,-0x1c(%ebp)
   1edb8:	c7 45 e8 b2 e9 01 00 	movl   $0x1e9b2,-0x18(%ebp)
   1edbf:	8b 45 08             	mov    0x8(%ebp),%eax
   1edc2:	89 45 ec             	mov    %eax,-0x14(%ebp)
   1edc5:	c7 45 f0 00 00 00 00 	movl   $0x0,-0x10(%ebp)
   1edcc:	8b 45 0c             	mov    0xc(%ebp),%eax
   1edcf:	89 45 f4             	mov    %eax,-0xc(%ebp)
   1edd2:	8d 45 14             	lea    0x14(%ebp),%eax
   1edd5:	89 44 24 08          	mov    %eax,0x8(%esp)
   1edd9:	8b 45 10             	mov    0x10(%ebp),%eax
   1eddc:	89 44 24 04          	mov    %eax,0x4(%esp)
   1ede0:	8d 45 e4             	lea    -0x1c(%ebp),%eax
   1ede3:	89 04 24             	mov    %eax,(%esp)
   1ede6:	e8 15 f4 ff ff       	call   1e200 <Format_Output>
   1edeb:	c9                   	leave  
   1edec:	c3                   	ret    

0001eded <memmove>:
   1eded:	55                   	push   %ebp
   1edee:	89 e5                	mov    %esp,%ebp
   1edf0:	56                   	push   %esi
   1edf1:	53                   	push   %ebx
   1edf2:	83 ec 10             	sub    $0x10,%esp
   1edf5:	8b 45 08             	mov    0x8(%ebp),%eax
   1edf8:	8b 55 0c             	mov    0xc(%ebp),%edx
   1edfb:	8b 75 10             	mov    0x10(%ebp),%esi
   1edfe:	85 f6                	test   %esi,%esi
   1ee00:	74 44                	je     1ee46 <memmove+0x59>
   1ee02:	8d 0c 30             	lea    (%eax,%esi,1),%ecx
   1ee05:	39 ca                	cmp    %ecx,%edx
   1ee07:	73 07                	jae    1ee10 <memmove+0x23>
   1ee09:	8d 1c 32             	lea    (%edx,%esi,1),%ebx
   1ee0c:	39 d8                	cmp    %ebx,%eax
   1ee0e:	72 12                	jb     1ee22 <memmove+0x35>
   1ee10:	89 74 24 08          	mov    %esi,0x8(%esp)
   1ee14:	89 54 24 04          	mov    %edx,0x4(%esp)
   1ee18:	89 04 24             	mov    %eax,(%esp)
   1ee1b:	e8 d3 fb ff ff       	call   1e9f3 <memcpy>
   1ee20:	eb 24                	jmp    1ee46 <memmove+0x59>
   1ee22:	39 d0                	cmp    %edx,%eax
   1ee24:	73 0f                	jae    1ee35 <memmove+0x48>
   1ee26:	83 c0 01             	add    $0x1,%eax
   1ee29:	83 c2 01             	add    $0x1,%edx
   1ee2c:	0f b6 4a ff          	movzbl -0x1(%edx),%ecx
   1ee30:	88 48 ff             	mov    %cl,-0x1(%eax)
   1ee33:	eb f1                	jmp    1ee26 <memmove+0x39>
   1ee35:	39 d0                	cmp    %edx,%eax
   1ee37:	76 0d                	jbe    1ee46 <memmove+0x59>
   1ee39:	83 e9 01             	sub    $0x1,%ecx
   1ee3c:	83 eb 01             	sub    $0x1,%ebx
   1ee3f:	0f b6 03             	movzbl (%ebx),%eax
   1ee42:	88 01                	mov    %al,(%ecx)
   1ee44:	eb f3                	jmp    1ee39 <memmove+0x4c>
   1ee46:	83 c4 10             	add    $0x10,%esp
   1ee49:	5b                   	pop    %ebx
   1ee4a:	5e                   	pop    %esi
   1ee4b:	5d                   	pop    %ebp
   1ee4c:	c3                   	ret    
